Archive member included because of file (symbol)

f:/quatus/nios2eds/bin/gnu/h-i686-mingw32/bin/../lib/gcc/nios2-elf/4.1.2/../../../../nios2-elf/lib/mno-hw-mul\libc.a(lib_a-printf.o)
                              obj/default/count_binary.o (printf)
f:/quatus/nios2eds/bin/gnu/h-i686-mingw32/bin/../lib/gcc/nios2-elf/4.1.2/../../../../nios2-elf/lib/mno-hw-mul\libc.a(lib_a-puts.o)
                              obj/default/count_binary.o (puts)
f:/quatus/nios2eds/bin/gnu/h-i686-mingw32/bin/../lib/gcc/nios2-elf/4.1.2/../../../../nios2-elf/lib/mno-hw-mul\libc.a(lib_a-rand.o)
                              obj/default/count_binary.o (srand)
f:/quatus/nios2eds/bin/gnu/h-i686-mingw32/bin/../lib/gcc/nios2-elf/4.1.2/../../../../nios2-elf/lib/mno-hw-mul\libc.a(lib_a-strlen.o)
                              f:/quatus/nios2eds/bin/gnu/h-i686-mingw32/bin/../lib/gcc/nios2-elf/4.1.2/../../../../nios2-elf/lib/mno-hw-mul\libc.a(lib_a-puts.o) (strlen)
f:/quatus/nios2eds/bin/gnu/h-i686-mingw32/bin/../lib/gcc/nios2-elf/4.1.2/../../../../nios2-elf/lib/mno-hw-mul\libc.a(lib_a-time.o)
                              obj/default/count_binary.o (time)
f:/quatus/nios2eds/bin/gnu/h-i686-mingw32/bin/../lib/gcc/nios2-elf/4.1.2/../../../../nios2-elf/lib/mno-hw-mul\libc.a(lib_a-vfprintf.o)
                              f:/quatus/nios2eds/bin/gnu/h-i686-mingw32/bin/../lib/gcc/nios2-elf/4.1.2/../../../../nios2-elf/lib/mno-hw-mul\libc.a(lib_a-printf.o) (___vfprintf_internal_r)
f:/quatus/nios2eds/bin/gnu/h-i686-mingw32/bin/../lib/gcc/nios2-elf/4.1.2/../../../../nios2-elf/lib/mno-hw-mul\libc.a(lib_a-wsetup.o)
                              f:/quatus/nios2eds/bin/gnu/h-i686-mingw32/bin/../lib/gcc/nios2-elf/4.1.2/../../../../nios2-elf/lib/mno-hw-mul\libc.a(lib_a-vfprintf.o) (__swsetup_r)
f:/quatus/nios2eds/bin/gnu/h-i686-mingw32/bin/../lib/gcc/nios2-elf/4.1.2/../../../../nios2-elf/lib/mno-hw-mul\libc.a(lib_a-dtoa.o)
                              f:/quatus/nios2eds/bin/gnu/h-i686-mingw32/bin/../lib/gcc/nios2-elf/4.1.2/../../../../nios2-elf/lib/mno-hw-mul\libc.a(lib_a-vfprintf.o) (_dtoa_r)
f:/quatus/nios2eds/bin/gnu/h-i686-mingw32/bin/../lib/gcc/nios2-elf/4.1.2/../../../../nios2-elf/lib/mno-hw-mul\libc.a(lib_a-fflush.o)
                              f:/quatus/nios2eds/bin/gnu/h-i686-mingw32/bin/../lib/gcc/nios2-elf/4.1.2/../../../../nios2-elf/lib/mno-hw-mul\libc.a(lib_a-vfprintf.o) (_fflush_r)
f:/quatus/nios2eds/bin/gnu/h-i686-mingw32/bin/../lib/gcc/nios2-elf/4.1.2/../../../../nios2-elf/lib/mno-hw-mul\libc.a(lib_a-findfp.o)
                              f:/quatus/nios2eds/bin/gnu/h-i686-mingw32/bin/../lib/gcc/nios2-elf/4.1.2/../../../../nios2-elf/lib/mno-hw-mul\libc.a(lib_a-vfprintf.o) (__sinit)
f:/quatus/nios2eds/bin/gnu/h-i686-mingw32/bin/../lib/gcc/nios2-elf/4.1.2/../../../../nios2-elf/lib/mno-hw-mul\libc.a(lib_a-freer.o)
                              f:/quatus/nios2eds/bin/gnu/h-i686-mingw32/bin/../lib/gcc/nios2-elf/4.1.2/../../../../nios2-elf/lib/mno-hw-mul\libc.a(lib_a-wsetup.o) (_free_r)
f:/quatus/nios2eds/bin/gnu/h-i686-mingw32/bin/../lib/gcc/nios2-elf/4.1.2/../../../../nios2-elf/lib/mno-hw-mul\libc.a(lib_a-fvwrite.o)
                              f:/quatus/nios2eds/bin/gnu/h-i686-mingw32/bin/../lib/gcc/nios2-elf/4.1.2/../../../../nios2-elf/lib/mno-hw-mul\libc.a(lib_a-puts.o) (__sfvwrite_r)
f:/quatus/nios2eds/bin/gnu/h-i686-mingw32/bin/../lib/gcc/nios2-elf/4.1.2/../../../../nios2-elf/lib/mno-hw-mul\libc.a(lib_a-fwalk.o)
                              f:/quatus/nios2eds/bin/gnu/h-i686-mingw32/bin/../lib/gcc/nios2-elf/4.1.2/../../../../nios2-elf/lib/mno-hw-mul\libc.a(lib_a-fflush.o) (_fwalk_reent)
f:/quatus/nios2eds/bin/gnu/h-i686-mingw32/bin/../lib/gcc/nios2-elf/4.1.2/../../../../nios2-elf/lib/mno-hw-mul\libc.a(lib_a-gettimeofdayr.o)
                              f:/quatus/nios2eds/bin/gnu/h-i686-mingw32/bin/../lib/gcc/nios2-elf/4.1.2/../../../../nios2-elf/lib/mno-hw-mul\libc.a(lib_a-time.o) (_gettimeofday_r)
f:/quatus/nios2eds/bin/gnu/h-i686-mingw32/bin/../lib/gcc/nios2-elf/4.1.2/../../../../nios2-elf/lib/mno-hw-mul\libc.a(lib_a-impure.o)
                              f:/quatus/nios2eds/bin/gnu/h-i686-mingw32/bin/../lib/gcc/nios2-elf/4.1.2/../../../../nios2-elf/lib/mno-hw-mul\libc.a(lib_a-printf.o) (_impure_ptr)
f:/quatus/nios2eds/bin/gnu/h-i686-mingw32/bin/../lib/gcc/nios2-elf/4.1.2/../../../../nios2-elf/lib/mno-hw-mul\libc.a(lib_a-int_errno.o)
                              f:/quatus/nios2eds/bin/gnu/h-i686-mingw32/bin/../lib/gcc/nios2-elf/4.1.2/../../../../nios2-elf/lib/mno-hw-mul\libc.a(lib_a-gettimeofdayr.o) (errno)
f:/quatus/nios2eds/bin/gnu/h-i686-mingw32/bin/../lib/gcc/nios2-elf/4.1.2/../../../../nios2-elf/lib/mno-hw-mul\libc.a(lib_a-locale.o)
                              f:/quatus/nios2eds/bin/gnu/h-i686-mingw32/bin/../lib/gcc/nios2-elf/4.1.2/../../../../nios2-elf/lib/mno-hw-mul\libc.a(lib_a-vfprintf.o) (_localeconv_r)
f:/quatus/nios2eds/bin/gnu/h-i686-mingw32/bin/../lib/gcc/nios2-elf/4.1.2/../../../../nios2-elf/lib/mno-hw-mul\libc.a(lib_a-makebuf.o)
                              f:/quatus/nios2eds/bin/gnu/h-i686-mingw32/bin/../lib/gcc/nios2-elf/4.1.2/../../../../nios2-elf/lib/mno-hw-mul\libc.a(lib_a-wsetup.o) (__smakebuf_r)
f:/quatus/nios2eds/bin/gnu/h-i686-mingw32/bin/../lib/gcc/nios2-elf/4.1.2/../../../../nios2-elf/lib/mno-hw-mul\libc.a(lib_a-mallocr.o)
                              f:/quatus/nios2eds/bin/gnu/h-i686-mingw32/bin/../lib/gcc/nios2-elf/4.1.2/../../../../nios2-elf/lib/mno-hw-mul\libc.a(lib_a-findfp.o) (_malloc_r)
f:/quatus/nios2eds/bin/gnu/h-i686-mingw32/bin/../lib/gcc/nios2-elf/4.1.2/../../../../nios2-elf/lib/mno-hw-mul\libc.a(lib_a-memchr.o)
                              f:/quatus/nios2eds/bin/gnu/h-i686-mingw32/bin/../lib/gcc/nios2-elf/4.1.2/../../../../nios2-elf/lib/mno-hw-mul\libc.a(lib_a-vfprintf.o) (memchr)
f:/quatus/nios2eds/bin/gnu/h-i686-mingw32/bin/../lib/gcc/nios2-elf/4.1.2/../../../../nios2-elf/lib/mno-hw-mul\libc.a(lib_a-memcpy.o)
                              f:/quatus/nios2eds/bin/gnu/h-i686-mingw32/bin/../lib/gcc/nios2-elf/4.1.2/../../../../nios2-elf/lib/mno-hw-mul\libc.a(lib_a-dtoa.o) (memcpy)
f:/quatus/nios2eds/bin/gnu/h-i686-mingw32/bin/../lib/gcc/nios2-elf/4.1.2/../../../../nios2-elf/lib/mno-hw-mul\libc.a(lib_a-memmove.o)
                              f:/quatus/nios2eds/bin/gnu/h-i686-mingw32/bin/../lib/gcc/nios2-elf/4.1.2/../../../../nios2-elf/lib/mno-hw-mul\libc.a(lib_a-fvwrite.o) (memmove)
f:/quatus/nios2eds/bin/gnu/h-i686-mingw32/bin/../lib/gcc/nios2-elf/4.1.2/../../../../nios2-elf/lib/mno-hw-mul\libc.a(lib_a-memset.o)
                              f:/quatus/nios2eds/bin/gnu/h-i686-mingw32/bin/../lib/gcc/nios2-elf/4.1.2/../../../../nios2-elf/lib/mno-hw-mul\libc.a(lib_a-findfp.o) (memset)
f:/quatus/nios2eds/bin/gnu/h-i686-mingw32/bin/../lib/gcc/nios2-elf/4.1.2/../../../../nios2-elf/lib/mno-hw-mul\libc.a(lib_a-mprec.o)
                              f:/quatus/nios2eds/bin/gnu/h-i686-mingw32/bin/../lib/gcc/nios2-elf/4.1.2/../../../../nios2-elf/lib/mno-hw-mul\libc.a(lib_a-dtoa.o) (_Bfree)
f:/quatus/nios2eds/bin/gnu/h-i686-mingw32/bin/../lib/gcc/nios2-elf/4.1.2/../../../../nios2-elf/lib/mno-hw-mul\libc.a(lib_a-reallocr.o)
                              f:/quatus/nios2eds/bin/gnu/h-i686-mingw32/bin/../lib/gcc/nios2-elf/4.1.2/../../../../nios2-elf/lib/mno-hw-mul\libc.a(lib_a-fvwrite.o) (_realloc_r)
f:/quatus/nios2eds/bin/gnu/h-i686-mingw32/bin/../lib/gcc/nios2-elf/4.1.2/../../../../nios2-elf/lib/mno-hw-mul\libc.a(lib_a-s_isinfd.o)
                              f:/quatus/nios2eds/bin/gnu/h-i686-mingw32/bin/../lib/gcc/nios2-elf/4.1.2/../../../../nios2-elf/lib/mno-hw-mul\libc.a(lib_a-vfprintf.o) (__isinfd)
f:/quatus/nios2eds/bin/gnu/h-i686-mingw32/bin/../lib/gcc/nios2-elf/4.1.2/../../../../nios2-elf/lib/mno-hw-mul\libc.a(lib_a-s_isnand.o)
                              f:/quatus/nios2eds/bin/gnu/h-i686-mingw32/bin/../lib/gcc/nios2-elf/4.1.2/../../../../nios2-elf/lib/mno-hw-mul\libc.a(lib_a-vfprintf.o) (__isnand)
f:/quatus/nios2eds/bin/gnu/h-i686-mingw32/bin/../lib/gcc/nios2-elf/4.1.2/../../../../nios2-elf/lib/mno-hw-mul\libc.a(lib_a-sbrkr.o)
                              f:/quatus/nios2eds/bin/gnu/h-i686-mingw32/bin/../lib/gcc/nios2-elf/4.1.2/../../../../nios2-elf/lib/mno-hw-mul\libc.a(lib_a-freer.o) (_sbrk_r)
f:/quatus/nios2eds/bin/gnu/h-i686-mingw32/bin/../lib/gcc/nios2-elf/4.1.2/../../../../nios2-elf/lib/mno-hw-mul\libc.a(lib_a-stdio.o)
                              f:/quatus/nios2eds/bin/gnu/h-i686-mingw32/bin/../lib/gcc/nios2-elf/4.1.2/../../../../nios2-elf/lib/mno-hw-mul\libc.a(lib_a-findfp.o) (__sclose)
f:/quatus/nios2eds/bin/gnu/h-i686-mingw32/bin/../lib/gcc/nios2-elf/4.1.2/../../../../nios2-elf/lib/mno-hw-mul\libc.a(lib_a-strcmp.o)
                              f:/quatus/nios2eds/bin/gnu/h-i686-mingw32/bin/../lib/gcc/nios2-elf/4.1.2/../../../../nios2-elf/lib/mno-hw-mul\libc.a(lib_a-locale.o) (strcmp)
f:/quatus/nios2eds/bin/gnu/h-i686-mingw32/bin/../lib/gcc/nios2-elf/4.1.2/../../../../nios2-elf/lib/mno-hw-mul\libc.a(lib_a-writer.o)
                              f:/quatus/nios2eds/bin/gnu/h-i686-mingw32/bin/../lib/gcc/nios2-elf/4.1.2/../../../../nios2-elf/lib/mno-hw-mul\libc.a(lib_a-stdio.o) (_write_r)
f:/quatus/nios2eds/bin/gnu/h-i686-mingw32/bin/../lib/gcc/nios2-elf/4.1.2/../../../../nios2-elf/lib/mno-hw-mul\libc.a(lib_a-callocr.o)
                              f:/quatus/nios2eds/bin/gnu/h-i686-mingw32/bin/../lib/gcc/nios2-elf/4.1.2/../../../../nios2-elf/lib/mno-hw-mul\libc.a(lib_a-mprec.o) (_calloc_r)
f:/quatus/nios2eds/bin/gnu/h-i686-mingw32/bin/../lib/gcc/nios2-elf/4.1.2/../../../../nios2-elf/lib/mno-hw-mul\libc.a(lib_a-closer.o)
                              f:/quatus/nios2eds/bin/gnu/h-i686-mingw32/bin/../lib/gcc/nios2-elf/4.1.2/../../../../nios2-elf/lib/mno-hw-mul\libc.a(lib_a-stdio.o) (_close_r)
f:/quatus/nios2eds/bin/gnu/h-i686-mingw32/bin/../lib/gcc/nios2-elf/4.1.2/../../../../nios2-elf/lib/mno-hw-mul\libc.a(lib_a-fclose.o)
                              f:/quatus/nios2eds/bin/gnu/h-i686-mingw32/bin/../lib/gcc/nios2-elf/4.1.2/../../../../nios2-elf/lib/mno-hw-mul\libc.a(lib_a-findfp.o) (fclose)
f:/quatus/nios2eds/bin/gnu/h-i686-mingw32/bin/../lib/gcc/nios2-elf/4.1.2/../../../../nios2-elf/lib/mno-hw-mul\libc.a(lib_a-fstatr.o)
                              f:/quatus/nios2eds/bin/gnu/h-i686-mingw32/bin/../lib/gcc/nios2-elf/4.1.2/../../../../nios2-elf/lib/mno-hw-mul\libc.a(lib_a-makebuf.o) (_fstat_r)
f:/quatus/nios2eds/bin/gnu/h-i686-mingw32/bin/../lib/gcc/nios2-elf/4.1.2/../../../../nios2-elf/lib/mno-hw-mul\libc.a(lib_a-isattyr.o)
                              f:/quatus/nios2eds/bin/gnu/h-i686-mingw32/bin/../lib/gcc/nios2-elf/4.1.2/../../../../nios2-elf/lib/mno-hw-mul\libc.a(lib_a-makebuf.o) (_isatty_r)
f:/quatus/nios2eds/bin/gnu/h-i686-mingw32/bin/../lib/gcc/nios2-elf/4.1.2/../../../../nios2-elf/lib/mno-hw-mul\libc.a(lib_a-lseekr.o)
                              f:/quatus/nios2eds/bin/gnu/h-i686-mingw32/bin/../lib/gcc/nios2-elf/4.1.2/../../../../nios2-elf/lib/mno-hw-mul\libc.a(lib_a-stdio.o) (_lseek_r)
f:/quatus/nios2eds/bin/gnu/h-i686-mingw32/bin/../lib/gcc/nios2-elf/4.1.2/../../../../nios2-elf/lib/mno-hw-mul\libc.a(lib_a-readr.o)
                              f:/quatus/nios2eds/bin/gnu/h-i686-mingw32/bin/../lib/gcc/nios2-elf/4.1.2/../../../../nios2-elf/lib/mno-hw-mul\libc.a(lib_a-stdio.o) (_read_r)
f:/quatus/nios2eds/bin/gnu/h-i686-mingw32/bin/../lib/gcc/nios2-elf/4.1.2/mno-hw-mul\libgcc.a(_muldi3.o)
                              f:/quatus/nios2eds/bin/gnu/h-i686-mingw32/bin/../lib/gcc/nios2-elf/4.1.2/../../../../nios2-elf/lib/mno-hw-mul\libc.a(lib_a-rand.o) (__muldi3)
f:/quatus/nios2eds/bin/gnu/h-i686-mingw32/bin/../lib/gcc/nios2-elf/4.1.2/mno-hw-mul\libgcc.a(_udivdi3.o)
                              f:/quatus/nios2eds/bin/gnu/h-i686-mingw32/bin/../lib/gcc/nios2-elf/4.1.2/../../../../nios2-elf/lib/mno-hw-mul\libc.a(lib_a-vfprintf.o) (__udivdi3)
f:/quatus/nios2eds/bin/gnu/h-i686-mingw32/bin/../lib/gcc/nios2-elf/4.1.2/mno-hw-mul\libgcc.a(_umoddi3.o)
                              f:/quatus/nios2eds/bin/gnu/h-i686-mingw32/bin/../lib/gcc/nios2-elf/4.1.2/../../../../nios2-elf/lib/mno-hw-mul\libc.a(lib_a-vfprintf.o) (__umoddi3)
f:/quatus/nios2eds/bin/gnu/h-i686-mingw32/bin/../lib/gcc/nios2-elf/4.1.2/mno-hw-mul\libgcc.a(_addsub_df.o)
                              f:/quatus/nios2eds/bin/gnu/h-i686-mingw32/bin/../lib/gcc/nios2-elf/4.1.2/../../../../nios2-elf/lib/mno-hw-mul\libc.a(lib_a-dtoa.o) (__subdf3)
f:/quatus/nios2eds/bin/gnu/h-i686-mingw32/bin/../lib/gcc/nios2-elf/4.1.2/mno-hw-mul\libgcc.a(_mul_df.o)
                              f:/quatus/nios2eds/bin/gnu/h-i686-mingw32/bin/../lib/gcc/nios2-elf/4.1.2/../../../../nios2-elf/lib/mno-hw-mul\libc.a(lib_a-dtoa.o) (__muldf3)
f:/quatus/nios2eds/bin/gnu/h-i686-mingw32/bin/../lib/gcc/nios2-elf/4.1.2/mno-hw-mul\libgcc.a(_div_df.o)
                              f:/quatus/nios2eds/bin/gnu/h-i686-mingw32/bin/../lib/gcc/nios2-elf/4.1.2/../../../../nios2-elf/lib/mno-hw-mul\libc.a(lib_a-dtoa.o) (__divdf3)
f:/quatus/nios2eds/bin/gnu/h-i686-mingw32/bin/../lib/gcc/nios2-elf/4.1.2/mno-hw-mul\libgcc.a(_eq_df.o)
                              f:/quatus/nios2eds/bin/gnu/h-i686-mingw32/bin/../lib/gcc/nios2-elf/4.1.2/../../../../nios2-elf/lib/mno-hw-mul\libc.a(lib_a-vfprintf.o) (__eqdf2)
f:/quatus/nios2eds/bin/gnu/h-i686-mingw32/bin/../lib/gcc/nios2-elf/4.1.2/mno-hw-mul\libgcc.a(_ne_df.o)
                              f:/quatus/nios2eds/bin/gnu/h-i686-mingw32/bin/../lib/gcc/nios2-elf/4.1.2/../../../../nios2-elf/lib/mno-hw-mul\libc.a(lib_a-vfprintf.o) (__nedf2)
f:/quatus/nios2eds/bin/gnu/h-i686-mingw32/bin/../lib/gcc/nios2-elf/4.1.2/mno-hw-mul\libgcc.a(_gt_df.o)
                              f:/quatus/nios2eds/bin/gnu/h-i686-mingw32/bin/../lib/gcc/nios2-elf/4.1.2/../../../../nios2-elf/lib/mno-hw-mul\libc.a(lib_a-dtoa.o) (__gtdf2)
f:/quatus/nios2eds/bin/gnu/h-i686-mingw32/bin/../lib/gcc/nios2-elf/4.1.2/mno-hw-mul\libgcc.a(_ge_df.o)
                              f:/quatus/nios2eds/bin/gnu/h-i686-mingw32/bin/../lib/gcc/nios2-elf/4.1.2/../../../../nios2-elf/lib/mno-hw-mul\libc.a(lib_a-dtoa.o) (__gedf2)
f:/quatus/nios2eds/bin/gnu/h-i686-mingw32/bin/../lib/gcc/nios2-elf/4.1.2/mno-hw-mul\libgcc.a(_lt_df.o)
                              f:/quatus/nios2eds/bin/gnu/h-i686-mingw32/bin/../lib/gcc/nios2-elf/4.1.2/../../../../nios2-elf/lib/mno-hw-mul\libc.a(lib_a-vfprintf.o) (__ltdf2)
f:/quatus/nios2eds/bin/gnu/h-i686-mingw32/bin/../lib/gcc/nios2-elf/4.1.2/mno-hw-mul\libgcc.a(_si_to_df.o)
                              f:/quatus/nios2eds/bin/gnu/h-i686-mingw32/bin/../lib/gcc/nios2-elf/4.1.2/../../../../nios2-elf/lib/mno-hw-mul\libc.a(lib_a-dtoa.o) (__floatsidf)
f:/quatus/nios2eds/bin/gnu/h-i686-mingw32/bin/../lib/gcc/nios2-elf/4.1.2/mno-hw-mul\libgcc.a(_df_to_si.o)
                              f:/quatus/nios2eds/bin/gnu/h-i686-mingw32/bin/../lib/gcc/nios2-elf/4.1.2/../../../../nios2-elf/lib/mno-hw-mul\libc.a(lib_a-dtoa.o) (__fixdfsi)
f:/quatus/nios2eds/bin/gnu/h-i686-mingw32/bin/../lib/gcc/nios2-elf/4.1.2/mno-hw-mul\libgcc.a(_thenan_df.o)
                              f:/quatus/nios2eds/bin/gnu/h-i686-mingw32/bin/../lib/gcc/nios2-elf/4.1.2/mno-hw-mul\libgcc.a(_addsub_df.o) (__thenan_df)
f:/quatus/nios2eds/bin/gnu/h-i686-mingw32/bin/../lib/gcc/nios2-elf/4.1.2/mno-hw-mul\libgcc.a(_usi_to_df.o)
                              f:/quatus/nios2eds/bin/gnu/h-i686-mingw32/bin/../lib/gcc/nios2-elf/4.1.2/../../../../nios2-elf/lib/mno-hw-mul\libc.a(lib_a-dtoa.o) (__floatunsidf)
f:/quatus/nios2eds/bin/gnu/h-i686-mingw32/bin/../lib/gcc/nios2-elf/4.1.2/mno-hw-mul\libgcc.a(lib2-divmod.o)
                              f:/quatus/nios2eds/bin/gnu/h-i686-mingw32/bin/../lib/gcc/nios2-elf/4.1.2/../../../../nios2-elf/lib/mno-hw-mul\libc.a(lib_a-vfprintf.o) (__divsi3)
f:/quatus/nios2eds/bin/gnu/h-i686-mingw32/bin/../lib/gcc/nios2-elf/4.1.2/mno-hw-mul\libgcc.a(lib2-mul.o)
                              f:/quatus/nios2eds/bin/gnu/h-i686-mingw32/bin/../lib/gcc/nios2-elf/4.1.2/../../../../nios2-elf/lib/mno-hw-mul\libc.a(lib_a-vfprintf.o) (__mulsi3)
f:/quatus/nios2eds/bin/gnu/h-i686-mingw32/bin/../lib/gcc/nios2-elf/4.1.2/mno-hw-mul\libgcc.a(_clz.o)
                              f:/quatus/nios2eds/bin/gnu/h-i686-mingw32/bin/../lib/gcc/nios2-elf/4.1.2/mno-hw-mul\libgcc.a(_udivdi3.o) (__clz_tab)
f:/quatus/nios2eds/bin/gnu/h-i686-mingw32/bin/../lib/gcc/nios2-elf/4.1.2/mno-hw-mul\libgcc.a(_clzsi2.o)
                              f:/quatus/nios2eds/bin/gnu/h-i686-mingw32/bin/../lib/gcc/nios2-elf/4.1.2/mno-hw-mul\libgcc.a(_si_to_df.o) (__clzsi2)
f:/quatus/nios2eds/bin/gnu/h-i686-mingw32/bin/../lib/gcc/nios2-elf/4.1.2/mno-hw-mul\libgcc.a(_pack_df.o)
                              f:/quatus/nios2eds/bin/gnu/h-i686-mingw32/bin/../lib/gcc/nios2-elf/4.1.2/mno-hw-mul\libgcc.a(_addsub_df.o) (__pack_d)
f:/quatus/nios2eds/bin/gnu/h-i686-mingw32/bin/../lib/gcc/nios2-elf/4.1.2/mno-hw-mul\libgcc.a(_unpack_df.o)
                              f:/quatus/nios2eds/bin/gnu/h-i686-mingw32/bin/../lib/gcc/nios2-elf/4.1.2/mno-hw-mul\libgcc.a(_addsub_df.o) (__unpack_d)
f:/quatus/nios2eds/bin/gnu/h-i686-mingw32/bin/../lib/gcc/nios2-elf/4.1.2/mno-hw-mul\libgcc.a(_fpcmp_parts_df.o)
                              f:/quatus/nios2eds/bin/gnu/h-i686-mingw32/bin/../lib/gcc/nios2-elf/4.1.2/mno-hw-mul\libgcc.a(_eq_df.o) (__fpcmp_parts_d)
../1223_bsp/\libhal_bsp.a(alt_close.o)
                              f:/quatus/nios2eds/bin/gnu/h-i686-mingw32/bin/../lib/gcc/nios2-elf/4.1.2/../../../../nios2-elf/lib/mno-hw-mul\libc.a(lib_a-closer.o) (close)
../1223_bsp/\libhal_bsp.a(alt_dev.o)
                              ../1223_bsp/\libhal_bsp.a(alt_close.o) (alt_fd_list)
../1223_bsp/\libhal_bsp.a(alt_errno.o)
                              ../1223_bsp/\libhal_bsp.a(alt_close.o) (alt_errno)
../1223_bsp/\libhal_bsp.a(alt_fstat.o)
                              f:/quatus/nios2eds/bin/gnu/h-i686-mingw32/bin/../lib/gcc/nios2-elf/4.1.2/../../../../nios2-elf/lib/mno-hw-mul\libc.a(lib_a-fstatr.o) (fstat)
../1223_bsp/\libhal_bsp.a(alt_gettod.o)
                              f:/quatus/nios2eds/bin/gnu/h-i686-mingw32/bin/../lib/gcc/nios2-elf/4.1.2/../../../../nios2-elf/lib/mno-hw-mul\libc.a(lib_a-gettimeofdayr.o) (gettimeofday)
../1223_bsp/\libhal_bsp.a(alt_irq_register.o)
                              obj/default/count_binary.o (alt_irq_register)
../1223_bsp/\libhal_bsp.a(alt_irq_vars.o)
                              ../1223_bsp/\libhal_bsp.a(alt_irq_register.o) (alt_irq_active)
../1223_bsp/\libhal_bsp.a(alt_isatty.o)
                              f:/quatus/nios2eds/bin/gnu/h-i686-mingw32/bin/../lib/gcc/nios2-elf/4.1.2/../../../../nios2-elf/lib/mno-hw-mul\libc.a(lib_a-isattyr.o) (isatty)
../1223_bsp/\libhal_bsp.a(alt_load.o)
                              ../1223_bsp//obj/HAL/src/crt0.o (alt_load)
../1223_bsp/\libhal_bsp.a(alt_lseek.o)
                              f:/quatus/nios2eds/bin/gnu/h-i686-mingw32/bin/../lib/gcc/nios2-elf/4.1.2/../../../../nios2-elf/lib/mno-hw-mul\libc.a(lib_a-lseekr.o) (lseek)
../1223_bsp/\libhal_bsp.a(alt_main.o)
                              ../1223_bsp//obj/HAL/src/crt0.o (alt_main)
../1223_bsp/\libhal_bsp.a(alt_malloc_lock.o)
                              f:/quatus/nios2eds/bin/gnu/h-i686-mingw32/bin/../lib/gcc/nios2-elf/4.1.2/../../../../nios2-elf/lib/mno-hw-mul\libc.a(lib_a-freer.o) (__malloc_lock)
../1223_bsp/\libhal_bsp.a(alt_read.o)
                              f:/quatus/nios2eds/bin/gnu/h-i686-mingw32/bin/../lib/gcc/nios2-elf/4.1.2/../../../../nios2-elf/lib/mno-hw-mul\libc.a(lib_a-readr.o) (read)
../1223_bsp/\libhal_bsp.a(alt_release_fd.o)
                              ../1223_bsp/\libhal_bsp.a(alt_close.o) (alt_release_fd)
../1223_bsp/\libhal_bsp.a(alt_sbrk.o)
                              f:/quatus/nios2eds/bin/gnu/h-i686-mingw32/bin/../lib/gcc/nios2-elf/4.1.2/../../../../nios2-elf/lib/mno-hw-mul\libc.a(lib_a-sbrkr.o) (sbrk)
../1223_bsp/\libhal_bsp.a(alt_tick.o)
                              ../1223_bsp/\libhal_bsp.a(alt_gettod.o) (_alt_tick_rate)
../1223_bsp/\libhal_bsp.a(alt_usleep.o)
                              obj/default/count_binary.o (usleep)
../1223_bsp/\libhal_bsp.a(alt_write.o)
                              f:/quatus/nios2eds/bin/gnu/h-i686-mingw32/bin/../lib/gcc/nios2-elf/4.1.2/../../../../nios2-elf/lib/mno-hw-mul\libc.a(lib_a-writer.o) (write)
../1223_bsp/\libhal_bsp.a(alt_sys_init.o)
                              ../1223_bsp/\libhal_bsp.a(alt_main.o) (alt_irq_init)
../1223_bsp/\libhal_bsp.a(altera_avalon_dma.o)
                              ../1223_bsp/\libhal_bsp.a(alt_sys_init.o) (alt_avalon_dma_launch_bidir)
../1223_bsp/\libhal_bsp.a(altera_avalon_jtag_uart_fd.o)
                              ../1223_bsp/\libhal_bsp.a(alt_sys_init.o) (altera_avalon_jtag_uart_read_fd)
../1223_bsp/\libhal_bsp.a(altera_avalon_jtag_uart_init.o)
                              ../1223_bsp/\libhal_bsp.a(alt_sys_init.o) (altera_avalon_jtag_uart_init)
../1223_bsp/\libhal_bsp.a(altera_avalon_jtag_uart_ioctl.o)
                              ../1223_bsp/\libhal_bsp.a(altera_avalon_jtag_uart_fd.o) (altera_avalon_jtag_uart_ioctl)
../1223_bsp/\libhal_bsp.a(altera_avalon_jtag_uart_read.o)
                              ../1223_bsp/\libhal_bsp.a(altera_avalon_jtag_uart_fd.o) (altera_avalon_jtag_uart_read)
../1223_bsp/\libhal_bsp.a(altera_avalon_jtag_uart_write.o)
                              ../1223_bsp/\libhal_bsp.a(altera_avalon_jtag_uart_fd.o) (altera_avalon_jtag_uart_write)
../1223_bsp/\libhal_bsp.a(alt_alarm_start.o)
                              ../1223_bsp/\libhal_bsp.a(altera_avalon_jtag_uart_init.o) (alt_alarm_start)
../1223_bsp/\libhal_bsp.a(alt_busy_sleep.o)
                              ../1223_bsp/\libhal_bsp.a(alt_usleep.o) (alt_busy_sleep)
../1223_bsp/\libhal_bsp.a(alt_dcache_flush_all.o)
                              ../1223_bsp/\libhal_bsp.a(alt_load.o) (alt_dcache_flush_all)
../1223_bsp/\libhal_bsp.a(alt_dev_llist_insert.o)
                              ../1223_bsp/\libhal_bsp.a(alt_sys_init.o) (alt_dev_llist_insert)
../1223_bsp/\libhal_bsp.a(alt_dma_rxchan_open.o)
                              ../1223_bsp/\libhal_bsp.a(altera_avalon_dma.o) (alt_dma_rxchan_list)
../1223_bsp/\libhal_bsp.a(alt_dma_txchan_open.o)
                              ../1223_bsp/\libhal_bsp.a(altera_avalon_dma.o) (alt_dma_txchan_list)
../1223_bsp/\libhal_bsp.a(alt_do_ctors.o)
                              ../1223_bsp/\libhal_bsp.a(alt_main.o) (_do_ctors)
../1223_bsp/\libhal_bsp.a(alt_do_dtors.o)
                              ../1223_bsp/\libhal_bsp.a(alt_main.o) (_do_dtors)
../1223_bsp/\libhal_bsp.a(alt_find_dev.o)
                              ../1223_bsp/\libhal_bsp.a(alt_dma_rxchan_open.o) (alt_find_dev)
../1223_bsp/\libhal_bsp.a(alt_icache_flush_all.o)
                              ../1223_bsp/\libhal_bsp.a(alt_load.o) (alt_icache_flush_all)
../1223_bsp/\libhal_bsp.a(alt_iic.o)
                              ../1223_bsp/\libhal_bsp.a(altera_avalon_dma.o) (alt_ic_isr_register)
../1223_bsp/\libhal_bsp.a(alt_iic_isr_register.o)
                              ../1223_bsp/\libhal_bsp.a(alt_iic.o) (alt_iic_isr_register)
../1223_bsp/\libhal_bsp.a(alt_io_redirect.o)
                              ../1223_bsp/\libhal_bsp.a(alt_main.o) (alt_io_redirect)
../1223_bsp/\libhal_bsp.a(alt_irq_entry.o)
                              ../1223_bsp/\libhal_bsp.a(alt_irq_register.o) (alt_irq_entry)
../1223_bsp/\libhal_bsp.a(alt_irq_handler.o)
                              ../1223_bsp/\libhal_bsp.a(alt_irq_register.o) (alt_irq_handler)
../1223_bsp/\libhal_bsp.a(alt_open.o)
                              ../1223_bsp/\libhal_bsp.a(alt_io_redirect.o) (open)
../1223_bsp/\libhal_bsp.a(altera_nios2_qsys_irq.o)
                              ../1223_bsp/\libhal_bsp.a(alt_sys_init.o) (altera_nios2_qsys_irq_init)
../1223_bsp/\libhal_bsp.a(alt_exception_entry.o)
                              ../1223_bsp/\libhal_bsp.a(alt_irq_entry.o) (alt_exception)
../1223_bsp/\libhal_bsp.a(alt_find_file.o)
                              ../1223_bsp/\libhal_bsp.a(alt_open.o) (alt_find_file)
../1223_bsp/\libhal_bsp.a(alt_get_fd.o)
                              ../1223_bsp/\libhal_bsp.a(alt_open.o) (alt_get_fd)
f:/quatus/nios2eds/bin/gnu/h-i686-mingw32/bin/../lib/gcc/nios2-elf/4.1.2/../../../../nios2-elf/lib/mno-hw-mul\libc.a(lib_a-atexit.o)
                              ../1223_bsp/\libhal_bsp.a(alt_main.o) (atexit)
f:/quatus/nios2eds/bin/gnu/h-i686-mingw32/bin/../lib/gcc/nios2-elf/4.1.2/../../../../nios2-elf/lib/mno-hw-mul\libc.a(lib_a-exit.o)
                              ../1223_bsp/\libhal_bsp.a(alt_main.o) (exit)
f:/quatus/nios2eds/bin/gnu/h-i686-mingw32/bin/../lib/gcc/nios2-elf/4.1.2/../../../../nios2-elf/lib/mno-hw-mul\libc.a(lib_a-memcmp.o)
                              ../1223_bsp/\libhal_bsp.a(alt_find_dev.o) (memcmp)
f:/quatus/nios2eds/bin/gnu/h-i686-mingw32/bin/../lib/gcc/nios2-elf/4.1.2/../../../../nios2-elf/lib/mno-hw-mul\libc.a(lib_a-__atexit.o)
                              f:/quatus/nios2eds/bin/gnu/h-i686-mingw32/bin/../lib/gcc/nios2-elf/4.1.2/../../../../nios2-elf/lib/mno-hw-mul\libc.a(lib_a-atexit.o) (__register_exitproc)
f:/quatus/nios2eds/bin/gnu/h-i686-mingw32/bin/../lib/gcc/nios2-elf/4.1.2/../../../../nios2-elf/lib/mno-hw-mul\libc.a(lib_a-__call_atexit.o)
                              f:/quatus/nios2eds/bin/gnu/h-i686-mingw32/bin/../lib/gcc/nios2-elf/4.1.2/../../../../nios2-elf/lib/mno-hw-mul\libc.a(lib_a-exit.o) (__call_exitprocs)
../1223_bsp/\libhal_bsp.a(alt_exit.o)
                              f:/quatus/nios2eds/bin/gnu/h-i686-mingw32/bin/../lib/gcc/nios2-elf/4.1.2/../../../../nios2-elf/lib/mno-hw-mul\libc.a(lib_a-exit.o) (_exit)

Allocating common symbols
Common symbol       size              file

alt_irq             0x100             ../1223_bsp/\libhal_bsp.a(alt_irq_handler.o)
tmp                 0x4               obj/default/count_binary.o
errno               0x4               f:/quatus/nios2eds/bin/gnu/h-i686-mingw32/bin/../lib/gcc/nios2-elf/4.1.2/../../../../nios2-elf/lib/mno-hw-mul\libc.a(lib_a-int_errno.o)
_atexit0            0x190             f:/quatus/nios2eds/bin/gnu/h-i686-mingw32/bin/../lib/gcc/nios2-elf/4.1.2/../../../../nios2-elf/lib/mno-hw-mul\libc.a(lib_a-atexit.o)
sPIO                0x24              obj/default/count_binary.o

Memory Configuration

Name             Origin             Length             Attributes
reset            0x02800000         0x00000020
sdram_ctrl       0x02800020         0x007fffe0
*default*        0x00000000         0xffffffff

Linker script and memory map

LOAD ../1223_bsp//obj/HAL/src/crt0.o
LOAD obj/default/count_binary.o
LOAD f:/quatus/nios2eds/bin/gnu/h-i686-mingw32/bin/../lib/gcc/nios2-elf/4.1.2/../../../../nios2-elf/lib/mno-hw-mul\libstdc++.a
LOAD f:/quatus/nios2eds/bin/gnu/h-i686-mingw32/bin/../lib/gcc/nios2-elf/4.1.2/../../../../nios2-elf/lib/mno-hw-mul\libm.a
LOAD f:/quatus/nios2eds/bin/gnu/h-i686-mingw32/bin/../lib/gcc/nios2-elf/4.1.2/mno-hw-mul\libgcc.a
START GROUP
LOAD f:/quatus/nios2eds/bin/gnu/h-i686-mingw32/bin/../lib/gcc/nios2-elf/4.1.2/../../../../nios2-elf/lib/mno-hw-mul\libc.a
LOAD f:/quatus/nios2eds/bin/gnu/h-i686-mingw32/bin/../lib/gcc/nios2-elf/4.1.2/mno-hw-mul\libgcc.a
LOAD ../1223_bsp/\libhal_bsp.a
END GROUP
LOAD f:/quatus/nios2eds/bin/gnu/h-i686-mingw32/bin/../lib/gcc/nios2-elf/4.1.2/mno-hw-mul\libgcc.a
                0x02800000                __alt_mem_sdram_ctrl = 0x2800000

.entry          0x02800000       0x20
 *(.entry)
 .entry         0x02800000       0x20 ../1223_bsp//obj/HAL/src/crt0.o
                0x02800000                __reset

.exceptions     0x02800020      0x194
                0x02800020                PROVIDE (__ram_exceptions_start, ABSOLUTE (.))
                0x02800020                . = ALIGN (0x20)
 *(.irq)
 *(.exceptions.entry.label)
 .exceptions.entry.label
                0x02800020        0x0 ../1223_bsp/\libhal_bsp.a(alt_irq_entry.o)
                0x02800020                alt_irq_entry
 .exceptions.entry.label
                0x02800020        0x0 ../1223_bsp/\libhal_bsp.a(alt_exception_entry.o)
                0x02800020                alt_exception
 *(.exceptions.entry.user)
 *(.exceptions.entry)
 .exceptions.entry
                0x02800020       0x54 ../1223_bsp/\libhal_bsp.a(alt_exception_entry.o)
 *(.exceptions.irqtest.user)
 *(.exceptions.irqtest)
 .exceptions.irqtest
                0x02800074       0x10 ../1223_bsp/\libhal_bsp.a(alt_irq_entry.o)
 *(.exceptions.irqhandler.user)
 *(.exceptions.irqhandler)
 .exceptions.irqhandler
                0x02800084        0x4 ../1223_bsp/\libhal_bsp.a(alt_irq_entry.o)
 *(.exceptions.irqreturn.user)
 *(.exceptions.irqreturn)
 .exceptions.irqreturn
                0x02800088        0x4 ../1223_bsp/\libhal_bsp.a(alt_irq_entry.o)
 *(.exceptions.notirq.label)
 .exceptions.notirq.label
                0x0280008c        0x0 ../1223_bsp/\libhal_bsp.a(alt_irq_entry.o)
 *(.exceptions.notirq.user)
 *(.exceptions.notirq)
 .exceptions.notirq
                0x0280008c        0x8 ../1223_bsp/\libhal_bsp.a(alt_exception_entry.o)
 *(.exceptions.soft.user)
 *(.exceptions.soft)
 *(.exceptions.unknown.user)
 *(.exceptions.unknown)
 .exceptions.unknown
                0x02800094        0x4 ../1223_bsp/\libhal_bsp.a(alt_exception_entry.o)
 *(.exceptions.exit.label)
 .exceptions.exit.label
                0x02800098        0x0 ../1223_bsp/\libhal_bsp.a(alt_irq_entry.o)
 .exceptions.exit.label
                0x02800098        0x0 ../1223_bsp/\libhal_bsp.a(alt_exception_entry.o)
 *(.exceptions.exit.user)
 *(.exceptions.exit)
 .exceptions.exit
                0x02800098       0x54 ../1223_bsp/\libhal_bsp.a(alt_exception_entry.o)
 *(.exceptions)
 .exceptions    0x028000ec       0xc8 ../1223_bsp/\libhal_bsp.a(alt_irq_handler.o)
                0x028000ec                alt_irq_handler
                0x028001b4                PROVIDE (__ram_exceptions_end, ABSOLUTE (.))
                0x02800020                PROVIDE (__flash_exceptions_start, LOADADDR (.exceptions))

.text           0x028001b4     0xe374
                0x028001b4                PROVIDE (stext, ABSOLUTE (.))
 *(.interp)
 *(.hash)
 *(.dynsym)
 *(.dynstr)
 *(.gnu.version)
 *(.gnu.version_d)
 *(.gnu.version_r)
 *(.rel.init)
 *(.rela.init)
 *(.rel.text .rel.text.* .rel.gnu.linkonce.t.*)
 *(.rela.text .rela.text.* .rela.gnu.linkonce.t.*)
 *(.rel.fini)
 *(.rela.fini)
 *(.rel.rodata .rel.rodata.* .rel.gnu.linkonce.r.*)
 *(.rela.rodata .rela.rodata.* .rela.gnu.linkonce.r.*)
 *(.rel.data .rel.data.* .rel.gnu.linkonce.d.*)
 *(.rela.data .rela.data.* .rela.gnu.linkonce.d.*)
 *(.rel.tdata .rel.tdata.* .rel.gnu.linkonce.td.*)
 *(.rela.tdata .rela.tdata.* .rela.gnu.linkonce.td.*)
 *(.rel.tbss .rel.tbss.* .rel.gnu.linkonce.tb.*)
 *(.rela.tbss .rela.tbss.* .rela.gnu.linkonce.tb.*)
 *(.rel.ctors)
 *(.rela.ctors)
 *(.rel.dtors)
 *(.rela.dtors)
 *(.rel.got)
 *(.rela.got)
 *(.rel.sdata .rel.sdata.* .rel.gnu.linkonce.s.*)
 *(.rela.sdata .rela.sdata.* .rela.gnu.linkonce.s.*)
 *(.rel.sbss .rel.sbss.* .rel.gnu.linkonce.sb.*)
 *(.rela.sbss .rela.sbss.* .rela.gnu.linkonce.sb.*)
 *(.rel.sdata2 .rel.sdata2.* .rel.gnu.linkonce.s2.*)
 *(.rela.sdata2 .rela.sdata2.* .rela.gnu.linkonce.s2.*)
 *(.rel.sbss2 .rel.sbss2.* .rel.gnu.linkonce.sb2.*)
 *(.rela.sbss2 .rela.sbss2.* .rela.gnu.linkonce.sb2.*)
 *(.rel.bss .rel.bss.* .rel.gnu.linkonce.b.*)
 *(.rela.bss .rela.bss.* .rela.gnu.linkonce.b.*)
 *(.rel.plt)
 *(.rela.plt)
 *(.rel.dyn)
 *(.init)
 *(.plt)
 *(.text .stub .text.* .gnu.linkonce.t.*)
 .text          0x028001b4       0x3c ../1223_bsp//obj/HAL/src/crt0.o
                0x028001b4                _start
 .text          0x028001f0      0xa98 obj/default/count_binary.o
                0x028001f0                star_display
                0x0280034c                DoEnablePIOInterrupt
                0x028003d4                DoDisablePIOInterrupt
                0x0280042c                PIOISRInitial
                0x028004bc                PIOISR
                0x02800504                main
                0x028005e0                location1
                0x02800b9c                he0
 .text          0x02800c88       0x78 f:/quatus/nios2eds/bin/gnu/h-i686-mingw32/bin/../lib/gcc/nios2-elf/4.1.2/../../../../nios2-elf/lib/mno-hw-mul\libc.a(lib_a-printf.o)
                0x02800c88                printf
                0x02800ccc                _printf_r
 .text          0x02800d00       0xb4 f:/quatus/nios2eds/bin/gnu/h-i686-mingw32/bin/../lib/gcc/nios2-elf/4.1.2/../../../../nios2-elf/lib/mno-hw-mul\libc.a(lib_a-puts.o)
                0x02800d00                _puts_r
                0x02800da0                puts
 .text          0x02800db4       0x94 f:/quatus/nios2eds/bin/gnu/h-i686-mingw32/bin/../lib/gcc/nios2-elf/4.1.2/../../../../nios2-elf/lib/mno-hw-mul\libc.a(lib_a-rand.o)
                0x02800db4                srand
                0x02800dd0                rand
 .text          0x02800e48       0x74 f:/quatus/nios2eds/bin/gnu/h-i686-mingw32/bin/../lib/gcc/nios2-elf/4.1.2/../../../../nios2-elf/lib/mno-hw-mul\libc.a(lib_a-strlen.o)
                0x02800e48                strlen
 .text          0x02800ebc       0x5c f:/quatus/nios2eds/bin/gnu/h-i686-mingw32/bin/../lib/gcc/nios2-elf/4.1.2/../../../../nios2-elf/lib/mno-hw-mul\libc.a(lib_a-time.o)
                0x02800ebc                time
 .text          0x02800f18     0x1f40 f:/quatus/nios2eds/bin/gnu/h-i686-mingw32/bin/../lib/gcc/nios2-elf/4.1.2/../../../../nios2-elf/lib/mno-hw-mul\libc.a(lib_a-vfprintf.o)
                0x02800f70                ___vfprintf_internal_r
                0x02802e34                __vfprintf_internal
 .text          0x02802e58      0x13c f:/quatus/nios2eds/bin/gnu/h-i686-mingw32/bin/../lib/gcc/nios2-elf/4.1.2/../../../../nios2-elf/lib/mno-hw-mul\libc.a(lib_a-wsetup.o)
                0x02802e58                __swsetup_r
 .text          0x02802f94     0x17f8 f:/quatus/nios2eds/bin/gnu/h-i686-mingw32/bin/../lib/gcc/nios2-elf/4.1.2/../../../../nios2-elf/lib/mno-hw-mul\libc.a(lib_a-dtoa.o)
                0x028031d8                _dtoa_r
 .text          0x0280478c      0x230 f:/quatus/nios2eds/bin/gnu/h-i686-mingw32/bin/../lib/gcc/nios2-elf/4.1.2/../../../../nios2-elf/lib/mno-hw-mul\libc.a(lib_a-fflush.o)
                0x0280478c                _fflush_r
                0x02804988                fflush
 .text          0x028049bc      0x2f4 f:/quatus/nios2eds/bin/gnu/h-i686-mingw32/bin/../lib/gcc/nios2-elf/4.1.2/../../../../nios2-elf/lib/mno-hw-mul\libc.a(lib_a-findfp.o)
                0x02804a14                __sfp_lock_acquire
                0x02804a18                __sfp_lock_release
                0x02804a1c                __sinit_lock_acquire
                0x02804a20                __sinit_lock_release
                0x02804a24                __sinit
                0x02804ad8                __fp_unlock_all
                0x02804af0                __fp_lock_all
                0x02804b08                _cleanup_r
                0x02804b14                _cleanup
                0x02804b24                __sfmoreglue
                0x02804bc0                __sfp
 .text          0x02804cb0      0x440 f:/quatus/nios2eds/bin/gnu/h-i686-mingw32/bin/../lib/gcc/nios2-elf/4.1.2/../../../../nios2-elf/lib/mno-hw-mul\libc.a(lib_a-freer.o)
                0x02804cb0                _malloc_trim_r
                0x02804ddc                _free_r
 .text          0x028050f0      0x49c f:/quatus/nios2eds/bin/gnu/h-i686-mingw32/bin/../lib/gcc/nios2-elf/4.1.2/../../../../nios2-elf/lib/mno-hw-mul\libc.a(lib_a-fvwrite.o)
                0x028050f0                __sfvwrite_r
 .text          0x0280558c      0x180 f:/quatus/nios2eds/bin/gnu/h-i686-mingw32/bin/../lib/gcc/nios2-elf/4.1.2/../../../../nios2-elf/lib/mno-hw-mul\libc.a(lib_a-fwalk.o)
                0x0280558c                _fwalk_reent
                0x02805654                _fwalk
 .text          0x0280570c       0x74 f:/quatus/nios2eds/bin/gnu/h-i686-mingw32/bin/../lib/gcc/nios2-elf/4.1.2/../../../../nios2-elf/lib/mno-hw-mul\libc.a(lib_a-gettimeofdayr.o)
                0x0280570c                _gettimeofday_r
 .text          0x02805780        0x0 f:/quatus/nios2eds/bin/gnu/h-i686-mingw32/bin/../lib/gcc/nios2-elf/4.1.2/../../../../nios2-elf/lib/mno-hw-mul\libc.a(lib_a-impure.o)
 .text          0x02805780        0x0 f:/quatus/nios2eds/bin/gnu/h-i686-mingw32/bin/../lib/gcc/nios2-elf/4.1.2/../../../../nios2-elf/lib/mno-hw-mul\libc.a(lib_a-int_errno.o)
 .text          0x02805780       0xc4 f:/quatus/nios2eds/bin/gnu/h-i686-mingw32/bin/../lib/gcc/nios2-elf/4.1.2/../../../../nios2-elf/lib/mno-hw-mul\libc.a(lib_a-locale.o)
                0x02805780                __locale_charset
                0x02805788                _localeconv_r
                0x02805794                localeconv
                0x028057a4                _setlocale_r
                0x02805828                setlocale
 .text          0x02805844      0x194 f:/quatus/nios2eds/bin/gnu/h-i686-mingw32/bin/../lib/gcc/nios2-elf/4.1.2/../../../../nios2-elf/lib/mno-hw-mul\libc.a(lib_a-makebuf.o)
                0x02805844                __smakebuf_r
 .text          0x028059d8      0x740 f:/quatus/nios2eds/bin/gnu/h-i686-mingw32/bin/../lib/gcc/nios2-elf/4.1.2/../../../../nios2-elf/lib/mno-hw-mul\libc.a(lib_a-mallocr.o)
                0x028059d8                _malloc_r
 .text          0x02806118       0xe4 f:/quatus/nios2eds/bin/gnu/h-i686-mingw32/bin/../lib/gcc/nios2-elf/4.1.2/../../../../nios2-elf/lib/mno-hw-mul\libc.a(lib_a-memchr.o)
                0x02806118                memchr
 .text          0x028061fc       0xa0 f:/quatus/nios2eds/bin/gnu/h-i686-mingw32/bin/../lib/gcc/nios2-elf/4.1.2/../../../../nios2-elf/lib/mno-hw-mul\libc.a(lib_a-memcpy.o)
                0x028061fc                memcpy
 .text          0x0280629c       0xe0 f:/quatus/nios2eds/bin/gnu/h-i686-mingw32/bin/../lib/gcc/nios2-elf/4.1.2/../../../../nios2-elf/lib/mno-hw-mul\libc.a(lib_a-memmove.o)
                0x0280629c                memmove
 .text          0x0280637c       0x98 f:/quatus/nios2eds/bin/gnu/h-i686-mingw32/bin/../lib/gcc/nios2-elf/4.1.2/../../../../nios2-elf/lib/mno-hw-mul\libc.a(lib_a-memset.o)
                0x0280637c                memset
 .text          0x02806414     0x108c f:/quatus/nios2eds/bin/gnu/h-i686-mingw32/bin/../lib/gcc/nios2-elf/4.1.2/../../../../nios2-elf/lib/mno-hw-mul\libc.a(lib_a-mprec.o)
                0x02806414                _Bfree
                0x0280643c                __hi0bits
                0x028064ac                __lo0bits
                0x02806570                __mcmp
                0x028065d0                __ulp
                0x02806650                __b2d
                0x02806770                __ratio
                0x02806820                _mprec_log10
                0x028068b4                __copybits
                0x0280690c                __any_on
                0x02806994                _Balloc
                0x02806a50                __d2b
                0x02806bcc                __mdiff
                0x02806d58                __lshift
                0x02806ea4                __multiply
                0x028070f8                __i2b
                0x02807134                __multadd
                0x02807260                __pow5mult
                0x02807380                __s2b
 .text          0x028074a0      0x5f4 f:/quatus/nios2eds/bin/gnu/h-i686-mingw32/bin/../lib/gcc/nios2-elf/4.1.2/../../../../nios2-elf/lib/mno-hw-mul\libc.a(lib_a-reallocr.o)
                0x028074a0                _realloc_r
 .text          0x02807a94       0x40 f:/quatus/nios2eds/bin/gnu/h-i686-mingw32/bin/../lib/gcc/nios2-elf/4.1.2/../../../../nios2-elf/lib/mno-hw-mul\libc.a(lib_a-s_isinfd.o)
                0x02807a94                __isinfd
 .text          0x02807ad4       0x30 f:/quatus/nios2eds/bin/gnu/h-i686-mingw32/bin/../lib/gcc/nios2-elf/4.1.2/../../../../nios2-elf/lib/mno-hw-mul\libc.a(lib_a-s_isnand.o)
                0x02807ad4                __isnand
 .text          0x02807b04       0x70 f:/quatus/nios2eds/bin/gnu/h-i686-mingw32/bin/../lib/gcc/nios2-elf/4.1.2/../../../../nios2-elf/lib/mno-hw-mul\libc.a(lib_a-sbrkr.o)
                0x02807b04                _sbrk_r
 .text          0x02807b74      0x14c f:/quatus/nios2eds/bin/gnu/h-i686-mingw32/bin/../lib/gcc/nios2-elf/4.1.2/../../../../nios2-elf/lib/mno-hw-mul\libc.a(lib_a-stdio.o)
                0x02807b74                __sclose
                0x02807b7c                __sseek
                0x02807be4                __swrite
                0x02807c60                __sread
 .text          0x02807cc0       0xbc f:/quatus/nios2eds/bin/gnu/h-i686-mingw32/bin/../lib/gcc/nios2-elf/4.1.2/../../../../nios2-elf/lib/mno-hw-mul\libc.a(lib_a-strcmp.o)
                0x02807cc0                strcmp
 .text          0x02807d7c       0x78 f:/quatus/nios2eds/bin/gnu/h-i686-mingw32/bin/../lib/gcc/nios2-elf/4.1.2/../../../../nios2-elf/lib/mno-hw-mul\libc.a(lib_a-writer.o)
                0x02807d7c                _write_r
 .text          0x02807df4       0xc8 f:/quatus/nios2eds/bin/gnu/h-i686-mingw32/bin/../lib/gcc/nios2-elf/4.1.2/../../../../nios2-elf/lib/mno-hw-mul\libc.a(lib_a-callocr.o)
                0x02807df4                _calloc_r
 .text          0x02807ebc       0x70 f:/quatus/nios2eds/bin/gnu/h-i686-mingw32/bin/../lib/gcc/nios2-elf/4.1.2/../../../../nios2-elf/lib/mno-hw-mul\libc.a(lib_a-closer.o)
                0x02807ebc                _close_r
 .text          0x02807f2c      0x124 f:/quatus/nios2eds/bin/gnu/h-i686-mingw32/bin/../lib/gcc/nios2-elf/4.1.2/../../../../nios2-elf/lib/mno-hw-mul\libc.a(lib_a-fclose.o)
                0x02807f2c                _fclose_r
                0x0280803c                fclose
 .text          0x02808050       0x74 f:/quatus/nios2eds/bin/gnu/h-i686-mingw32/bin/../lib/gcc/nios2-elf/4.1.2/../../../../nios2-elf/lib/mno-hw-mul\libc.a(lib_a-fstatr.o)
                0x02808050                _fstat_r
 .text          0x028080c4       0x70 f:/quatus/nios2eds/bin/gnu/h-i686-mingw32/bin/../lib/gcc/nios2-elf/4.1.2/../../../../nios2-elf/lib/mno-hw-mul\libc.a(lib_a-isattyr.o)
                0x028080c4                _isatty_r
 .text          0x02808134       0x78 f:/quatus/nios2eds/bin/gnu/h-i686-mingw32/bin/../lib/gcc/nios2-elf/4.1.2/../../../../nios2-elf/lib/mno-hw-mul\libc.a(lib_a-lseekr.o)
                0x02808134                _lseek_r
 .text          0x028081ac       0x78 f:/quatus/nios2eds/bin/gnu/h-i686-mingw32/bin/../lib/gcc/nios2-elf/4.1.2/../../../../nios2-elf/lib/mno-hw-mul\libc.a(lib_a-readr.o)
                0x028081ac                _read_r
 .text          0x02808224      0x124 f:/quatus/nios2eds/bin/gnu/h-i686-mingw32/bin/../lib/gcc/nios2-elf/4.1.2/mno-hw-mul\libgcc.a(_muldi3.o)
                0x02808224                __muldi3
 .text          0x02808348      0x66c f:/quatus/nios2eds/bin/gnu/h-i686-mingw32/bin/../lib/gcc/nios2-elf/4.1.2/mno-hw-mul\libgcc.a(_udivdi3.o)
                0x02808348                __udivdi3
 .text          0x028089b4      0x660 f:/quatus/nios2eds/bin/gnu/h-i686-mingw32/bin/../lib/gcc/nios2-elf/4.1.2/mno-hw-mul\libgcc.a(_umoddi3.o)
                0x028089b4                __umoddi3
 .text          0x02809014      0x504 f:/quatus/nios2eds/bin/gnu/h-i686-mingw32/bin/../lib/gcc/nios2-elf/4.1.2/mno-hw-mul\libgcc.a(_addsub_df.o)
                0x02809424                __subdf3
                0x028094a4                __adddf3
 .text          0x02809518      0x3c4 f:/quatus/nios2eds/bin/gnu/h-i686-mingw32/bin/../lib/gcc/nios2-elf/4.1.2/mno-hw-mul\libgcc.a(_mul_df.o)
                0x02809518                __muldf3
 .text          0x028098dc      0x258 f:/quatus/nios2eds/bin/gnu/h-i686-mingw32/bin/../lib/gcc/nios2-elf/4.1.2/mno-hw-mul\libgcc.a(_div_df.o)
                0x028098dc                __divdf3
 .text          0x02809b34       0x88 f:/quatus/nios2eds/bin/gnu/h-i686-mingw32/bin/../lib/gcc/nios2-elf/4.1.2/mno-hw-mul\libgcc.a(_eq_df.o)
                0x02809b34                __eqdf2
 .text          0x02809bbc       0x88 f:/quatus/nios2eds/bin/gnu/h-i686-mingw32/bin/../lib/gcc/nios2-elf/4.1.2/mno-hw-mul\libgcc.a(_ne_df.o)
                0x02809bbc                __nedf2
 .text          0x02809c44       0x88 f:/quatus/nios2eds/bin/gnu/h-i686-mingw32/bin/../lib/gcc/nios2-elf/4.1.2/mno-hw-mul\libgcc.a(_gt_df.o)
                0x02809c44                __gtdf2
 .text          0x02809ccc       0x88 f:/quatus/nios2eds/bin/gnu/h-i686-mingw32/bin/../lib/gcc/nios2-elf/4.1.2/mno-hw-mul\libgcc.a(_ge_df.o)
                0x02809ccc                __gedf2
 .text          0x02809d54       0x88 f:/quatus/nios2eds/bin/gnu/h-i686-mingw32/bin/../lib/gcc/nios2-elf/4.1.2/mno-hw-mul\libgcc.a(_lt_df.o)
                0x02809d54                __ltdf2
 .text          0x02809ddc       0xf8 f:/quatus/nios2eds/bin/gnu/h-i686-mingw32/bin/../lib/gcc/nios2-elf/4.1.2/mno-hw-mul\libgcc.a(_si_to_df.o)
                0x02809ddc                __floatsidf
 .text          0x02809ed4       0xd8 f:/quatus/nios2eds/bin/gnu/h-i686-mingw32/bin/../lib/gcc/nios2-elf/4.1.2/mno-hw-mul\libgcc.a(_df_to_si.o)
                0x02809ed4                __fixdfsi
 .text          0x02809fac        0x0 f:/quatus/nios2eds/bin/gnu/h-i686-mingw32/bin/../lib/gcc/nios2-elf/4.1.2/mno-hw-mul\libgcc.a(_thenan_df.o)
 .text          0x02809fac      0x194 f:/quatus/nios2eds/bin/gnu/h-i686-mingw32/bin/../lib/gcc/nios2-elf/4.1.2/mno-hw-mul\libgcc.a(_usi_to_df.o)
                0x02809fac                __floatunsidf
 .text          0x0280a140      0x14c f:/quatus/nios2eds/bin/gnu/h-i686-mingw32/bin/../lib/gcc/nios2-elf/4.1.2/mno-hw-mul\libgcc.a(lib2-divmod.o)
                0x0280a1bc                __divsi3
                0x0280a21c                __modsi3
                0x0280a27c                __udivsi3
                0x0280a284                __umodsi3
 .text          0x0280a28c       0x38 f:/quatus/nios2eds/bin/gnu/h-i686-mingw32/bin/../lib/gcc/nios2-elf/4.1.2/mno-hw-mul\libgcc.a(lib2-mul.o)
                0x0280a28c                __mulsi3
 .text          0x0280a2c4        0x0 f:/quatus/nios2eds/bin/gnu/h-i686-mingw32/bin/../lib/gcc/nios2-elf/4.1.2/mno-hw-mul\libgcc.a(_clz.o)
 .text          0x0280a2c4       0x80 f:/quatus/nios2eds/bin/gnu/h-i686-mingw32/bin/../lib/gcc/nios2-elf/4.1.2/mno-hw-mul\libgcc.a(_clzsi2.o)
                0x0280a2c4                __clzsi2
 .text          0x0280a344      0x314 f:/quatus/nios2eds/bin/gnu/h-i686-mingw32/bin/../lib/gcc/nios2-elf/4.1.2/mno-hw-mul\libgcc.a(_pack_df.o)
                0x0280a344                __pack_d
 .text          0x0280a658      0x138 f:/quatus/nios2eds/bin/gnu/h-i686-mingw32/bin/../lib/gcc/nios2-elf/4.1.2/mno-hw-mul\libgcc.a(_unpack_df.o)
                0x0280a658                __unpack_d
 .text          0x0280a790       0xc8 f:/quatus/nios2eds/bin/gnu/h-i686-mingw32/bin/../lib/gcc/nios2-elf/4.1.2/mno-hw-mul\libgcc.a(_fpcmp_parts_df.o)
                0x0280a790                __fpcmp_parts_d
 .text          0x0280a858      0x160 ../1223_bsp/\libhal_bsp.a(alt_close.o)
                0x0280a858                close
 .text          0x0280a9b8       0x2c ../1223_bsp/\libhal_bsp.a(alt_dev.o)
 .text          0x0280a9e4        0x0 ../1223_bsp/\libhal_bsp.a(alt_errno.o)
 .text          0x0280a9e4      0x138 ../1223_bsp/\libhal_bsp.a(alt_fstat.o)
                0x0280a9e4                fstat
 .text          0x0280ab1c      0x21c ../1223_bsp/\libhal_bsp.a(alt_gettod.o)
                0x0280ab1c                gettimeofday
 .text          0x0280ad38      0x1c0 ../1223_bsp/\libhal_bsp.a(alt_irq_register.o)
                0x0280ad38                alt_irq_register
 .text          0x0280aef8        0x0 ../1223_bsp/\libhal_bsp.a(alt_irq_vars.o)
 .text          0x0280aef8      0x124 ../1223_bsp/\libhal_bsp.a(alt_isatty.o)
                0x0280aef8                isatty
 .text          0x0280b01c       0xec ../1223_bsp/\libhal_bsp.a(alt_load.o)
                0x0280b01c                alt_load
 .text          0x0280b108      0x154 ../1223_bsp/\libhal_bsp.a(alt_lseek.o)
                0x0280b108                lseek
 .text          0x0280b25c       0x6c ../1223_bsp/\libhal_bsp.a(alt_main.o)
                0x0280b25c                alt_main
 .text          0x0280b2c8       0x40 ../1223_bsp/\libhal_bsp.a(alt_malloc_lock.o)
                0x0280b2c8                __malloc_lock
                0x0280b2e8                __malloc_unlock
 .text          0x0280b308      0x184 ../1223_bsp/\libhal_bsp.a(alt_read.o)
                0x0280b308                read
 .text          0x0280b48c       0x78 ../1223_bsp/\libhal_bsp.a(alt_release_fd.o)
                0x0280b48c                alt_release_fd
 .text          0x0280b504       0xbc ../1223_bsp/\libhal_bsp.a(alt_sbrk.o)
                0x0280b504                sbrk
 .text          0x0280b5c0      0x1a4 ../1223_bsp/\libhal_bsp.a(alt_tick.o)
                0x0280b5c0                alt_alarm_stop
                0x0280b658                alt_tick
 .text          0x0280b764       0x30 ../1223_bsp/\libhal_bsp.a(alt_usleep.o)
                0x0280b764                usleep
 .text          0x0280b794      0x184 ../1223_bsp/\libhal_bsp.a(alt_write.o)
                0x0280b794                write
 .text          0x0280b918       0xd4 ../1223_bsp/\libhal_bsp.a(alt_sys_init.o)
                0x0280b918                alt_irq_init
                0x0280b94c                alt_sys_init
 .text          0x0280b9ec      0xcac ../1223_bsp/\libhal_bsp.a(altera_avalon_dma.o)
                0x0280b9ec                alt_avalon_dma_launch_bidir
                0x0280c000                alt_avalon_dma_tx_ioctl
                0x0280c044                alt_avalon_dma_rx_ioctl
                0x0280c088                alt_avalon_dma_prepare
                0x0280c1dc                alt_avalon_dma_space
                0x0280c25c                alt_avalon_dma_send
                0x0280c578                alt_avalon_dma_init
 .text          0x0280c698      0x148 ../1223_bsp/\libhal_bsp.a(altera_avalon_jtag_uart_fd.o)
                0x0280c698                altera_avalon_jtag_uart_read_fd
                0x0280c6f0                altera_avalon_jtag_uart_write_fd
                0x0280c748                altera_avalon_jtag_uart_close_fd
                0x0280c790                altera_avalon_jtag_uart_ioctl_fd
 .text          0x0280c7e0      0x40c ../1223_bsp/\libhal_bsp.a(altera_avalon_jtag_uart_init.o)
                0x0280c7e0                altera_avalon_jtag_uart_init
                0x0280cb78                altera_avalon_jtag_uart_close
 .text          0x0280cbec       0xf4 ../1223_bsp/\libhal_bsp.a(altera_avalon_jtag_uart_ioctl.o)
                0x0280cbec                altera_avalon_jtag_uart_ioctl
 .text          0x0280cce0      0x224 ../1223_bsp/\libhal_bsp.a(altera_avalon_jtag_uart_read.o)
                0x0280cce0                altera_avalon_jtag_uart_read
 .text          0x0280cf04      0x240 ../1223_bsp/\libhal_bsp.a(altera_avalon_jtag_uart_write.o)
                0x0280cf04                altera_avalon_jtag_uart_write
 .text          0x0280d144      0x154 ../1223_bsp/\libhal_bsp.a(alt_alarm_start.o)
                0x0280d144                alt_alarm_start
 .text          0x0280d298      0x15c ../1223_bsp/\libhal_bsp.a(alt_busy_sleep.o)
                0x0280d298                alt_busy_sleep
 .text          0x0280d3f4       0x1c ../1223_bsp/\libhal_bsp.a(alt_dcache_flush_all.o)
                0x0280d3f4                alt_dcache_flush_all
 .text          0x0280d410      0x114 ../1223_bsp/\libhal_bsp.a(alt_dev_llist_insert.o)
                0x0280d410                alt_dev_llist_insert
 .text          0x0280d524       0xb8 ../1223_bsp/\libhal_bsp.a(alt_dma_rxchan_open.o)
                0x0280d524                alt_dma_rxchan_open
 .text          0x0280d5dc       0xb8 ../1223_bsp/\libhal_bsp.a(alt_dma_txchan_open.o)
                0x0280d5dc                alt_dma_txchan_open
 .text          0x0280d694       0x64 ../1223_bsp/\libhal_bsp.a(alt_do_ctors.o)
                0x0280d694                _do_ctors
 .text          0x0280d6f8       0x64 ../1223_bsp/\libhal_bsp.a(alt_do_dtors.o)
                0x0280d6f8                _do_dtors
 .text          0x0280d75c       0x94 ../1223_bsp/\libhal_bsp.a(alt_find_dev.o)
                0x0280d75c                alt_find_dev
 .text          0x0280d7f0       0x1c ../1223_bsp/\libhal_bsp.a(alt_icache_flush_all.o)
                0x0280d7f0                alt_icache_flush_all
 .text          0x0280d80c      0x1d4 ../1223_bsp/\libhal_bsp.a(alt_iic.o)
                0x0280d80c                alt_ic_isr_register
                0x0280d85c                alt_ic_irq_enable
                0x0280d8f8                alt_ic_irq_disable
                0x0280d998                alt_ic_irq_enabled
 .text          0x0280d9e0       0xf8 ../1223_bsp/\libhal_bsp.a(alt_iic_isr_register.o)
                0x0280d9e0                alt_iic_isr_register
 .text          0x0280dad8      0x150 ../1223_bsp/\libhal_bsp.a(alt_io_redirect.o)
                0x0280dbb0                alt_io_redirect
 .text          0x0280dc28        0x0 ../1223_bsp/\libhal_bsp.a(alt_irq_entry.o)
 .text          0x0280dc28        0x0 ../1223_bsp/\libhal_bsp.a(alt_irq_handler.o)
 .text          0x0280dc28      0x2e4 ../1223_bsp/\libhal_bsp.a(alt_open.o)
                0x0280dd20                open
 .text          0x0280df0c       0x20 ../1223_bsp/\libhal_bsp.a(altera_nios2_qsys_irq.o)
                0x0280df0c                altera_nios2_qsys_irq_init
 .text          0x0280df2c        0x0 ../1223_bsp/\libhal_bsp.a(alt_exception_entry.o)
 .text          0x0280df2c      0x120 ../1223_bsp/\libhal_bsp.a(alt_find_file.o)
                0x0280df2c                alt_find_file
 .text          0x0280e04c       0xd0 ../1223_bsp/\libhal_bsp.a(alt_get_fd.o)
                0x0280e04c                alt_get_fd
 .text          0x0280e11c       0x14 f:/quatus/nios2eds/bin/gnu/h-i686-mingw32/bin/../lib/gcc/nios2-elf/4.1.2/../../../../nios2-elf/lib/mno-hw-mul\libc.a(lib_a-atexit.o)
                0x0280e11c                atexit
 .text          0x0280e130       0x38 f:/quatus/nios2eds/bin/gnu/h-i686-mingw32/bin/../lib/gcc/nios2-elf/4.1.2/../../../../nios2-elf/lib/mno-hw-mul\libc.a(lib_a-exit.o)
                0x0280e130                exit
 .text          0x0280e168       0x74 f:/quatus/nios2eds/bin/gnu/h-i686-mingw32/bin/../lib/gcc/nios2-elf/4.1.2/../../../../nios2-elf/lib/mno-hw-mul\libc.a(lib_a-memcmp.o)
                0x0280e168                memcmp
 .text          0x0280e1dc      0x134 f:/quatus/nios2eds/bin/gnu/h-i686-mingw32/bin/../lib/gcc/nios2-elf/4.1.2/../../../../nios2-elf/lib/mno-hw-mul\libc.a(lib_a-__atexit.o)
                0x0280e1dc                __register_exitproc
 .text          0x0280e310      0x1b4 f:/quatus/nios2eds/bin/gnu/h-i686-mingw32/bin/../lib/gcc/nios2-elf/4.1.2/../../../../nios2-elf/lib/mno-hw-mul\libc.a(lib_a-__call_atexit.o)
                0x0280e314                __call_exitprocs
 .text          0x0280e4c4       0x60 ../1223_bsp/\libhal_bsp.a(alt_exit.o)
                0x0280e504                _exit
 *(.gnu.warning.*)
 *(.fini)
                0x0280e524                PROVIDE (__etext, ABSOLUTE (.))
                0x0280e524                PROVIDE (_etext, ABSOLUTE (.))
                0x0280e524                PROVIDE (etext, ABSOLUTE (.))
 *(.eh_frame_hdr)
                0x0280e524                . = ALIGN (0x4)
                0x0280e524                PROVIDE (__preinit_array_start, ABSOLUTE (.))
 *(.preinit_array)
                0x0280e524                PROVIDE (__preinit_array_end, ABSOLUTE (.))
                0x0280e524                PROVIDE (__init_array_start, ABSOLUTE (.))
 *(.init_array)
                0x0280e524                PROVIDE (__init_array_end, ABSOLUTE (.))
                0x0280e524                PROVIDE (__fini_array_start, ABSOLUTE (.))
 *(.fini_array)
                0x0280e524                PROVIDE (__fini_array_end, ABSOLUTE (.))
 *(.eh_frame)
 *(.gcc_except_table)
 *(.dynamic)
                0x0280e524                PROVIDE (__CTOR_LIST__, ABSOLUTE (.))
 *(.ctors)
 *(SORT(.ctors.*))
 .ctors.65535   0x0280e524        0x4 f:/quatus/nios2eds/bin/gnu/h-i686-mingw32/bin/../lib/gcc/nios2-elf/4.1.2/../../../../nios2-elf/lib/mno-hw-mul\libc.a(lib_a-__call_atexit.o)
                0x0280e528                PROVIDE (__CTOR_END__, ABSOLUTE (.))
                0x0280e528                PROVIDE (__DTOR_LIST__, ABSOLUTE (.))
 *(.dtors)
 *(SORT(.dtors.*))
                0x0280e528                PROVIDE (__DTOR_END__, ABSOLUTE (.))
 *(.jcr)
                0x0280e528                . = ALIGN (0x4)

.rodata         0x0280e528      0x454
                0x0280e528                PROVIDE (__ram_rodata_start, ABSOLUTE (.))
                0x0280e528                . = ALIGN (0x4)
 *(.rodata .rodata.* .gnu.linkonce.r.*)
 .rodata        0x0280e528      0x10c obj/default/count_binary.o
 .rodata.str1.4
                0x0280e634        0x2 f:/quatus/nios2eds/bin/gnu/h-i686-mingw32/bin/../lib/gcc/nios2-elf/4.1.2/../../../../nios2-elf/lib/mno-hw-mul\libc.a(lib_a-puts.o)
                                  0x4 (size before relaxing)
 *fill*         0x0280e636        0x2 00
 .rodata.str1.4
                0x0280e638       0x5e f:/quatus/nios2eds/bin/gnu/h-i686-mingw32/bin/../lib/gcc/nios2-elf/4.1.2/../../../../nios2-elf/lib/mno-hw-mul\libc.a(lib_a-vfprintf.o)
                                 0x60 (size before relaxing)
 .rodata        0x0280e696       0x20 f:/quatus/nios2eds/bin/gnu/h-i686-mingw32/bin/../lib/gcc/nios2-elf/4.1.2/../../../../nios2-elf/lib/mno-hw-mul\libc.a(lib_a-vfprintf.o)
 *fill*         0x0280e6b6        0x2 00
 .rodata.str1.4
                0x0280e6b8       0x10 f:/quatus/nios2eds/bin/gnu/h-i686-mingw32/bin/../lib/gcc/nios2-elf/4.1.2/../../../../nios2-elf/lib/mno-hw-mul\libc.a(lib_a-dtoa.o)
                                 0x14 (size before relaxing)
 .rodata.str1.4
                0x0280e6c8        0x2 f:/quatus/nios2eds/bin/gnu/h-i686-mingw32/bin/../lib/gcc/nios2-elf/4.1.2/../../../../nios2-elf/lib/mno-hw-mul\libc.a(lib_a-impure.o)
                                  0x4 (size before relaxing)
 *fill*         0x0280e6ca        0x2 00
 .rodata.str1.4
                0x0280e6cc       0x10 f:/quatus/nios2eds/bin/gnu/h-i686-mingw32/bin/../lib/gcc/nios2-elf/4.1.2/../../../../nios2-elf/lib/mno-hw-mul\libc.a(lib_a-locale.o)
                                 0x18 (size before relaxing)
 .rodata        0x0280e6dc       0x30 f:/quatus/nios2eds/bin/gnu/h-i686-mingw32/bin/../lib/gcc/nios2-elf/4.1.2/../../../../nios2-elf/lib/mno-hw-mul\libc.a(lib_a-locale.o)
 .rodata        0x0280e70c      0x124 f:/quatus/nios2eds/bin/gnu/h-i686-mingw32/bin/../lib/gcc/nios2-elf/4.1.2/../../../../nios2-elf/lib/mno-hw-mul\libc.a(lib_a-mprec.o)
                0x0280e70c                __mprec_tens
                0x0280e7d4                __mprec_bigtens
                0x0280e7fc                __mprec_tinytens
 .rodata        0x0280e830       0x14 f:/quatus/nios2eds/bin/gnu/h-i686-mingw32/bin/../lib/gcc/nios2-elf/4.1.2/mno-hw-mul\libgcc.a(_thenan_df.o)
                0x0280e830                __thenan_df
 .rodata        0x0280e844      0x100 f:/quatus/nios2eds/bin/gnu/h-i686-mingw32/bin/../lib/gcc/nios2-elf/4.1.2/mno-hw-mul\libgcc.a(_clz.o)
                0x0280e844                __clz_tab
 .rodata        0x0280e944        0xc ../1223_bsp/\libhal_bsp.a(alt_dev.o)
 .rodata        0x0280e950       0x10 ../1223_bsp/\libhal_bsp.a(alt_main.o)
 .rodata        0x0280e960       0x1c ../1223_bsp/\libhal_bsp.a(alt_sys_init.o)
 *(.rodata1)
                0x0280e97c                . = ALIGN (0x4)
                0x0280e97c                PROVIDE (__ram_rodata_end, ABSOLUTE (.))
                0x0280e528                PROVIDE (__flash_rodata_start, LOADADDR (.rodata))

.rwdata         0x0280e97c     0x20f4 load address 0x02810a70
                0x0280e97c                PROVIDE (__ram_rwdata_start, ABSOLUTE (.))
                0x0280e97c                . = ALIGN (0x4)
 *(.got.plt)
 *(.got)
 *(.data1)
 *(.data .data.* .gnu.linkonce.d.*)
 .data          0x0280e97c        0x0 ../1223_bsp//obj/HAL/src/crt0.o
 .data          0x0280e97c      0x5ac obj/default/count_binary.o
                0x0280e97c                maze1
                0x0280eb60                maze2
                0x0280ed44                maze3
 .data          0x0280ef28        0x0 f:/quatus/nios2eds/bin/gnu/h-i686-mingw32/bin/../lib/gcc/nios2-elf/4.1.2/../../../../nios2-elf/lib/mno-hw-mul\libc.a(lib_a-printf.o)
 .data          0x0280ef28        0x0 f:/quatus/nios2eds/bin/gnu/h-i686-mingw32/bin/../lib/gcc/nios2-elf/4.1.2/../../../../nios2-elf/lib/mno-hw-mul\libc.a(lib_a-puts.o)
 .data          0x0280ef28        0x0 f:/quatus/nios2eds/bin/gnu/h-i686-mingw32/bin/../lib/gcc/nios2-elf/4.1.2/../../../../nios2-elf/lib/mno-hw-mul\libc.a(lib_a-rand.o)
 .data          0x0280ef28        0x0 f:/quatus/nios2eds/bin/gnu/h-i686-mingw32/bin/../lib/gcc/nios2-elf/4.1.2/../../../../nios2-elf/lib/mno-hw-mul\libc.a(lib_a-strlen.o)
 .data          0x0280ef28        0x0 f:/quatus/nios2eds/bin/gnu/h-i686-mingw32/bin/../lib/gcc/nios2-elf/4.1.2/../../../../nios2-elf/lib/mno-hw-mul\libc.a(lib_a-time.o)
 .data          0x0280ef28        0x0 f:/quatus/nios2eds/bin/gnu/h-i686-mingw32/bin/../lib/gcc/nios2-elf/4.1.2/../../../../nios2-elf/lib/mno-hw-mul\libc.a(lib_a-vfprintf.o)
 .data          0x0280ef28        0x0 f:/quatus/nios2eds/bin/gnu/h-i686-mingw32/bin/../lib/gcc/nios2-elf/4.1.2/../../../../nios2-elf/lib/mno-hw-mul\libc.a(lib_a-wsetup.o)
 .data          0x0280ef28        0x0 f:/quatus/nios2eds/bin/gnu/h-i686-mingw32/bin/../lib/gcc/nios2-elf/4.1.2/../../../../nios2-elf/lib/mno-hw-mul\libc.a(lib_a-dtoa.o)
 .data          0x0280ef28        0x0 f:/quatus/nios2eds/bin/gnu/h-i686-mingw32/bin/../lib/gcc/nios2-elf/4.1.2/../../../../nios2-elf/lib/mno-hw-mul\libc.a(lib_a-fflush.o)
 .data          0x0280ef28        0x0 f:/quatus/nios2eds/bin/gnu/h-i686-mingw32/bin/../lib/gcc/nios2-elf/4.1.2/../../../../nios2-elf/lib/mno-hw-mul\libc.a(lib_a-findfp.o)
 .data          0x0280ef28        0x0 f:/quatus/nios2eds/bin/gnu/h-i686-mingw32/bin/../lib/gcc/nios2-elf/4.1.2/../../../../nios2-elf/lib/mno-hw-mul\libc.a(lib_a-freer.o)
 .data          0x0280ef28        0x0 f:/quatus/nios2eds/bin/gnu/h-i686-mingw32/bin/../lib/gcc/nios2-elf/4.1.2/../../../../nios2-elf/lib/mno-hw-mul\libc.a(lib_a-fvwrite.o)
 .data          0x0280ef28        0x0 f:/quatus/nios2eds/bin/gnu/h-i686-mingw32/bin/../lib/gcc/nios2-elf/4.1.2/../../../../nios2-elf/lib/mno-hw-mul\libc.a(lib_a-fwalk.o)
 .data          0x0280ef28        0x0 f:/quatus/nios2eds/bin/gnu/h-i686-mingw32/bin/../lib/gcc/nios2-elf/4.1.2/../../../../nios2-elf/lib/mno-hw-mul\libc.a(lib_a-gettimeofdayr.o)
 .data          0x0280ef28      0x400 f:/quatus/nios2eds/bin/gnu/h-i686-mingw32/bin/../lib/gcc/nios2-elf/4.1.2/../../../../nios2-elf/lib/mno-hw-mul\libc.a(lib_a-impure.o)
 .data          0x0280f328        0x0 f:/quatus/nios2eds/bin/gnu/h-i686-mingw32/bin/../lib/gcc/nios2-elf/4.1.2/../../../../nios2-elf/lib/mno-hw-mul\libc.a(lib_a-int_errno.o)
 .data          0x0280f328        0xc f:/quatus/nios2eds/bin/gnu/h-i686-mingw32/bin/../lib/gcc/nios2-elf/4.1.2/../../../../nios2-elf/lib/mno-hw-mul\libc.a(lib_a-locale.o)
                0x0280f328                __lc_ctype
 .data          0x0280f334        0x0 f:/quatus/nios2eds/bin/gnu/h-i686-mingw32/bin/../lib/gcc/nios2-elf/4.1.2/../../../../nios2-elf/lib/mno-hw-mul\libc.a(lib_a-makebuf.o)
 .data          0x0280f334      0x408 f:/quatus/nios2eds/bin/gnu/h-i686-mingw32/bin/../lib/gcc/nios2-elf/4.1.2/../../../../nios2-elf/lib/mno-hw-mul\libc.a(lib_a-mallocr.o)
                0x0280f334                __malloc_av_
 .data          0x0280f73c        0x0 f:/quatus/nios2eds/bin/gnu/h-i686-mingw32/bin/../lib/gcc/nios2-elf/4.1.2/../../../../nios2-elf/lib/mno-hw-mul\libc.a(lib_a-memchr.o)
 .data          0x0280f73c        0x0 f:/quatus/nios2eds/bin/gnu/h-i686-mingw32/bin/../lib/gcc/nios2-elf/4.1.2/../../../../nios2-elf/lib/mno-hw-mul\libc.a(lib_a-memcpy.o)
 .data          0x0280f73c        0x0 f:/quatus/nios2eds/bin/gnu/h-i686-mingw32/bin/../lib/gcc/nios2-elf/4.1.2/../../../../nios2-elf/lib/mno-hw-mul\libc.a(lib_a-memmove.o)
 .data          0x0280f73c        0x0 f:/quatus/nios2eds/bin/gnu/h-i686-mingw32/bin/../lib/gcc/nios2-elf/4.1.2/../../../../nios2-elf/lib/mno-hw-mul\libc.a(lib_a-memset.o)
 .data          0x0280f73c        0x0 f:/quatus/nios2eds/bin/gnu/h-i686-mingw32/bin/../lib/gcc/nios2-elf/4.1.2/../../../../nios2-elf/lib/mno-hw-mul\libc.a(lib_a-mprec.o)
 .data          0x0280f73c        0x0 f:/quatus/nios2eds/bin/gnu/h-i686-mingw32/bin/../lib/gcc/nios2-elf/4.1.2/../../../../nios2-elf/lib/mno-hw-mul\libc.a(lib_a-reallocr.o)
 .data          0x0280f73c        0x0 f:/quatus/nios2eds/bin/gnu/h-i686-mingw32/bin/../lib/gcc/nios2-elf/4.1.2/../../../../nios2-elf/lib/mno-hw-mul\libc.a(lib_a-s_isinfd.o)
 .data          0x0280f73c        0x0 f:/quatus/nios2eds/bin/gnu/h-i686-mingw32/bin/../lib/gcc/nios2-elf/4.1.2/../../../../nios2-elf/lib/mno-hw-mul\libc.a(lib_a-s_isnand.o)
 .data          0x0280f73c        0x0 f:/quatus/nios2eds/bin/gnu/h-i686-mingw32/bin/../lib/gcc/nios2-elf/4.1.2/../../../../nios2-elf/lib/mno-hw-mul\libc.a(lib_a-sbrkr.o)
 .data          0x0280f73c        0x0 f:/quatus/nios2eds/bin/gnu/h-i686-mingw32/bin/../lib/gcc/nios2-elf/4.1.2/../../../../nios2-elf/lib/mno-hw-mul\libc.a(lib_a-stdio.o)
 .data          0x0280f73c        0x0 f:/quatus/nios2eds/bin/gnu/h-i686-mingw32/bin/../lib/gcc/nios2-elf/4.1.2/../../../../nios2-elf/lib/mno-hw-mul\libc.a(lib_a-strcmp.o)
 .data          0x0280f73c        0x0 f:/quatus/nios2eds/bin/gnu/h-i686-mingw32/bin/../lib/gcc/nios2-elf/4.1.2/../../../../nios2-elf/lib/mno-hw-mul\libc.a(lib_a-writer.o)
 .data          0x0280f73c        0x0 f:/quatus/nios2eds/bin/gnu/h-i686-mingw32/bin/../lib/gcc/nios2-elf/4.1.2/../../../../nios2-elf/lib/mno-hw-mul\libc.a(lib_a-callocr.o)
 .data          0x0280f73c        0x0 f:/quatus/nios2eds/bin/gnu/h-i686-mingw32/bin/../lib/gcc/nios2-elf/4.1.2/../../../../nios2-elf/lib/mno-hw-mul\libc.a(lib_a-closer.o)
 .data          0x0280f73c        0x0 f:/quatus/nios2eds/bin/gnu/h-i686-mingw32/bin/../lib/gcc/nios2-elf/4.1.2/../../../../nios2-elf/lib/mno-hw-mul\libc.a(lib_a-fclose.o)
 .data          0x0280f73c        0x0 f:/quatus/nios2eds/bin/gnu/h-i686-mingw32/bin/../lib/gcc/nios2-elf/4.1.2/../../../../nios2-elf/lib/mno-hw-mul\libc.a(lib_a-fstatr.o)
 .data          0x0280f73c        0x0 f:/quatus/nios2eds/bin/gnu/h-i686-mingw32/bin/../lib/gcc/nios2-elf/4.1.2/../../../../nios2-elf/lib/mno-hw-mul\libc.a(lib_a-isattyr.o)
 .data          0x0280f73c        0x0 f:/quatus/nios2eds/bin/gnu/h-i686-mingw32/bin/../lib/gcc/nios2-elf/4.1.2/../../../../nios2-elf/lib/mno-hw-mul\libc.a(lib_a-lseekr.o)
 .data          0x0280f73c        0x0 f:/quatus/nios2eds/bin/gnu/h-i686-mingw32/bin/../lib/gcc/nios2-elf/4.1.2/../../../../nios2-elf/lib/mno-hw-mul\libc.a(lib_a-readr.o)
 .data          0x0280f73c        0x0 f:/quatus/nios2eds/bin/gnu/h-i686-mingw32/bin/../lib/gcc/nios2-elf/4.1.2/mno-hw-mul\libgcc.a(_muldi3.o)
 .data          0x0280f73c        0x0 f:/quatus/nios2eds/bin/gnu/h-i686-mingw32/bin/../lib/gcc/nios2-elf/4.1.2/mno-hw-mul\libgcc.a(_udivdi3.o)
 .data          0x0280f73c        0x0 f:/quatus/nios2eds/bin/gnu/h-i686-mingw32/bin/../lib/gcc/nios2-elf/4.1.2/mno-hw-mul\libgcc.a(_umoddi3.o)
 .data          0x0280f73c        0x0 f:/quatus/nios2eds/bin/gnu/h-i686-mingw32/bin/../lib/gcc/nios2-elf/4.1.2/mno-hw-mul\libgcc.a(_addsub_df.o)
 .data          0x0280f73c        0x0 f:/quatus/nios2eds/bin/gnu/h-i686-mingw32/bin/../lib/gcc/nios2-elf/4.1.2/mno-hw-mul\libgcc.a(_mul_df.o)
 .data          0x0280f73c        0x0 f:/quatus/nios2eds/bin/gnu/h-i686-mingw32/bin/../lib/gcc/nios2-elf/4.1.2/mno-hw-mul\libgcc.a(_div_df.o)
 .data          0x0280f73c        0x0 f:/quatus/nios2eds/bin/gnu/h-i686-mingw32/bin/../lib/gcc/nios2-elf/4.1.2/mno-hw-mul\libgcc.a(_eq_df.o)
 .data          0x0280f73c        0x0 f:/quatus/nios2eds/bin/gnu/h-i686-mingw32/bin/../lib/gcc/nios2-elf/4.1.2/mno-hw-mul\libgcc.a(_ne_df.o)
 .data          0x0280f73c        0x0 f:/quatus/nios2eds/bin/gnu/h-i686-mingw32/bin/../lib/gcc/nios2-elf/4.1.2/mno-hw-mul\libgcc.a(_gt_df.o)
 .data          0x0280f73c        0x0 f:/quatus/nios2eds/bin/gnu/h-i686-mingw32/bin/../lib/gcc/nios2-elf/4.1.2/mno-hw-mul\libgcc.a(_ge_df.o)
 .data          0x0280f73c        0x0 f:/quatus/nios2eds/bin/gnu/h-i686-mingw32/bin/../lib/gcc/nios2-elf/4.1.2/mno-hw-mul\libgcc.a(_lt_df.o)
 .data          0x0280f73c        0x0 f:/quatus/nios2eds/bin/gnu/h-i686-mingw32/bin/../lib/gcc/nios2-elf/4.1.2/mno-hw-mul\libgcc.a(_si_to_df.o)
 .data          0x0280f73c        0x0 f:/quatus/nios2eds/bin/gnu/h-i686-mingw32/bin/../lib/gcc/nios2-elf/4.1.2/mno-hw-mul\libgcc.a(_df_to_si.o)
 .data          0x0280f73c        0x0 f:/quatus/nios2eds/bin/gnu/h-i686-mingw32/bin/../lib/gcc/nios2-elf/4.1.2/mno-hw-mul\libgcc.a(_thenan_df.o)
 .data          0x0280f73c        0x0 f:/quatus/nios2eds/bin/gnu/h-i686-mingw32/bin/../lib/gcc/nios2-elf/4.1.2/mno-hw-mul\libgcc.a(_usi_to_df.o)
 .data          0x0280f73c        0x0 f:/quatus/nios2eds/bin/gnu/h-i686-mingw32/bin/../lib/gcc/nios2-elf/4.1.2/mno-hw-mul\libgcc.a(lib2-divmod.o)
 .data          0x0280f73c        0x0 f:/quatus/nios2eds/bin/gnu/h-i686-mingw32/bin/../lib/gcc/nios2-elf/4.1.2/mno-hw-mul\libgcc.a(lib2-mul.o)
 .data          0x0280f73c        0x0 f:/quatus/nios2eds/bin/gnu/h-i686-mingw32/bin/../lib/gcc/nios2-elf/4.1.2/mno-hw-mul\libgcc.a(_clz.o)
 .data          0x0280f73c        0x0 f:/quatus/nios2eds/bin/gnu/h-i686-mingw32/bin/../lib/gcc/nios2-elf/4.1.2/mno-hw-mul\libgcc.a(_clzsi2.o)
 .data          0x0280f73c        0x0 f:/quatus/nios2eds/bin/gnu/h-i686-mingw32/bin/../lib/gcc/nios2-elf/4.1.2/mno-hw-mul\libgcc.a(_pack_df.o)
 .data          0x0280f73c        0x0 f:/quatus/nios2eds/bin/gnu/h-i686-mingw32/bin/../lib/gcc/nios2-elf/4.1.2/mno-hw-mul\libgcc.a(_unpack_df.o)
 .data          0x0280f73c        0x0 f:/quatus/nios2eds/bin/gnu/h-i686-mingw32/bin/../lib/gcc/nios2-elf/4.1.2/mno-hw-mul\libgcc.a(_fpcmp_parts_df.o)
 .data          0x0280f73c        0x0 ../1223_bsp/\libhal_bsp.a(alt_close.o)
 .data          0x0280f73c      0x1a8 ../1223_bsp/\libhal_bsp.a(alt_dev.o)
                0x0280f73c                alt_dev_null
                0x0280f764                alt_fd_list
 .data          0x0280f8e4        0x0 ../1223_bsp/\libhal_bsp.a(alt_errno.o)
 .data          0x0280f8e4        0x0 ../1223_bsp/\libhal_bsp.a(alt_fstat.o)
 .data          0x0280f8e4        0x0 ../1223_bsp/\libhal_bsp.a(alt_gettod.o)
 .data          0x0280f8e4        0x0 ../1223_bsp/\libhal_bsp.a(alt_irq_register.o)
 .data          0x0280f8e4        0x0 ../1223_bsp/\libhal_bsp.a(alt_irq_vars.o)
 .data          0x0280f8e4        0x0 ../1223_bsp/\libhal_bsp.a(alt_isatty.o)
 .data          0x0280f8e4        0x0 ../1223_bsp/\libhal_bsp.a(alt_load.o)
 .data          0x0280f8e4        0x0 ../1223_bsp/\libhal_bsp.a(alt_lseek.o)
 .data          0x0280f8e4        0x0 ../1223_bsp/\libhal_bsp.a(alt_main.o)
 .data          0x0280f8e4        0x0 ../1223_bsp/\libhal_bsp.a(alt_malloc_lock.o)
 .data          0x0280f8e4        0x0 ../1223_bsp/\libhal_bsp.a(alt_read.o)
 .data          0x0280f8e4        0x0 ../1223_bsp/\libhal_bsp.a(alt_release_fd.o)
 .data          0x0280f8e4        0x0 ../1223_bsp/\libhal_bsp.a(alt_sbrk.o)
 .data          0x0280f8e4        0x0 ../1223_bsp/\libhal_bsp.a(alt_tick.o)
 .data          0x0280f8e4        0x0 ../1223_bsp/\libhal_bsp.a(alt_usleep.o)
 .data          0x0280f8e4        0x0 ../1223_bsp/\libhal_bsp.a(alt_write.o)
 .data          0x0280f8e4     0x113c ../1223_bsp/\libhal_bsp.a(alt_sys_init.o)
 .data          0x02810a20        0x0 ../1223_bsp/\libhal_bsp.a(altera_avalon_dma.o)
 .data          0x02810a20        0x0 ../1223_bsp/\libhal_bsp.a(altera_avalon_jtag_uart_fd.o)
 .data          0x02810a20        0x0 ../1223_bsp/\libhal_bsp.a(altera_avalon_jtag_uart_init.o)
 .data          0x02810a20        0x0 ../1223_bsp/\libhal_bsp.a(altera_avalon_jtag_uart_ioctl.o)
 .data          0x02810a20        0x0 ../1223_bsp/\libhal_bsp.a(altera_avalon_jtag_uart_read.o)
 .data          0x02810a20        0x0 ../1223_bsp/\libhal_bsp.a(altera_avalon_jtag_uart_write.o)
 .data          0x02810a20        0x0 ../1223_bsp/\libhal_bsp.a(alt_alarm_start.o)
 .data          0x02810a20        0x0 ../1223_bsp/\libhal_bsp.a(alt_busy_sleep.o)
 .data          0x02810a20        0x0 ../1223_bsp/\libhal_bsp.a(alt_dcache_flush_all.o)
 .data          0x02810a20        0x0 ../1223_bsp/\libhal_bsp.a(alt_dev_llist_insert.o)
 .data          0x02810a20        0x0 ../1223_bsp/\libhal_bsp.a(alt_dma_rxchan_open.o)
 .data          0x02810a20        0x0 ../1223_bsp/\libhal_bsp.a(alt_dma_txchan_open.o)
 .data          0x02810a20        0x0 ../1223_bsp/\libhal_bsp.a(alt_do_ctors.o)
 .data          0x02810a20        0x0 ../1223_bsp/\libhal_bsp.a(alt_do_dtors.o)
 .data          0x02810a20        0x0 ../1223_bsp/\libhal_bsp.a(alt_find_dev.o)
 .data          0x02810a20        0x0 ../1223_bsp/\libhal_bsp.a(alt_icache_flush_all.o)
 .data          0x02810a20        0x0 ../1223_bsp/\libhal_bsp.a(alt_iic.o)
 .data          0x02810a20        0x0 ../1223_bsp/\libhal_bsp.a(alt_iic_isr_register.o)
 .data          0x02810a20        0x0 ../1223_bsp/\libhal_bsp.a(alt_io_redirect.o)
 .data          0x02810a20        0x0 ../1223_bsp/\libhal_bsp.a(alt_irq_entry.o)
 .data          0x02810a20        0x0 ../1223_bsp/\libhal_bsp.a(alt_irq_handler.o)
 .data          0x02810a20        0x0 ../1223_bsp/\libhal_bsp.a(alt_open.o)
 .data          0x02810a20        0x0 ../1223_bsp/\libhal_bsp.a(altera_nios2_qsys_irq.o)
 .data          0x02810a20        0x0 ../1223_bsp/\libhal_bsp.a(alt_exception_entry.o)
 .data          0x02810a20        0x0 ../1223_bsp/\libhal_bsp.a(alt_find_file.o)
 .data          0x02810a20        0x0 ../1223_bsp/\libhal_bsp.a(alt_get_fd.o)
 .data          0x02810a20        0x0 f:/quatus/nios2eds/bin/gnu/h-i686-mingw32/bin/../lib/gcc/nios2-elf/4.1.2/../../../../nios2-elf/lib/mno-hw-mul\libc.a(lib_a-atexit.o)
 .data          0x02810a20        0x0 f:/quatus/nios2eds/bin/gnu/h-i686-mingw32/bin/../lib/gcc/nios2-elf/4.1.2/../../../../nios2-elf/lib/mno-hw-mul\libc.a(lib_a-exit.o)
 .data          0x02810a20        0x0 f:/quatus/nios2eds/bin/gnu/h-i686-mingw32/bin/../lib/gcc/nios2-elf/4.1.2/../../../../nios2-elf/lib/mno-hw-mul\libc.a(lib_a-memcmp.o)
 .data          0x02810a20        0x0 f:/quatus/nios2eds/bin/gnu/h-i686-mingw32/bin/../lib/gcc/nios2-elf/4.1.2/../../../../nios2-elf/lib/mno-hw-mul\libc.a(lib_a-__atexit.o)
 .data          0x02810a20        0x0 f:/quatus/nios2eds/bin/gnu/h-i686-mingw32/bin/../lib/gcc/nios2-elf/4.1.2/../../../../nios2-elf/lib/mno-hw-mul\libc.a(lib_a-__call_atexit.o)
 .data          0x02810a20        0x0 ../1223_bsp/\libhal_bsp.a(alt_exit.o)
                0x02818a20                _gp = ABSOLUTE ((. + 0x8000))
                0x02818a20                PROVIDE (gp, _gp)
 *(.rwdata .rwdata.*)
 *(.sdata .sdata.* .gnu.linkonce.s.*)
 .sdata         0x02810a20        0x8 f:/quatus/nios2eds/bin/gnu/h-i686-mingw32/bin/../lib/gcc/nios2-elf/4.1.2/../../../../nios2-elf/lib/mno-hw-mul\libc.a(lib_a-impure.o)
                0x02810a20                _impure_ptr
                0x02810a24                _global_impure_ptr
 .sdata         0x02810a28        0x8 f:/quatus/nios2eds/bin/gnu/h-i686-mingw32/bin/../lib/gcc/nios2-elf/4.1.2/../../../../nios2-elf/lib/mno-hw-mul\libc.a(lib_a-locale.o)
                0x02810a28                __mb_cur_max
 .sdata         0x02810a30        0x8 f:/quatus/nios2eds/bin/gnu/h-i686-mingw32/bin/../lib/gcc/nios2-elf/4.1.2/../../../../nios2-elf/lib/mno-hw-mul\libc.a(lib_a-mallocr.o)
                0x02810a30                __malloc_trim_threshold
                0x02810a34                __malloc_sbrk_base
 .sdata         0x02810a38       0x14 ../1223_bsp/\libhal_bsp.a(alt_dev.o)
                0x02810a38                alt_fs_list
                0x02810a40                alt_dev_list
                0x02810a48                alt_max_fd
 .sdata         0x02810a4c        0x4 ../1223_bsp/\libhal_bsp.a(alt_errno.o)
                0x02810a4c                alt_errno
 .sdata         0x02810a50        0x4 ../1223_bsp/\libhal_bsp.a(alt_irq_vars.o)
                0x02810a50                alt_priority_mask
 .sdata         0x02810a54        0x4 ../1223_bsp/\libhal_bsp.a(alt_sbrk.o)
 .sdata         0x02810a58        0x8 ../1223_bsp/\libhal_bsp.a(alt_tick.o)
                0x02810a58                alt_alarm_list
 .sdata         0x02810a60        0x8 ../1223_bsp/\libhal_bsp.a(alt_dma_rxchan_open.o)
                0x02810a60                alt_dma_rxchan_list
 .sdata         0x02810a68        0x8 ../1223_bsp/\libhal_bsp.a(alt_dma_txchan_open.o)
                0x02810a68                alt_dma_txchan_list
 *(.sdata2 .sdata2.* .gnu.linkonce.s2.*)
                0x02810a70                . = ALIGN (0x4)
                0x02810a70                _edata = ABSOLUTE (.)
                0x02810a70                PROVIDE (edata, ABSOLUTE (.))
                0x02810a70                PROVIDE (__ram_rwdata_end, ABSOLUTE (.))
                0x02810a70                PROVIDE (__flash_rwdata_start, LOADADDR (.rwdata))

.bss            0x02812b64      0x324
                0x02812b64                __bss_start = ABSOLUTE (.)
                0x02812b64                PROVIDE (__sbss_start, ABSOLUTE (.))
                0x02812b64                PROVIDE (___sbss_start, ABSOLUTE (.))
 *(.dynsbss)
 *(.sbss .sbss.* .gnu.linkonce.sb.*)
 .sbss          0x02812b64        0x4 obj/default/count_binary.o
                0x02812b64                tmp
 .sbss          0x02812b68        0x4 f:/quatus/nios2eds/bin/gnu/h-i686-mingw32/bin/../lib/gcc/nios2-elf/4.1.2/../../../../nios2-elf/lib/mno-hw-mul\libc.a(lib_a-int_errno.o)
                0x02812b68                errno
 .sbss          0x02812b6c        0xc f:/quatus/nios2eds/bin/gnu/h-i686-mingw32/bin/../lib/gcc/nios2-elf/4.1.2/../../../../nios2-elf/lib/mno-hw-mul\libc.a(lib_a-locale.o)
                0x02812b6c                __nlocale_changed
                0x02812b70                __mlocale_changed
                0x02812b74                _PathLocale
 .sbss          0x02812b78        0xc f:/quatus/nios2eds/bin/gnu/h-i686-mingw32/bin/../lib/gcc/nios2-elf/4.1.2/../../../../nios2-elf/lib/mno-hw-mul\libc.a(lib_a-mallocr.o)
                0x02812b78                __malloc_top_pad
                0x02812b7c                __malloc_max_sbrked_mem
                0x02812b80                __malloc_max_total_mem
 .sbss          0x02812b84       0x10 ../1223_bsp/\libhal_bsp.a(alt_gettod.o)
                0x02812b84                alt_timezone
                0x02812b8c                alt_resettime
 .sbss          0x02812b94        0x4 ../1223_bsp/\libhal_bsp.a(alt_irq_vars.o)
                0x02812b94                alt_irq_active
 .sbss          0x02812b98        0xc ../1223_bsp/\libhal_bsp.a(alt_main.o)
                0x02812b98                alt_argc
                0x02812b9c                alt_argv
                0x02812ba0                alt_envp
 .sbss          0x02812ba4        0x8 ../1223_bsp/\libhal_bsp.a(alt_tick.o)
                0x02812ba4                _alt_tick_rate
                0x02812ba8                _alt_nticks
 *(.sbss2 .sbss2.* .gnu.linkonce.sb2.*)
 *(.scommon)
                0x02812bac                PROVIDE (__sbss_end, ABSOLUTE (.))
                0x02812bac                PROVIDE (___sbss_end, ABSOLUTE (.))
 *(.dynbss)
 *(.bss .bss.* .gnu.linkonce.b.*)
 .bss           0x02812bac        0x0 ../1223_bsp//obj/HAL/src/crt0.o
 .bss           0x02812bac        0x0 obj/default/count_binary.o
 .bss           0x02812bac        0x0 f:/quatus/nios2eds/bin/gnu/h-i686-mingw32/bin/../lib/gcc/nios2-elf/4.1.2/../../../../nios2-elf/lib/mno-hw-mul\libc.a(lib_a-printf.o)
 .bss           0x02812bac        0x0 f:/quatus/nios2eds/bin/gnu/h-i686-mingw32/bin/../lib/gcc/nios2-elf/4.1.2/../../../../nios2-elf/lib/mno-hw-mul\libc.a(lib_a-puts.o)
 .bss           0x02812bac        0x0 f:/quatus/nios2eds/bin/gnu/h-i686-mingw32/bin/../lib/gcc/nios2-elf/4.1.2/../../../../nios2-elf/lib/mno-hw-mul\libc.a(lib_a-rand.o)
 .bss           0x02812bac        0x0 f:/quatus/nios2eds/bin/gnu/h-i686-mingw32/bin/../lib/gcc/nios2-elf/4.1.2/../../../../nios2-elf/lib/mno-hw-mul\libc.a(lib_a-strlen.o)
 .bss           0x02812bac        0x0 f:/quatus/nios2eds/bin/gnu/h-i686-mingw32/bin/../lib/gcc/nios2-elf/4.1.2/../../../../nios2-elf/lib/mno-hw-mul\libc.a(lib_a-time.o)
 .bss           0x02812bac        0x0 f:/quatus/nios2eds/bin/gnu/h-i686-mingw32/bin/../lib/gcc/nios2-elf/4.1.2/../../../../nios2-elf/lib/mno-hw-mul\libc.a(lib_a-vfprintf.o)
 .bss           0x02812bac        0x0 f:/quatus/nios2eds/bin/gnu/h-i686-mingw32/bin/../lib/gcc/nios2-elf/4.1.2/../../../../nios2-elf/lib/mno-hw-mul\libc.a(lib_a-wsetup.o)
 .bss           0x02812bac        0x0 f:/quatus/nios2eds/bin/gnu/h-i686-mingw32/bin/../lib/gcc/nios2-elf/4.1.2/../../../../nios2-elf/lib/mno-hw-mul\libc.a(lib_a-dtoa.o)
 .bss           0x02812bac        0x0 f:/quatus/nios2eds/bin/gnu/h-i686-mingw32/bin/../lib/gcc/nios2-elf/4.1.2/../../../../nios2-elf/lib/mno-hw-mul\libc.a(lib_a-fflush.o)
 .bss           0x02812bac        0x0 f:/quatus/nios2eds/bin/gnu/h-i686-mingw32/bin/../lib/gcc/nios2-elf/4.1.2/../../../../nios2-elf/lib/mno-hw-mul\libc.a(lib_a-findfp.o)
 .bss           0x02812bac        0x0 f:/quatus/nios2eds/bin/gnu/h-i686-mingw32/bin/../lib/gcc/nios2-elf/4.1.2/../../../../nios2-elf/lib/mno-hw-mul\libc.a(lib_a-freer.o)
 .bss           0x02812bac        0x0 f:/quatus/nios2eds/bin/gnu/h-i686-mingw32/bin/../lib/gcc/nios2-elf/4.1.2/../../../../nios2-elf/lib/mno-hw-mul\libc.a(lib_a-fvwrite.o)
 .bss           0x02812bac        0x0 f:/quatus/nios2eds/bin/gnu/h-i686-mingw32/bin/../lib/gcc/nios2-elf/4.1.2/../../../../nios2-elf/lib/mno-hw-mul\libc.a(lib_a-fwalk.o)
 .bss           0x02812bac        0x0 f:/quatus/nios2eds/bin/gnu/h-i686-mingw32/bin/../lib/gcc/nios2-elf/4.1.2/../../../../nios2-elf/lib/mno-hw-mul\libc.a(lib_a-gettimeofdayr.o)
 .bss           0x02812bac        0x0 f:/quatus/nios2eds/bin/gnu/h-i686-mingw32/bin/../lib/gcc/nios2-elf/4.1.2/../../../../nios2-elf/lib/mno-hw-mul\libc.a(lib_a-impure.o)
 .bss           0x02812bac        0x0 f:/quatus/nios2eds/bin/gnu/h-i686-mingw32/bin/../lib/gcc/nios2-elf/4.1.2/../../../../nios2-elf/lib/mno-hw-mul\libc.a(lib_a-int_errno.o)
 .bss           0x02812bac        0x0 f:/quatus/nios2eds/bin/gnu/h-i686-mingw32/bin/../lib/gcc/nios2-elf/4.1.2/../../../../nios2-elf/lib/mno-hw-mul\libc.a(lib_a-locale.o)
 .bss           0x02812bac        0x0 f:/quatus/nios2eds/bin/gnu/h-i686-mingw32/bin/../lib/gcc/nios2-elf/4.1.2/../../../../nios2-elf/lib/mno-hw-mul\libc.a(lib_a-makebuf.o)
 .bss           0x02812bac       0x28 f:/quatus/nios2eds/bin/gnu/h-i686-mingw32/bin/../lib/gcc/nios2-elf/4.1.2/../../../../nios2-elf/lib/mno-hw-mul\libc.a(lib_a-mallocr.o)
                0x02812bac                __malloc_current_mallinfo
 .bss           0x02812bd4        0x0 f:/quatus/nios2eds/bin/gnu/h-i686-mingw32/bin/../lib/gcc/nios2-elf/4.1.2/../../../../nios2-elf/lib/mno-hw-mul\libc.a(lib_a-memchr.o)
 .bss           0x02812bd4        0x0 f:/quatus/nios2eds/bin/gnu/h-i686-mingw32/bin/../lib/gcc/nios2-elf/4.1.2/../../../../nios2-elf/lib/mno-hw-mul\libc.a(lib_a-memcpy.o)
 .bss           0x02812bd4        0x0 f:/quatus/nios2eds/bin/gnu/h-i686-mingw32/bin/../lib/gcc/nios2-elf/4.1.2/../../../../nios2-elf/lib/mno-hw-mul\libc.a(lib_a-memmove.o)
 .bss           0x02812bd4        0x0 f:/quatus/nios2eds/bin/gnu/h-i686-mingw32/bin/../lib/gcc/nios2-elf/4.1.2/../../../../nios2-elf/lib/mno-hw-mul\libc.a(lib_a-memset.o)
 .bss           0x02812bd4        0x0 f:/quatus/nios2eds/bin/gnu/h-i686-mingw32/bin/../lib/gcc/nios2-elf/4.1.2/../../../../nios2-elf/lib/mno-hw-mul\libc.a(lib_a-mprec.o)
 .bss           0x02812bd4        0x0 f:/quatus/nios2eds/bin/gnu/h-i686-mingw32/bin/../lib/gcc/nios2-elf/4.1.2/../../../../nios2-elf/lib/mno-hw-mul\libc.a(lib_a-reallocr.o)
 .bss           0x02812bd4        0x0 f:/quatus/nios2eds/bin/gnu/h-i686-mingw32/bin/../lib/gcc/nios2-elf/4.1.2/../../../../nios2-elf/lib/mno-hw-mul\libc.a(lib_a-s_isinfd.o)
 .bss           0x02812bd4        0x0 f:/quatus/nios2eds/bin/gnu/h-i686-mingw32/bin/../lib/gcc/nios2-elf/4.1.2/../../../../nios2-elf/lib/mno-hw-mul\libc.a(lib_a-s_isnand.o)
 .bss           0x02812bd4        0x0 f:/quatus/nios2eds/bin/gnu/h-i686-mingw32/bin/../lib/gcc/nios2-elf/4.1.2/../../../../nios2-elf/lib/mno-hw-mul\libc.a(lib_a-sbrkr.o)
 .bss           0x02812bd4        0x0 f:/quatus/nios2eds/bin/gnu/h-i686-mingw32/bin/../lib/gcc/nios2-elf/4.1.2/../../../../nios2-elf/lib/mno-hw-mul\libc.a(lib_a-stdio.o)
 .bss           0x02812bd4        0x0 f:/quatus/nios2eds/bin/gnu/h-i686-mingw32/bin/../lib/gcc/nios2-elf/4.1.2/../../../../nios2-elf/lib/mno-hw-mul\libc.a(lib_a-strcmp.o)
 .bss           0x02812bd4        0x0 f:/quatus/nios2eds/bin/gnu/h-i686-mingw32/bin/../lib/gcc/nios2-elf/4.1.2/../../../../nios2-elf/lib/mno-hw-mul\libc.a(lib_a-writer.o)
 .bss           0x02812bd4        0x0 f:/quatus/nios2eds/bin/gnu/h-i686-mingw32/bin/../lib/gcc/nios2-elf/4.1.2/../../../../nios2-elf/lib/mno-hw-mul\libc.a(lib_a-callocr.o)
 .bss           0x02812bd4        0x0 f:/quatus/nios2eds/bin/gnu/h-i686-mingw32/bin/../lib/gcc/nios2-elf/4.1.2/../../../../nios2-elf/lib/mno-hw-mul\libc.a(lib_a-closer.o)
 .bss           0x02812bd4        0x0 f:/quatus/nios2eds/bin/gnu/h-i686-mingw32/bin/../lib/gcc/nios2-elf/4.1.2/../../../../nios2-elf/lib/mno-hw-mul\libc.a(lib_a-fclose.o)
 .bss           0x02812bd4        0x0 f:/quatus/nios2eds/bin/gnu/h-i686-mingw32/bin/../lib/gcc/nios2-elf/4.1.2/../../../../nios2-elf/lib/mno-hw-mul\libc.a(lib_a-fstatr.o)
 .bss           0x02812bd4        0x0 f:/quatus/nios2eds/bin/gnu/h-i686-mingw32/bin/../lib/gcc/nios2-elf/4.1.2/../../../../nios2-elf/lib/mno-hw-mul\libc.a(lib_a-isattyr.o)
 .bss           0x02812bd4        0x0 f:/quatus/nios2eds/bin/gnu/h-i686-mingw32/bin/../lib/gcc/nios2-elf/4.1.2/../../../../nios2-elf/lib/mno-hw-mul\libc.a(lib_a-lseekr.o)
 .bss           0x02812bd4        0x0 f:/quatus/nios2eds/bin/gnu/h-i686-mingw32/bin/../lib/gcc/nios2-elf/4.1.2/../../../../nios2-elf/lib/mno-hw-mul\libc.a(lib_a-readr.o)
 .bss           0x02812bd4        0x0 f:/quatus/nios2eds/bin/gnu/h-i686-mingw32/bin/../lib/gcc/nios2-elf/4.1.2/mno-hw-mul\libgcc.a(_muldi3.o)
 .bss           0x02812bd4        0x0 f:/quatus/nios2eds/bin/gnu/h-i686-mingw32/bin/../lib/gcc/nios2-elf/4.1.2/mno-hw-mul\libgcc.a(_udivdi3.o)
 .bss           0x02812bd4        0x0 f:/quatus/nios2eds/bin/gnu/h-i686-mingw32/bin/../lib/gcc/nios2-elf/4.1.2/mno-hw-mul\libgcc.a(_umoddi3.o)
 .bss           0x02812bd4        0x0 f:/quatus/nios2eds/bin/gnu/h-i686-mingw32/bin/../lib/gcc/nios2-elf/4.1.2/mno-hw-mul\libgcc.a(_addsub_df.o)
 .bss           0x02812bd4        0x0 f:/quatus/nios2eds/bin/gnu/h-i686-mingw32/bin/../lib/gcc/nios2-elf/4.1.2/mno-hw-mul\libgcc.a(_mul_df.o)
 .bss           0x02812bd4        0x0 f:/quatus/nios2eds/bin/gnu/h-i686-mingw32/bin/../lib/gcc/nios2-elf/4.1.2/mno-hw-mul\libgcc.a(_div_df.o)
 .bss           0x02812bd4        0x0 f:/quatus/nios2eds/bin/gnu/h-i686-mingw32/bin/../lib/gcc/nios2-elf/4.1.2/mno-hw-mul\libgcc.a(_eq_df.o)
 .bss           0x02812bd4        0x0 f:/quatus/nios2eds/bin/gnu/h-i686-mingw32/bin/../lib/gcc/nios2-elf/4.1.2/mno-hw-mul\libgcc.a(_ne_df.o)
 .bss           0x02812bd4        0x0 f:/quatus/nios2eds/bin/gnu/h-i686-mingw32/bin/../lib/gcc/nios2-elf/4.1.2/mno-hw-mul\libgcc.a(_gt_df.o)
 .bss           0x02812bd4        0x0 f:/quatus/nios2eds/bin/gnu/h-i686-mingw32/bin/../lib/gcc/nios2-elf/4.1.2/mno-hw-mul\libgcc.a(_ge_df.o)
 .bss           0x02812bd4        0x0 f:/quatus/nios2eds/bin/gnu/h-i686-mingw32/bin/../lib/gcc/nios2-elf/4.1.2/mno-hw-mul\libgcc.a(_lt_df.o)
 .bss           0x02812bd4        0x0 f:/quatus/nios2eds/bin/gnu/h-i686-mingw32/bin/../lib/gcc/nios2-elf/4.1.2/mno-hw-mul\libgcc.a(_si_to_df.o)
 .bss           0x02812bd4        0x0 f:/quatus/nios2eds/bin/gnu/h-i686-mingw32/bin/../lib/gcc/nios2-elf/4.1.2/mno-hw-mul\libgcc.a(_df_to_si.o)
 .bss           0x02812bd4        0x0 f:/quatus/nios2eds/bin/gnu/h-i686-mingw32/bin/../lib/gcc/nios2-elf/4.1.2/mno-hw-mul\libgcc.a(_thenan_df.o)
 .bss           0x02812bd4        0x0 f:/quatus/nios2eds/bin/gnu/h-i686-mingw32/bin/../lib/gcc/nios2-elf/4.1.2/mno-hw-mul\libgcc.a(_usi_to_df.o)
 .bss           0x02812bd4        0x0 f:/quatus/nios2eds/bin/gnu/h-i686-mingw32/bin/../lib/gcc/nios2-elf/4.1.2/mno-hw-mul\libgcc.a(lib2-divmod.o)
 .bss           0x02812bd4        0x0 f:/quatus/nios2eds/bin/gnu/h-i686-mingw32/bin/../lib/gcc/nios2-elf/4.1.2/mno-hw-mul\libgcc.a(lib2-mul.o)
 .bss           0x02812bd4        0x0 f:/quatus/nios2eds/bin/gnu/h-i686-mingw32/bin/../lib/gcc/nios2-elf/4.1.2/mno-hw-mul\libgcc.a(_clz.o)
 .bss           0x02812bd4        0x0 f:/quatus/nios2eds/bin/gnu/h-i686-mingw32/bin/../lib/gcc/nios2-elf/4.1.2/mno-hw-mul\libgcc.a(_clzsi2.o)
 .bss           0x02812bd4        0x0 f:/quatus/nios2eds/bin/gnu/h-i686-mingw32/bin/../lib/gcc/nios2-elf/4.1.2/mno-hw-mul\libgcc.a(_pack_df.o)
 .bss           0x02812bd4        0x0 f:/quatus/nios2eds/bin/gnu/h-i686-mingw32/bin/../lib/gcc/nios2-elf/4.1.2/mno-hw-mul\libgcc.a(_unpack_df.o)
 .bss           0x02812bd4        0x0 f:/quatus/nios2eds/bin/gnu/h-i686-mingw32/bin/../lib/gcc/nios2-elf/4.1.2/mno-hw-mul\libgcc.a(_fpcmp_parts_df.o)
 .bss           0x02812bd4        0x0 ../1223_bsp/\libhal_bsp.a(alt_close.o)
 .bss           0x02812bd4        0x0 ../1223_bsp/\libhal_bsp.a(alt_dev.o)
 .bss           0x02812bd4        0x0 ../1223_bsp/\libhal_bsp.a(alt_errno.o)
 .bss           0x02812bd4        0x0 ../1223_bsp/\libhal_bsp.a(alt_fstat.o)
 .bss           0x02812bd4        0x0 ../1223_bsp/\libhal_bsp.a(alt_gettod.o)
 .bss           0x02812bd4        0x0 ../1223_bsp/\libhal_bsp.a(alt_irq_register.o)
 .bss           0x02812bd4        0x0 ../1223_bsp/\libhal_bsp.a(alt_irq_vars.o)
 .bss           0x02812bd4        0x0 ../1223_bsp/\libhal_bsp.a(alt_isatty.o)
 .bss           0x02812bd4        0x0 ../1223_bsp/\libhal_bsp.a(alt_load.o)
 .bss           0x02812bd4        0x0 ../1223_bsp/\libhal_bsp.a(alt_lseek.o)
 .bss           0x02812bd4        0x0 ../1223_bsp/\libhal_bsp.a(alt_main.o)
 .bss           0x02812bd4        0x0 ../1223_bsp/\libhal_bsp.a(alt_malloc_lock.o)
 .bss           0x02812bd4        0x0 ../1223_bsp/\libhal_bsp.a(alt_read.o)
 .bss           0x02812bd4        0x0 ../1223_bsp/\libhal_bsp.a(alt_release_fd.o)
 .bss           0x02812bd4        0x0 ../1223_bsp/\libhal_bsp.a(alt_sbrk.o)
 .bss           0x02812bd4        0x0 ../1223_bsp/\libhal_bsp.a(alt_tick.o)
 .bss           0x02812bd4        0x0 ../1223_bsp/\libhal_bsp.a(alt_usleep.o)
 .bss           0x02812bd4        0x0 ../1223_bsp/\libhal_bsp.a(alt_write.o)
 .bss           0x02812bd4        0x0 ../1223_bsp/\libhal_bsp.a(alt_sys_init.o)
 .bss           0x02812bd4        0x0 ../1223_bsp/\libhal_bsp.a(altera_avalon_dma.o)
 .bss           0x02812bd4        0x0 ../1223_bsp/\libhal_bsp.a(altera_avalon_jtag_uart_fd.o)
 .bss           0x02812bd4        0x0 ../1223_bsp/\libhal_bsp.a(altera_avalon_jtag_uart_init.o)
 .bss           0x02812bd4        0x0 ../1223_bsp/\libhal_bsp.a(altera_avalon_jtag_uart_ioctl.o)
 .bss           0x02812bd4        0x0 ../1223_bsp/\libhal_bsp.a(altera_avalon_jtag_uart_read.o)
 .bss           0x02812bd4        0x0 ../1223_bsp/\libhal_bsp.a(altera_avalon_jtag_uart_write.o)
 .bss           0x02812bd4        0x0 ../1223_bsp/\libhal_bsp.a(alt_alarm_start.o)
 .bss           0x02812bd4        0x0 ../1223_bsp/\libhal_bsp.a(alt_busy_sleep.o)
 .bss           0x02812bd4        0x0 ../1223_bsp/\libhal_bsp.a(alt_dcache_flush_all.o)
 .bss           0x02812bd4        0x0 ../1223_bsp/\libhal_bsp.a(alt_dev_llist_insert.o)
 .bss           0x02812bd4        0x0 ../1223_bsp/\libhal_bsp.a(alt_dma_rxchan_open.o)
 .bss           0x02812bd4        0x0 ../1223_bsp/\libhal_bsp.a(alt_dma_txchan_open.o)
 .bss           0x02812bd4        0x0 ../1223_bsp/\libhal_bsp.a(alt_do_ctors.o)
 .bss           0x02812bd4        0x0 ../1223_bsp/\libhal_bsp.a(alt_do_dtors.o)
 .bss           0x02812bd4        0x0 ../1223_bsp/\libhal_bsp.a(alt_find_dev.o)
 .bss           0x02812bd4        0x0 ../1223_bsp/\libhal_bsp.a(alt_icache_flush_all.o)
 .bss           0x02812bd4        0x0 ../1223_bsp/\libhal_bsp.a(alt_iic.o)
 .bss           0x02812bd4        0x0 ../1223_bsp/\libhal_bsp.a(alt_iic_isr_register.o)
 .bss           0x02812bd4        0x0 ../1223_bsp/\libhal_bsp.a(alt_io_redirect.o)
 .bss           0x02812bd4        0x0 ../1223_bsp/\libhal_bsp.a(alt_irq_entry.o)
 .bss           0x02812bd4        0x0 ../1223_bsp/\libhal_bsp.a(alt_irq_handler.o)
 .bss           0x02812bd4        0x0 ../1223_bsp/\libhal_bsp.a(alt_open.o)
 .bss           0x02812bd4        0x0 ../1223_bsp/\libhal_bsp.a(altera_nios2_qsys_irq.o)
 .bss           0x02812bd4        0x0 ../1223_bsp/\libhal_bsp.a(alt_exception_entry.o)
 .bss           0x02812bd4        0x0 ../1223_bsp/\libhal_bsp.a(alt_find_file.o)
 .bss           0x02812bd4        0x0 ../1223_bsp/\libhal_bsp.a(alt_get_fd.o)
 .bss           0x02812bd4        0x0 f:/quatus/nios2eds/bin/gnu/h-i686-mingw32/bin/../lib/gcc/nios2-elf/4.1.2/../../../../nios2-elf/lib/mno-hw-mul\libc.a(lib_a-atexit.o)
 .bss           0x02812bd4        0x0 f:/quatus/nios2eds/bin/gnu/h-i686-mingw32/bin/../lib/gcc/nios2-elf/4.1.2/../../../../nios2-elf/lib/mno-hw-mul\libc.a(lib_a-exit.o)
 .bss           0x02812bd4        0x0 f:/quatus/nios2eds/bin/gnu/h-i686-mingw32/bin/../lib/gcc/nios2-elf/4.1.2/../../../../nios2-elf/lib/mno-hw-mul\libc.a(lib_a-memcmp.o)
 .bss           0x02812bd4        0x0 f:/quatus/nios2eds/bin/gnu/h-i686-mingw32/bin/../lib/gcc/nios2-elf/4.1.2/../../../../nios2-elf/lib/mno-hw-mul\libc.a(lib_a-__atexit.o)
 .bss           0x02812bd4        0x0 f:/quatus/nios2eds/bin/gnu/h-i686-mingw32/bin/../lib/gcc/nios2-elf/4.1.2/../../../../nios2-elf/lib/mno-hw-mul\libc.a(lib_a-__call_atexit.o)
 .bss           0x02812bd4        0x0 ../1223_bsp/\libhal_bsp.a(alt_exit.o)
 *(COMMON)
 COMMON         0x02812bd4       0x24 obj/default/count_binary.o
                0x02812bd4                sPIO
 COMMON         0x02812bf8      0x100 ../1223_bsp/\libhal_bsp.a(alt_irq_handler.o)
                0x02812bf8                alt_irq
 COMMON         0x02812cf8      0x190 f:/quatus/nios2eds/bin/gnu/h-i686-mingw32/bin/../lib/gcc/nios2-elf/4.1.2/../../../../nios2-elf/lib/mno-hw-mul\libc.a(lib_a-atexit.o)
                0x02812cf8                _atexit0
                0x02812e88                . = ALIGN (0x4)
                0x02812e88                __bss_end = ABSOLUTE (.)

.sdram_ctrl     0x02812e88        0x0
                0x02812e88                PROVIDE (_alt_partition_sdram_ctrl_start, ABSOLUTE (.))
 *(.sdram_ctrl. sdram_ctrl.*)
                0x02812e88                . = ALIGN (0x4)
                0x02812e88                PROVIDE (_alt_partition_sdram_ctrl_end, ABSOLUTE (.))
                0x02812e88                _end = ABSOLUTE (.)
                0x02812e88                end = ABSOLUTE (.)
                0x02812e88                __alt_stack_base = ABSOLUTE (.)
                0x02812e88                PROVIDE (_alt_partition_sdram_ctrl_load_addr, LOADADDR (.sdram_ctrl))

.stab
 *(.stab)

.stabstr
 *(.stabstr)

.stab.excl
 *(.stab.excl)

.stab.exclstr
 *(.stab.exclstr)

.stab.index
 *(.stab.index)

.stab.indexstr
 *(.stab.indexstr)

.comment        0x00000000       0x26
 *(.comment)
 .comment       0x00000000       0x26 obj/default/count_binary.o
                                 0x27 (size before relaxing)
 .comment       0x00000000       0x27 f:/quatus/nios2eds/bin/gnu/h-i686-mingw32/bin/../lib/gcc/nios2-elf/4.1.2/../../../../nios2-elf/lib/mno-hw-mul\libc.a(lib_a-printf.o)
 .comment       0x00000000       0x27 f:/quatus/nios2eds/bin/gnu/h-i686-mingw32/bin/../lib/gcc/nios2-elf/4.1.2/../../../../nios2-elf/lib/mno-hw-mul\libc.a(lib_a-puts.o)
 .comment       0x00000000       0x27 f:/quatus/nios2eds/bin/gnu/h-i686-mingw32/bin/../lib/gcc/nios2-elf/4.1.2/../../../../nios2-elf/lib/mno-hw-mul\libc.a(lib_a-rand.o)
 .comment       0x00000000       0x27 f:/quatus/nios2eds/bin/gnu/h-i686-mingw32/bin/../lib/gcc/nios2-elf/4.1.2/../../../../nios2-elf/lib/mno-hw-mul\libc.a(lib_a-strlen.o)
 .comment       0x00000000       0x27 f:/quatus/nios2eds/bin/gnu/h-i686-mingw32/bin/../lib/gcc/nios2-elf/4.1.2/../../../../nios2-elf/lib/mno-hw-mul\libc.a(lib_a-time.o)
 .comment       0x00000000       0x27 f:/quatus/nios2eds/bin/gnu/h-i686-mingw32/bin/../lib/gcc/nios2-elf/4.1.2/../../../../nios2-elf/lib/mno-hw-mul\libc.a(lib_a-vfprintf.o)
 .comment       0x00000000       0x27 f:/quatus/nios2eds/bin/gnu/h-i686-mingw32/bin/../lib/gcc/nios2-elf/4.1.2/../../../../nios2-elf/lib/mno-hw-mul\libc.a(lib_a-wsetup.o)
 .comment       0x00000000       0x27 f:/quatus/nios2eds/bin/gnu/h-i686-mingw32/bin/../lib/gcc/nios2-elf/4.1.2/../../../../nios2-elf/lib/mno-hw-mul\libc.a(lib_a-dtoa.o)
 .comment       0x00000000       0x27 f:/quatus/nios2eds/bin/gnu/h-i686-mingw32/bin/../lib/gcc/nios2-elf/4.1.2/../../../../nios2-elf/lib/mno-hw-mul\libc.a(lib_a-fflush.o)
 .comment       0x00000000       0x27 f:/quatus/nios2eds/bin/gnu/h-i686-mingw32/bin/../lib/gcc/nios2-elf/4.1.2/../../../../nios2-elf/lib/mno-hw-mul\libc.a(lib_a-findfp.o)
 .comment       0x00000000       0x27 f:/quatus/nios2eds/bin/gnu/h-i686-mingw32/bin/../lib/gcc/nios2-elf/4.1.2/../../../../nios2-elf/lib/mno-hw-mul\libc.a(lib_a-freer.o)
 .comment       0x00000000       0x27 f:/quatus/nios2eds/bin/gnu/h-i686-mingw32/bin/../lib/gcc/nios2-elf/4.1.2/../../../../nios2-elf/lib/mno-hw-mul\libc.a(lib_a-fvwrite.o)
 .comment       0x00000000       0x27 f:/quatus/nios2eds/bin/gnu/h-i686-mingw32/bin/../lib/gcc/nios2-elf/4.1.2/../../../../nios2-elf/lib/mno-hw-mul\libc.a(lib_a-fwalk.o)
 .comment       0x00000000       0x27 f:/quatus/nios2eds/bin/gnu/h-i686-mingw32/bin/../lib/gcc/nios2-elf/4.1.2/../../../../nios2-elf/lib/mno-hw-mul\libc.a(lib_a-gettimeofdayr.o)
 .comment       0x00000000       0x27 f:/quatus/nios2eds/bin/gnu/h-i686-mingw32/bin/../lib/gcc/nios2-elf/4.1.2/../../../../nios2-elf/lib/mno-hw-mul\libc.a(lib_a-impure.o)
 .comment       0x00000000       0x27 f:/quatus/nios2eds/bin/gnu/h-i686-mingw32/bin/../lib/gcc/nios2-elf/4.1.2/../../../../nios2-elf/lib/mno-hw-mul\libc.a(lib_a-int_errno.o)
 .comment       0x00000000       0x27 f:/quatus/nios2eds/bin/gnu/h-i686-mingw32/bin/../lib/gcc/nios2-elf/4.1.2/../../../../nios2-elf/lib/mno-hw-mul\libc.a(lib_a-locale.o)
 .comment       0x00000000       0x27 f:/quatus/nios2eds/bin/gnu/h-i686-mingw32/bin/../lib/gcc/nios2-elf/4.1.2/../../../../nios2-elf/lib/mno-hw-mul\libc.a(lib_a-makebuf.o)
 .comment       0x00000000       0x27 f:/quatus/nios2eds/bin/gnu/h-i686-mingw32/bin/../lib/gcc/nios2-elf/4.1.2/../../../../nios2-elf/lib/mno-hw-mul\libc.a(lib_a-mallocr.o)
 .comment       0x00000000       0x27 f:/quatus/nios2eds/bin/gnu/h-i686-mingw32/bin/../lib/gcc/nios2-elf/4.1.2/../../../../nios2-elf/lib/mno-hw-mul\libc.a(lib_a-memchr.o)
 .comment       0x00000000       0x27 f:/quatus/nios2eds/bin/gnu/h-i686-mingw32/bin/../lib/gcc/nios2-elf/4.1.2/../../../../nios2-elf/lib/mno-hw-mul\libc.a(lib_a-memcpy.o)
 .comment       0x00000000       0x27 f:/quatus/nios2eds/bin/gnu/h-i686-mingw32/bin/../lib/gcc/nios2-elf/4.1.2/../../../../nios2-elf/lib/mno-hw-mul\libc.a(lib_a-memmove.o)
 .comment       0x00000000       0x27 f:/quatus/nios2eds/bin/gnu/h-i686-mingw32/bin/../lib/gcc/nios2-elf/4.1.2/../../../../nios2-elf/lib/mno-hw-mul\libc.a(lib_a-memset.o)
 .comment       0x00000000       0x27 f:/quatus/nios2eds/bin/gnu/h-i686-mingw32/bin/../lib/gcc/nios2-elf/4.1.2/../../../../nios2-elf/lib/mno-hw-mul\libc.a(lib_a-mprec.o)
 .comment       0x00000000       0x27 f:/quatus/nios2eds/bin/gnu/h-i686-mingw32/bin/../lib/gcc/nios2-elf/4.1.2/../../../../nios2-elf/lib/mno-hw-mul\libc.a(lib_a-reallocr.o)
 .comment       0x00000000       0x27 f:/quatus/nios2eds/bin/gnu/h-i686-mingw32/bin/../lib/gcc/nios2-elf/4.1.2/../../../../nios2-elf/lib/mno-hw-mul\libc.a(lib_a-s_isinfd.o)
 .comment       0x00000000       0x27 f:/quatus/nios2eds/bin/gnu/h-i686-mingw32/bin/../lib/gcc/nios2-elf/4.1.2/../../../../nios2-elf/lib/mno-hw-mul\libc.a(lib_a-s_isnand.o)
 .comment       0x00000000       0x27 f:/quatus/nios2eds/bin/gnu/h-i686-mingw32/bin/../lib/gcc/nios2-elf/4.1.2/../../../../nios2-elf/lib/mno-hw-mul\libc.a(lib_a-sbrkr.o)
 .comment       0x00000000       0x27 f:/quatus/nios2eds/bin/gnu/h-i686-mingw32/bin/../lib/gcc/nios2-elf/4.1.2/../../../../nios2-elf/lib/mno-hw-mul\libc.a(lib_a-stdio.o)
 .comment       0x00000000       0x27 f:/quatus/nios2eds/bin/gnu/h-i686-mingw32/bin/../lib/gcc/nios2-elf/4.1.2/../../../../nios2-elf/lib/mno-hw-mul\libc.a(lib_a-strcmp.o)
 .comment       0x00000000       0x27 f:/quatus/nios2eds/bin/gnu/h-i686-mingw32/bin/../lib/gcc/nios2-elf/4.1.2/../../../../nios2-elf/lib/mno-hw-mul\libc.a(lib_a-writer.o)
 .comment       0x00000000       0x27 f:/quatus/nios2eds/bin/gnu/h-i686-mingw32/bin/../lib/gcc/nios2-elf/4.1.2/../../../../nios2-elf/lib/mno-hw-mul\libc.a(lib_a-callocr.o)
 .comment       0x00000000       0x27 f:/quatus/nios2eds/bin/gnu/h-i686-mingw32/bin/../lib/gcc/nios2-elf/4.1.2/../../../../nios2-elf/lib/mno-hw-mul\libc.a(lib_a-closer.o)
 .comment       0x00000000       0x27 f:/quatus/nios2eds/bin/gnu/h-i686-mingw32/bin/../lib/gcc/nios2-elf/4.1.2/../../../../nios2-elf/lib/mno-hw-mul\libc.a(lib_a-fclose.o)
 .comment       0x00000000       0x27 f:/quatus/nios2eds/bin/gnu/h-i686-mingw32/bin/../lib/gcc/nios2-elf/4.1.2/../../../../nios2-elf/lib/mno-hw-mul\libc.a(lib_a-fstatr.o)
 .comment       0x00000000       0x27 f:/quatus/nios2eds/bin/gnu/h-i686-mingw32/bin/../lib/gcc/nios2-elf/4.1.2/../../../../nios2-elf/lib/mno-hw-mul\libc.a(lib_a-isattyr.o)
 .comment       0x00000000       0x27 f:/quatus/nios2eds/bin/gnu/h-i686-mingw32/bin/../lib/gcc/nios2-elf/4.1.2/../../../../nios2-elf/lib/mno-hw-mul\libc.a(lib_a-lseekr.o)
 .comment       0x00000000       0x27 f:/quatus/nios2eds/bin/gnu/h-i686-mingw32/bin/../lib/gcc/nios2-elf/4.1.2/../../../../nios2-elf/lib/mno-hw-mul\libc.a(lib_a-readr.o)
 .comment       0x00000000       0x27 f:/quatus/nios2eds/bin/gnu/h-i686-mingw32/bin/../lib/gcc/nios2-elf/4.1.2/mno-hw-mul\libgcc.a(_muldi3.o)
 .comment       0x00000000       0x27 f:/quatus/nios2eds/bin/gnu/h-i686-mingw32/bin/../lib/gcc/nios2-elf/4.1.2/mno-hw-mul\libgcc.a(_udivdi3.o)
 .comment       0x00000000       0x27 f:/quatus/nios2eds/bin/gnu/h-i686-mingw32/bin/../lib/gcc/nios2-elf/4.1.2/mno-hw-mul\libgcc.a(_umoddi3.o)
 .comment       0x00000000       0x27 f:/quatus/nios2eds/bin/gnu/h-i686-mingw32/bin/../lib/gcc/nios2-elf/4.1.2/mno-hw-mul\libgcc.a(_addsub_df.o)
 .comment       0x00000000       0x27 f:/quatus/nios2eds/bin/gnu/h-i686-mingw32/bin/../lib/gcc/nios2-elf/4.1.2/mno-hw-mul\libgcc.a(_mul_df.o)
 .comment       0x00000000       0x27 f:/quatus/nios2eds/bin/gnu/h-i686-mingw32/bin/../lib/gcc/nios2-elf/4.1.2/mno-hw-mul\libgcc.a(_div_df.o)
 .comment       0x00000000       0x27 f:/quatus/nios2eds/bin/gnu/h-i686-mingw32/bin/../lib/gcc/nios2-elf/4.1.2/mno-hw-mul\libgcc.a(_eq_df.o)
 .comment       0x00000000       0x27 f:/quatus/nios2eds/bin/gnu/h-i686-mingw32/bin/../lib/gcc/nios2-elf/4.1.2/mno-hw-mul\libgcc.a(_ne_df.o)
 .comment       0x00000000       0x27 f:/quatus/nios2eds/bin/gnu/h-i686-mingw32/bin/../lib/gcc/nios2-elf/4.1.2/mno-hw-mul\libgcc.a(_gt_df.o)
 .comment       0x00000000       0x27 f:/quatus/nios2eds/bin/gnu/h-i686-mingw32/bin/../lib/gcc/nios2-elf/4.1.2/mno-hw-mul\libgcc.a(_ge_df.o)
 .comment       0x00000000       0x27 f:/quatus/nios2eds/bin/gnu/h-i686-mingw32/bin/../lib/gcc/nios2-elf/4.1.2/mno-hw-mul\libgcc.a(_lt_df.o)
 .comment       0x00000000       0x27 f:/quatus/nios2eds/bin/gnu/h-i686-mingw32/bin/../lib/gcc/nios2-elf/4.1.2/mno-hw-mul\libgcc.a(_si_to_df.o)
 .comment       0x00000000       0x27 f:/quatus/nios2eds/bin/gnu/h-i686-mingw32/bin/../lib/gcc/nios2-elf/4.1.2/mno-hw-mul\libgcc.a(_df_to_si.o)
 .comment       0x00000000       0x27 f:/quatus/nios2eds/bin/gnu/h-i686-mingw32/bin/../lib/gcc/nios2-elf/4.1.2/mno-hw-mul\libgcc.a(_thenan_df.o)
 .comment       0x00000000       0x27 f:/quatus/nios2eds/bin/gnu/h-i686-mingw32/bin/../lib/gcc/nios2-elf/4.1.2/mno-hw-mul\libgcc.a(_usi_to_df.o)
 .comment       0x00000000       0x27 f:/quatus/nios2eds/bin/gnu/h-i686-mingw32/bin/../lib/gcc/nios2-elf/4.1.2/mno-hw-mul\libgcc.a(lib2-divmod.o)
 .comment       0x00000000       0x27 f:/quatus/nios2eds/bin/gnu/h-i686-mingw32/bin/../lib/gcc/nios2-elf/4.1.2/mno-hw-mul\libgcc.a(lib2-mul.o)
 .comment       0x00000000       0x27 f:/quatus/nios2eds/bin/gnu/h-i686-mingw32/bin/../lib/gcc/nios2-elf/4.1.2/mno-hw-mul\libgcc.a(_clz.o)
 .comment       0x00000000       0x27 f:/quatus/nios2eds/bin/gnu/h-i686-mingw32/bin/../lib/gcc/nios2-elf/4.1.2/mno-hw-mul\libgcc.a(_clzsi2.o)
 .comment       0x00000000       0x27 f:/quatus/nios2eds/bin/gnu/h-i686-mingw32/bin/../lib/gcc/nios2-elf/4.1.2/mno-hw-mul\libgcc.a(_pack_df.o)
 .comment       0x00000000       0x27 f:/quatus/nios2eds/bin/gnu/h-i686-mingw32/bin/../lib/gcc/nios2-elf/4.1.2/mno-hw-mul\libgcc.a(_unpack_df.o)
 .comment       0x00000000       0x27 f:/quatus/nios2eds/bin/gnu/h-i686-mingw32/bin/../lib/gcc/nios2-elf/4.1.2/mno-hw-mul\libgcc.a(_fpcmp_parts_df.o)
 .comment       0x00000000       0x27 ../1223_bsp/\libhal_bsp.a(alt_close.o)
 .comment       0x00000000       0x27 ../1223_bsp/\libhal_bsp.a(alt_dev.o)
 .comment       0x00000000       0x27 ../1223_bsp/\libhal_bsp.a(alt_errno.o)
 .comment       0x00000000       0x27 ../1223_bsp/\libhal_bsp.a(alt_fstat.o)
 .comment       0x00000000       0x27 ../1223_bsp/\libhal_bsp.a(alt_gettod.o)
 .comment       0x00000000       0x27 ../1223_bsp/\libhal_bsp.a(alt_irq_register.o)
 .comment       0x00000000       0x27 ../1223_bsp/\libhal_bsp.a(alt_irq_vars.o)
 .comment       0x00000000       0x27 ../1223_bsp/\libhal_bsp.a(alt_isatty.o)
 .comment       0x00000000       0x27 ../1223_bsp/\libhal_bsp.a(alt_load.o)
 .comment       0x00000000       0x27 ../1223_bsp/\libhal_bsp.a(alt_lseek.o)
 .comment       0x00000000       0x27 ../1223_bsp/\libhal_bsp.a(alt_main.o)
 .comment       0x00000000       0x27 ../1223_bsp/\libhal_bsp.a(alt_malloc_lock.o)
 .comment       0x00000000       0x27 ../1223_bsp/\libhal_bsp.a(alt_read.o)
 .comment       0x00000000       0x27 ../1223_bsp/\libhal_bsp.a(alt_release_fd.o)
 .comment       0x00000000       0x27 ../1223_bsp/\libhal_bsp.a(alt_sbrk.o)
 .comment       0x00000000       0x27 ../1223_bsp/\libhal_bsp.a(alt_tick.o)
 .comment       0x00000000       0x27 ../1223_bsp/\libhal_bsp.a(alt_usleep.o)
 .comment       0x00000000       0x27 ../1223_bsp/\libhal_bsp.a(alt_write.o)
 .comment       0x00000000       0x27 ../1223_bsp/\libhal_bsp.a(alt_sys_init.o)
 .comment       0x00000000       0x27 ../1223_bsp/\libhal_bsp.a(altera_avalon_dma.o)
 .comment       0x00000000       0x27 ../1223_bsp/\libhal_bsp.a(altera_avalon_jtag_uart_fd.o)
 .comment       0x00000000       0x27 ../1223_bsp/\libhal_bsp.a(altera_avalon_jtag_uart_init.o)
 .comment       0x00000000       0x27 ../1223_bsp/\libhal_bsp.a(altera_avalon_jtag_uart_ioctl.o)
 .comment       0x00000000       0x27 ../1223_bsp/\libhal_bsp.a(altera_avalon_jtag_uart_read.o)
 .comment       0x00000000       0x27 ../1223_bsp/\libhal_bsp.a(altera_avalon_jtag_uart_write.o)
 .comment       0x00000000       0x27 ../1223_bsp/\libhal_bsp.a(alt_alarm_start.o)
 .comment       0x00000000       0x27 ../1223_bsp/\libhal_bsp.a(alt_busy_sleep.o)
 .comment       0x00000000       0x27 ../1223_bsp/\libhal_bsp.a(alt_dcache_flush_all.o)
 .comment       0x00000000       0x27 ../1223_bsp/\libhal_bsp.a(alt_dev_llist_insert.o)
 .comment       0x00000000       0x27 ../1223_bsp/\libhal_bsp.a(alt_dma_rxchan_open.o)
 .comment       0x00000000       0x27 ../1223_bsp/\libhal_bsp.a(alt_dma_txchan_open.o)
 .comment       0x00000000       0x27 ../1223_bsp/\libhal_bsp.a(alt_do_ctors.o)
 .comment       0x00000000       0x27 ../1223_bsp/\libhal_bsp.a(alt_do_dtors.o)
 .comment       0x00000000       0x27 ../1223_bsp/\libhal_bsp.a(alt_find_dev.o)
 .comment       0x00000000       0x27 ../1223_bsp/\libhal_bsp.a(alt_icache_flush_all.o)
 .comment       0x00000000       0x27 ../1223_bsp/\libhal_bsp.a(alt_iic.o)
 .comment       0x00000000       0x27 ../1223_bsp/\libhal_bsp.a(alt_iic_isr_register.o)
 .comment       0x00000000       0x27 ../1223_bsp/\libhal_bsp.a(alt_io_redirect.o)
 .comment       0x00000000       0x27 ../1223_bsp/\libhal_bsp.a(alt_irq_handler.o)
 .comment       0x00000000       0x27 ../1223_bsp/\libhal_bsp.a(alt_open.o)
 .comment       0x00000000       0x27 ../1223_bsp/\libhal_bsp.a(altera_nios2_qsys_irq.o)
 .comment       0x00000000       0x27 ../1223_bsp/\libhal_bsp.a(alt_find_file.o)
 .comment       0x00000000       0x27 ../1223_bsp/\libhal_bsp.a(alt_get_fd.o)
 .comment       0x00000000       0x27 f:/quatus/nios2eds/bin/gnu/h-i686-mingw32/bin/../lib/gcc/nios2-elf/4.1.2/../../../../nios2-elf/lib/mno-hw-mul\libc.a(lib_a-atexit.o)
 .comment       0x00000000       0x27 f:/quatus/nios2eds/bin/gnu/h-i686-mingw32/bin/../lib/gcc/nios2-elf/4.1.2/../../../../nios2-elf/lib/mno-hw-mul\libc.a(lib_a-exit.o)
 .comment       0x00000000       0x27 f:/quatus/nios2eds/bin/gnu/h-i686-mingw32/bin/../lib/gcc/nios2-elf/4.1.2/../../../../nios2-elf/lib/mno-hw-mul\libc.a(lib_a-memcmp.o)
 .comment       0x00000000       0x27 f:/quatus/nios2eds/bin/gnu/h-i686-mingw32/bin/../lib/gcc/nios2-elf/4.1.2/../../../../nios2-elf/lib/mno-hw-mul\libc.a(lib_a-__atexit.o)
 .comment       0x00000000       0x27 f:/quatus/nios2eds/bin/gnu/h-i686-mingw32/bin/../lib/gcc/nios2-elf/4.1.2/../../../../nios2-elf/lib/mno-hw-mul\libc.a(lib_a-__call_atexit.o)
 .comment       0x00000000       0x27 ../1223_bsp/\libhal_bsp.a(alt_exit.o)

.debug
 *(.debug)

.line
 *(.line)

.debug_srcinfo
 *(.debug_srcinfo)

.debug_sfnames
 *(.debug_sfnames)

.debug_aranges  0x00000000      0xd98
 *(.debug_aranges)
 .debug_aranges
                0x00000000       0x28 ../1223_bsp//obj/HAL/src/crt0.o
 .debug_aranges
                0x00000028       0x20 obj/default/count_binary.o
 .debug_aranges
                0x00000048       0x20 f:/quatus/nios2eds/bin/gnu/h-i686-mingw32/bin/../lib/gcc/nios2-elf/4.1.2/../../../../nios2-elf/lib/mno-hw-mul\libc.a(lib_a-printf.o)
 .debug_aranges
                0x00000068       0x20 f:/quatus/nios2eds/bin/gnu/h-i686-mingw32/bin/../lib/gcc/nios2-elf/4.1.2/../../../../nios2-elf/lib/mno-hw-mul\libc.a(lib_a-puts.o)
 .debug_aranges
                0x00000088       0x20 f:/quatus/nios2eds/bin/gnu/h-i686-mingw32/bin/../lib/gcc/nios2-elf/4.1.2/../../../../nios2-elf/lib/mno-hw-mul\libc.a(lib_a-rand.o)
 .debug_aranges
                0x000000a8       0x20 f:/quatus/nios2eds/bin/gnu/h-i686-mingw32/bin/../lib/gcc/nios2-elf/4.1.2/../../../../nios2-elf/lib/mno-hw-mul\libc.a(lib_a-strlen.o)
 .debug_aranges
                0x000000c8       0x20 f:/quatus/nios2eds/bin/gnu/h-i686-mingw32/bin/../lib/gcc/nios2-elf/4.1.2/../../../../nios2-elf/lib/mno-hw-mul\libc.a(lib_a-time.o)
 .debug_aranges
                0x000000e8       0x20 f:/quatus/nios2eds/bin/gnu/h-i686-mingw32/bin/../lib/gcc/nios2-elf/4.1.2/../../../../nios2-elf/lib/mno-hw-mul\libc.a(lib_a-vfprintf.o)
 .debug_aranges
                0x00000108       0x20 f:/quatus/nios2eds/bin/gnu/h-i686-mingw32/bin/../lib/gcc/nios2-elf/4.1.2/../../../../nios2-elf/lib/mno-hw-mul\libc.a(lib_a-wsetup.o)
 .debug_aranges
                0x00000128       0x20 f:/quatus/nios2eds/bin/gnu/h-i686-mingw32/bin/../lib/gcc/nios2-elf/4.1.2/../../../../nios2-elf/lib/mno-hw-mul\libc.a(lib_a-dtoa.o)
 .debug_aranges
                0x00000148       0x20 f:/quatus/nios2eds/bin/gnu/h-i686-mingw32/bin/../lib/gcc/nios2-elf/4.1.2/../../../../nios2-elf/lib/mno-hw-mul\libc.a(lib_a-fflush.o)
 .debug_aranges
                0x00000168       0x20 f:/quatus/nios2eds/bin/gnu/h-i686-mingw32/bin/../lib/gcc/nios2-elf/4.1.2/../../../../nios2-elf/lib/mno-hw-mul\libc.a(lib_a-findfp.o)
 .debug_aranges
                0x00000188       0x20 f:/quatus/nios2eds/bin/gnu/h-i686-mingw32/bin/../lib/gcc/nios2-elf/4.1.2/../../../../nios2-elf/lib/mno-hw-mul\libc.a(lib_a-freer.o)
 .debug_aranges
                0x000001a8       0x20 f:/quatus/nios2eds/bin/gnu/h-i686-mingw32/bin/../lib/gcc/nios2-elf/4.1.2/../../../../nios2-elf/lib/mno-hw-mul\libc.a(lib_a-fvwrite.o)
 .debug_aranges
                0x000001c8       0x20 f:/quatus/nios2eds/bin/gnu/h-i686-mingw32/bin/../lib/gcc/nios2-elf/4.1.2/../../../../nios2-elf/lib/mno-hw-mul\libc.a(lib_a-fwalk.o)
 .debug_aranges
                0x000001e8       0x20 f:/quatus/nios2eds/bin/gnu/h-i686-mingw32/bin/../lib/gcc/nios2-elf/4.1.2/../../../../nios2-elf/lib/mno-hw-mul\libc.a(lib_a-gettimeofdayr.o)
 .debug_aranges
                0x00000208       0x20 f:/quatus/nios2eds/bin/gnu/h-i686-mingw32/bin/../lib/gcc/nios2-elf/4.1.2/../../../../nios2-elf/lib/mno-hw-mul\libc.a(lib_a-locale.o)
 .debug_aranges
                0x00000228       0x20 f:/quatus/nios2eds/bin/gnu/h-i686-mingw32/bin/../lib/gcc/nios2-elf/4.1.2/../../../../nios2-elf/lib/mno-hw-mul\libc.a(lib_a-makebuf.o)
 .debug_aranges
                0x00000248       0x20 f:/quatus/nios2eds/bin/gnu/h-i686-mingw32/bin/../lib/gcc/nios2-elf/4.1.2/../../../../nios2-elf/lib/mno-hw-mul\libc.a(lib_a-mallocr.o)
 .debug_aranges
                0x00000268       0x20 f:/quatus/nios2eds/bin/gnu/h-i686-mingw32/bin/../lib/gcc/nios2-elf/4.1.2/../../../../nios2-elf/lib/mno-hw-mul\libc.a(lib_a-memchr.o)
 .debug_aranges
                0x00000288       0x20 f:/quatus/nios2eds/bin/gnu/h-i686-mingw32/bin/../lib/gcc/nios2-elf/4.1.2/../../../../nios2-elf/lib/mno-hw-mul\libc.a(lib_a-memcpy.o)
 .debug_aranges
                0x000002a8       0x20 f:/quatus/nios2eds/bin/gnu/h-i686-mingw32/bin/../lib/gcc/nios2-elf/4.1.2/../../../../nios2-elf/lib/mno-hw-mul\libc.a(lib_a-memmove.o)
 .debug_aranges
                0x000002c8       0x20 f:/quatus/nios2eds/bin/gnu/h-i686-mingw32/bin/../lib/gcc/nios2-elf/4.1.2/../../../../nios2-elf/lib/mno-hw-mul\libc.a(lib_a-memset.o)
 .debug_aranges
                0x000002e8       0x20 f:/quatus/nios2eds/bin/gnu/h-i686-mingw32/bin/../lib/gcc/nios2-elf/4.1.2/../../../../nios2-elf/lib/mno-hw-mul\libc.a(lib_a-mprec.o)
 .debug_aranges
                0x00000308       0x20 f:/quatus/nios2eds/bin/gnu/h-i686-mingw32/bin/../lib/gcc/nios2-elf/4.1.2/../../../../nios2-elf/lib/mno-hw-mul\libc.a(lib_a-reallocr.o)
 .debug_aranges
                0x00000328       0x20 f:/quatus/nios2eds/bin/gnu/h-i686-mingw32/bin/../lib/gcc/nios2-elf/4.1.2/../../../../nios2-elf/lib/mno-hw-mul\libc.a(lib_a-s_isinfd.o)
 .debug_aranges
                0x00000348       0x20 f:/quatus/nios2eds/bin/gnu/h-i686-mingw32/bin/../lib/gcc/nios2-elf/4.1.2/../../../../nios2-elf/lib/mno-hw-mul\libc.a(lib_a-s_isnand.o)
 .debug_aranges
                0x00000368       0x20 f:/quatus/nios2eds/bin/gnu/h-i686-mingw32/bin/../lib/gcc/nios2-elf/4.1.2/../../../../nios2-elf/lib/mno-hw-mul\libc.a(lib_a-sbrkr.o)
 .debug_aranges
                0x00000388       0x20 f:/quatus/nios2eds/bin/gnu/h-i686-mingw32/bin/../lib/gcc/nios2-elf/4.1.2/../../../../nios2-elf/lib/mno-hw-mul\libc.a(lib_a-stdio.o)
 .debug_aranges
                0x000003a8       0x20 f:/quatus/nios2eds/bin/gnu/h-i686-mingw32/bin/../lib/gcc/nios2-elf/4.1.2/../../../../nios2-elf/lib/mno-hw-mul\libc.a(lib_a-strcmp.o)
 .debug_aranges
                0x000003c8       0x20 f:/quatus/nios2eds/bin/gnu/h-i686-mingw32/bin/../lib/gcc/nios2-elf/4.1.2/../../../../nios2-elf/lib/mno-hw-mul\libc.a(lib_a-writer.o)
 .debug_aranges
                0x000003e8       0x20 f:/quatus/nios2eds/bin/gnu/h-i686-mingw32/bin/../lib/gcc/nios2-elf/4.1.2/../../../../nios2-elf/lib/mno-hw-mul\libc.a(lib_a-callocr.o)
 .debug_aranges
                0x00000408       0x20 f:/quatus/nios2eds/bin/gnu/h-i686-mingw32/bin/../lib/gcc/nios2-elf/4.1.2/../../../../nios2-elf/lib/mno-hw-mul\libc.a(lib_a-closer.o)
 .debug_aranges
                0x00000428       0x20 f:/quatus/nios2eds/bin/gnu/h-i686-mingw32/bin/../lib/gcc/nios2-elf/4.1.2/../../../../nios2-elf/lib/mno-hw-mul\libc.a(lib_a-fclose.o)
 .debug_aranges
                0x00000448       0x20 f:/quatus/nios2eds/bin/gnu/h-i686-mingw32/bin/../lib/gcc/nios2-elf/4.1.2/../../../../nios2-elf/lib/mno-hw-mul\libc.a(lib_a-fstatr.o)
 .debug_aranges
                0x00000468       0x20 f:/quatus/nios2eds/bin/gnu/h-i686-mingw32/bin/../lib/gcc/nios2-elf/4.1.2/../../../../nios2-elf/lib/mno-hw-mul\libc.a(lib_a-isattyr.o)
 .debug_aranges
                0x00000488       0x20 f:/quatus/nios2eds/bin/gnu/h-i686-mingw32/bin/../lib/gcc/nios2-elf/4.1.2/../../../../nios2-elf/lib/mno-hw-mul\libc.a(lib_a-lseekr.o)
 .debug_aranges
                0x000004a8       0x20 f:/quatus/nios2eds/bin/gnu/h-i686-mingw32/bin/../lib/gcc/nios2-elf/4.1.2/../../../../nios2-elf/lib/mno-hw-mul\libc.a(lib_a-readr.o)
 .debug_aranges
                0x000004c8       0x20 f:/quatus/nios2eds/bin/gnu/h-i686-mingw32/bin/../lib/gcc/nios2-elf/4.1.2/mno-hw-mul\libgcc.a(_muldi3.o)
 .debug_aranges
                0x000004e8       0x20 f:/quatus/nios2eds/bin/gnu/h-i686-mingw32/bin/../lib/gcc/nios2-elf/4.1.2/mno-hw-mul\libgcc.a(_udivdi3.o)
 .debug_aranges
                0x00000508       0x20 f:/quatus/nios2eds/bin/gnu/h-i686-mingw32/bin/../lib/gcc/nios2-elf/4.1.2/mno-hw-mul\libgcc.a(_umoddi3.o)
 .debug_aranges
                0x00000528       0x20 f:/quatus/nios2eds/bin/gnu/h-i686-mingw32/bin/../lib/gcc/nios2-elf/4.1.2/mno-hw-mul\libgcc.a(_addsub_df.o)
 .debug_aranges
                0x00000548       0x20 f:/quatus/nios2eds/bin/gnu/h-i686-mingw32/bin/../lib/gcc/nios2-elf/4.1.2/mno-hw-mul\libgcc.a(_mul_df.o)
 .debug_aranges
                0x00000568       0x20 f:/quatus/nios2eds/bin/gnu/h-i686-mingw32/bin/../lib/gcc/nios2-elf/4.1.2/mno-hw-mul\libgcc.a(_div_df.o)
 .debug_aranges
                0x00000588       0x20 f:/quatus/nios2eds/bin/gnu/h-i686-mingw32/bin/../lib/gcc/nios2-elf/4.1.2/mno-hw-mul\libgcc.a(_eq_df.o)
 .debug_aranges
                0x000005a8       0x20 f:/quatus/nios2eds/bin/gnu/h-i686-mingw32/bin/../lib/gcc/nios2-elf/4.1.2/mno-hw-mul\libgcc.a(_ne_df.o)
 .debug_aranges
                0x000005c8       0x20 f:/quatus/nios2eds/bin/gnu/h-i686-mingw32/bin/../lib/gcc/nios2-elf/4.1.2/mno-hw-mul\libgcc.a(_gt_df.o)
 .debug_aranges
                0x000005e8       0x20 f:/quatus/nios2eds/bin/gnu/h-i686-mingw32/bin/../lib/gcc/nios2-elf/4.1.2/mno-hw-mul\libgcc.a(_ge_df.o)
 .debug_aranges
                0x00000608       0x20 f:/quatus/nios2eds/bin/gnu/h-i686-mingw32/bin/../lib/gcc/nios2-elf/4.1.2/mno-hw-mul\libgcc.a(_lt_df.o)
 .debug_aranges
                0x00000628       0x20 f:/quatus/nios2eds/bin/gnu/h-i686-mingw32/bin/../lib/gcc/nios2-elf/4.1.2/mno-hw-mul\libgcc.a(_si_to_df.o)
 .debug_aranges
                0x00000648       0x20 f:/quatus/nios2eds/bin/gnu/h-i686-mingw32/bin/../lib/gcc/nios2-elf/4.1.2/mno-hw-mul\libgcc.a(_df_to_si.o)
 .debug_aranges
                0x00000668       0x20 f:/quatus/nios2eds/bin/gnu/h-i686-mingw32/bin/../lib/gcc/nios2-elf/4.1.2/mno-hw-mul\libgcc.a(_usi_to_df.o)
 .debug_aranges
                0x00000688       0x20 f:/quatus/nios2eds/bin/gnu/h-i686-mingw32/bin/../lib/gcc/nios2-elf/4.1.2/mno-hw-mul\libgcc.a(lib2-divmod.o)
 .debug_aranges
                0x000006a8       0x20 f:/quatus/nios2eds/bin/gnu/h-i686-mingw32/bin/../lib/gcc/nios2-elf/4.1.2/mno-hw-mul\libgcc.a(lib2-mul.o)
 .debug_aranges
                0x000006c8       0x20 f:/quatus/nios2eds/bin/gnu/h-i686-mingw32/bin/../lib/gcc/nios2-elf/4.1.2/mno-hw-mul\libgcc.a(_clzsi2.o)
 .debug_aranges
                0x000006e8       0x20 f:/quatus/nios2eds/bin/gnu/h-i686-mingw32/bin/../lib/gcc/nios2-elf/4.1.2/mno-hw-mul\libgcc.a(_pack_df.o)
 .debug_aranges
                0x00000708       0x20 f:/quatus/nios2eds/bin/gnu/h-i686-mingw32/bin/../lib/gcc/nios2-elf/4.1.2/mno-hw-mul\libgcc.a(_unpack_df.o)
 .debug_aranges
                0x00000728       0x20 f:/quatus/nios2eds/bin/gnu/h-i686-mingw32/bin/../lib/gcc/nios2-elf/4.1.2/mno-hw-mul\libgcc.a(_fpcmp_parts_df.o)
 .debug_aranges
                0x00000748       0x20 ../1223_bsp/\libhal_bsp.a(alt_close.o)
 .debug_aranges
                0x00000768       0x20 ../1223_bsp/\libhal_bsp.a(alt_dev.o)
 .debug_aranges
                0x00000788       0x20 ../1223_bsp/\libhal_bsp.a(alt_fstat.o)
 .debug_aranges
                0x000007a8       0x20 ../1223_bsp/\libhal_bsp.a(alt_gettod.o)
 .debug_aranges
                0x000007c8       0x20 ../1223_bsp/\libhal_bsp.a(alt_irq_register.o)
 .debug_aranges
                0x000007e8       0x20 ../1223_bsp/\libhal_bsp.a(alt_isatty.o)
 .debug_aranges
                0x00000808       0x20 ../1223_bsp/\libhal_bsp.a(alt_load.o)
 .debug_aranges
                0x00000828       0x20 ../1223_bsp/\libhal_bsp.a(alt_lseek.o)
 .debug_aranges
                0x00000848       0x20 ../1223_bsp/\libhal_bsp.a(alt_main.o)
 .debug_aranges
                0x00000868       0x20 ../1223_bsp/\libhal_bsp.a(alt_malloc_lock.o)
 .debug_aranges
                0x00000888       0x20 ../1223_bsp/\libhal_bsp.a(alt_read.o)
 .debug_aranges
                0x000008a8       0x20 ../1223_bsp/\libhal_bsp.a(alt_release_fd.o)
 .debug_aranges
                0x000008c8       0x20 ../1223_bsp/\libhal_bsp.a(alt_sbrk.o)
 .debug_aranges
                0x000008e8       0x20 ../1223_bsp/\libhal_bsp.a(alt_tick.o)
 .debug_aranges
                0x00000908       0x20 ../1223_bsp/\libhal_bsp.a(alt_usleep.o)
 .debug_aranges
                0x00000928       0x20 ../1223_bsp/\libhal_bsp.a(alt_write.o)
 .debug_aranges
                0x00000948       0x20 ../1223_bsp/\libhal_bsp.a(alt_sys_init.o)
 .debug_aranges
                0x00000968       0x20 ../1223_bsp/\libhal_bsp.a(altera_avalon_dma.o)
 .debug_aranges
                0x00000988       0x20 ../1223_bsp/\libhal_bsp.a(altera_avalon_jtag_uart_fd.o)
 .debug_aranges
                0x000009a8       0x20 ../1223_bsp/\libhal_bsp.a(altera_avalon_jtag_uart_init.o)
 .debug_aranges
                0x000009c8       0x20 ../1223_bsp/\libhal_bsp.a(altera_avalon_jtag_uart_ioctl.o)
 .debug_aranges
                0x000009e8       0x20 ../1223_bsp/\libhal_bsp.a(altera_avalon_jtag_uart_read.o)
 .debug_aranges
                0x00000a08       0x20 ../1223_bsp/\libhal_bsp.a(altera_avalon_jtag_uart_write.o)
 .debug_aranges
                0x00000a28       0x20 ../1223_bsp/\libhal_bsp.a(alt_alarm_start.o)
 .debug_aranges
                0x00000a48       0x20 ../1223_bsp/\libhal_bsp.a(alt_busy_sleep.o)
 .debug_aranges
                0x00000a68       0x20 ../1223_bsp/\libhal_bsp.a(alt_dcache_flush_all.o)
 .debug_aranges
                0x00000a88       0x20 ../1223_bsp/\libhal_bsp.a(alt_dev_llist_insert.o)
 .debug_aranges
                0x00000aa8       0x20 ../1223_bsp/\libhal_bsp.a(alt_dma_rxchan_open.o)
 .debug_aranges
                0x00000ac8       0x20 ../1223_bsp/\libhal_bsp.a(alt_dma_txchan_open.o)
 .debug_aranges
                0x00000ae8       0x20 ../1223_bsp/\libhal_bsp.a(alt_do_ctors.o)
 .debug_aranges
                0x00000b08       0x20 ../1223_bsp/\libhal_bsp.a(alt_do_dtors.o)
 .debug_aranges
                0x00000b28       0x20 ../1223_bsp/\libhal_bsp.a(alt_find_dev.o)
 .debug_aranges
                0x00000b48       0x20 ../1223_bsp/\libhal_bsp.a(alt_icache_flush_all.o)
 .debug_aranges
                0x00000b68       0x20 ../1223_bsp/\libhal_bsp.a(alt_iic.o)
 .debug_aranges
                0x00000b88       0x20 ../1223_bsp/\libhal_bsp.a(alt_iic_isr_register.o)
 .debug_aranges
                0x00000ba8       0x20 ../1223_bsp/\libhal_bsp.a(alt_io_redirect.o)
 .debug_aranges
                0x00000bc8       0x30 ../1223_bsp/\libhal_bsp.a(alt_irq_entry.o)
 .debug_aranges
                0x00000bf8       0x28 ../1223_bsp/\libhal_bsp.a(alt_irq_handler.o)
 .debug_aranges
                0x00000c20       0x20 ../1223_bsp/\libhal_bsp.a(alt_open.o)
 .debug_aranges
                0x00000c40       0x20 ../1223_bsp/\libhal_bsp.a(altera_nios2_qsys_irq.o)
 .debug_aranges
                0x00000c60       0x38 ../1223_bsp/\libhal_bsp.a(alt_exception_entry.o)
 .debug_aranges
                0x00000c98       0x20 ../1223_bsp/\libhal_bsp.a(alt_find_file.o)
 .debug_aranges
                0x00000cb8       0x20 ../1223_bsp/\libhal_bsp.a(alt_get_fd.o)
 .debug_aranges
                0x00000cd8       0x20 f:/quatus/nios2eds/bin/gnu/h-i686-mingw32/bin/../lib/gcc/nios2-elf/4.1.2/../../../../nios2-elf/lib/mno-hw-mul\libc.a(lib_a-atexit.o)
 .debug_aranges
                0x00000cf8       0x20 f:/quatus/nios2eds/bin/gnu/h-i686-mingw32/bin/../lib/gcc/nios2-elf/4.1.2/../../../../nios2-elf/lib/mno-hw-mul\libc.a(lib_a-exit.o)
 .debug_aranges
                0x00000d18       0x20 f:/quatus/nios2eds/bin/gnu/h-i686-mingw32/bin/../lib/gcc/nios2-elf/4.1.2/../../../../nios2-elf/lib/mno-hw-mul\libc.a(lib_a-memcmp.o)
 .debug_aranges
                0x00000d38       0x20 f:/quatus/nios2eds/bin/gnu/h-i686-mingw32/bin/../lib/gcc/nios2-elf/4.1.2/../../../../nios2-elf/lib/mno-hw-mul\libc.a(lib_a-__atexit.o)
 .debug_aranges
                0x00000d58       0x20 f:/quatus/nios2eds/bin/gnu/h-i686-mingw32/bin/../lib/gcc/nios2-elf/4.1.2/../../../../nios2-elf/lib/mno-hw-mul\libc.a(lib_a-__call_atexit.o)
 .debug_aranges
                0x00000d78       0x20 ../1223_bsp/\libhal_bsp.a(alt_exit.o)

.debug_pubnames
                0x00000000     0x1601
 *(.debug_pubnames)
 .debug_pubnames
                0x00000000       0xc1 obj/default/count_binary.o
 .debug_pubnames
                0x000000c1       0x2b f:/quatus/nios2eds/bin/gnu/h-i686-mingw32/bin/../lib/gcc/nios2-elf/4.1.2/../../../../nios2-elf/lib/mno-hw-mul\libc.a(lib_a-printf.o)
 .debug_pubnames
                0x000000ec       0x27 f:/quatus/nios2eds/bin/gnu/h-i686-mingw32/bin/../lib/gcc/nios2-elf/4.1.2/../../../../nios2-elf/lib/mno-hw-mul\libc.a(lib_a-puts.o)
 .debug_pubnames
                0x00000113       0x25 f:/quatus/nios2eds/bin/gnu/h-i686-mingw32/bin/../lib/gcc/nios2-elf/4.1.2/../../../../nios2-elf/lib/mno-hw-mul\libc.a(lib_a-rand.o)
 .debug_pubnames
                0x00000138       0x1d f:/quatus/nios2eds/bin/gnu/h-i686-mingw32/bin/../lib/gcc/nios2-elf/4.1.2/../../../../nios2-elf/lib/mno-hw-mul\libc.a(lib_a-strlen.o)
 .debug_pubnames
                0x00000155       0x1b f:/quatus/nios2eds/bin/gnu/h-i686-mingw32/bin/../lib/gcc/nios2-elf/4.1.2/../../../../nios2-elf/lib/mno-hw-mul\libc.a(lib_a-time.o)
 .debug_pubnames
                0x00000170       0x45 f:/quatus/nios2eds/bin/gnu/h-i686-mingw32/bin/../lib/gcc/nios2-elf/4.1.2/../../../../nios2-elf/lib/mno-hw-mul\libc.a(lib_a-vfprintf.o)
 .debug_pubnames
                0x000001b5       0x22 f:/quatus/nios2eds/bin/gnu/h-i686-mingw32/bin/../lib/gcc/nios2-elf/4.1.2/../../../../nios2-elf/lib/mno-hw-mul\libc.a(lib_a-wsetup.o)
 .debug_pubnames
                0x000001d7       0x1e f:/quatus/nios2eds/bin/gnu/h-i686-mingw32/bin/../lib/gcc/nios2-elf/4.1.2/../../../../nios2-elf/lib/mno-hw-mul\libc.a(lib_a-dtoa.o)
 .debug_pubnames
                0x000001f5       0x2b f:/quatus/nios2eds/bin/gnu/h-i686-mingw32/bin/../lib/gcc/nios2-elf/4.1.2/../../../../nios2-elf/lib/mno-hw-mul\libc.a(lib_a-fflush.o)
 .debug_pubnames
                0x00000220       0xdb f:/quatus/nios2eds/bin/gnu/h-i686-mingw32/bin/../lib/gcc/nios2-elf/4.1.2/../../../../nios2-elf/lib/mno-hw-mul\libc.a(lib_a-findfp.o)
 .debug_pubnames
                0x000002fb       0x31 f:/quatus/nios2eds/bin/gnu/h-i686-mingw32/bin/../lib/gcc/nios2-elf/4.1.2/../../../../nios2-elf/lib/mno-hw-mul\libc.a(lib_a-freer.o)
 .debug_pubnames
                0x0000032c       0x23 f:/quatus/nios2eds/bin/gnu/h-i686-mingw32/bin/../lib/gcc/nios2-elf/4.1.2/../../../../nios2-elf/lib/mno-hw-mul\libc.a(lib_a-fvwrite.o)
 .debug_pubnames
                0x0000034f       0x2e f:/quatus/nios2eds/bin/gnu/h-i686-mingw32/bin/../lib/gcc/nios2-elf/4.1.2/../../../../nios2-elf/lib/mno-hw-mul\libc.a(lib_a-fwalk.o)
 .debug_pubnames
                0x0000037d       0x26 f:/quatus/nios2eds/bin/gnu/h-i686-mingw32/bin/../lib/gcc/nios2-elf/4.1.2/../../../../nios2-elf/lib/mno-hw-mul\libc.a(lib_a-gettimeofdayr.o)
 .debug_pubnames
                0x000003a3       0x39 f:/quatus/nios2eds/bin/gnu/h-i686-mingw32/bin/../lib/gcc/nios2-elf/4.1.2/../../../../nios2-elf/lib/mno-hw-mul\libc.a(lib_a-impure.o)
 .debug_pubnames
                0x000003dc       0x1c f:/quatus/nios2eds/bin/gnu/h-i686-mingw32/bin/../lib/gcc/nios2-elf/4.1.2/../../../../nios2-elf/lib/mno-hw-mul\libc.a(lib_a-int_errno.o)
 .debug_pubnames
                0x000003f8       0xc3 f:/quatus/nios2eds/bin/gnu/h-i686-mingw32/bin/../lib/gcc/nios2-elf/4.1.2/../../../../nios2-elf/lib/mno-hw-mul\libc.a(lib_a-locale.o)
 .debug_pubnames
                0x000004bb       0x23 f:/quatus/nios2eds/bin/gnu/h-i686-mingw32/bin/../lib/gcc/nios2-elf/4.1.2/../../../../nios2-elf/lib/mno-hw-mul\libc.a(lib_a-makebuf.o)
 .debug_pubnames
                0x000004de       0xce f:/quatus/nios2eds/bin/gnu/h-i686-mingw32/bin/../lib/gcc/nios2-elf/4.1.2/../../../../nios2-elf/lib/mno-hw-mul\libc.a(lib_a-mallocr.o)
 .debug_pubnames
                0x000005ac       0x1d f:/quatus/nios2eds/bin/gnu/h-i686-mingw32/bin/../lib/gcc/nios2-elf/4.1.2/../../../../nios2-elf/lib/mno-hw-mul\libc.a(lib_a-memchr.o)
 .debug_pubnames
                0x000005c9       0x1d f:/quatus/nios2eds/bin/gnu/h-i686-mingw32/bin/../lib/gcc/nios2-elf/4.1.2/../../../../nios2-elf/lib/mno-hw-mul\libc.a(lib_a-memcpy.o)
 .debug_pubnames
                0x000005e6       0x1e f:/quatus/nios2eds/bin/gnu/h-i686-mingw32/bin/../lib/gcc/nios2-elf/4.1.2/../../../../nios2-elf/lib/mno-hw-mul\libc.a(lib_a-memmove.o)
 .debug_pubnames
                0x00000604       0x1d f:/quatus/nios2eds/bin/gnu/h-i686-mingw32/bin/../lib/gcc/nios2-elf/4.1.2/../../../../nios2-elf/lib/mno-hw-mul\libc.a(lib_a-memset.o)
 .debug_pubnames
                0x00000621      0x13a f:/quatus/nios2eds/bin/gnu/h-i686-mingw32/bin/../lib/gcc/nios2-elf/4.1.2/../../../../nios2-elf/lib/mno-hw-mul\libc.a(lib_a-mprec.o)
 .debug_pubnames
                0x0000075b       0x21 f:/quatus/nios2eds/bin/gnu/h-i686-mingw32/bin/../lib/gcc/nios2-elf/4.1.2/../../../../nios2-elf/lib/mno-hw-mul\libc.a(lib_a-reallocr.o)
 .debug_pubnames
                0x0000077c       0x1f f:/quatus/nios2eds/bin/gnu/h-i686-mingw32/bin/../lib/gcc/nios2-elf/4.1.2/../../../../nios2-elf/lib/mno-hw-mul\libc.a(lib_a-s_isinfd.o)
 .debug_pubnames
                0x0000079b       0x1f f:/quatus/nios2eds/bin/gnu/h-i686-mingw32/bin/../lib/gcc/nios2-elf/4.1.2/../../../../nios2-elf/lib/mno-hw-mul\libc.a(lib_a-s_isnand.o)
 .debug_pubnames
                0x000007ba       0x1e f:/quatus/nios2eds/bin/gnu/h-i686-mingw32/bin/../lib/gcc/nios2-elf/4.1.2/../../../../nios2-elf/lib/mno-hw-mul\libc.a(lib_a-sbrkr.o)
 .debug_pubnames
                0x000007d8       0x44 f:/quatus/nios2eds/bin/gnu/h-i686-mingw32/bin/../lib/gcc/nios2-elf/4.1.2/../../../../nios2-elf/lib/mno-hw-mul\libc.a(lib_a-stdio.o)
 .debug_pubnames
                0x0000081c       0x1d f:/quatus/nios2eds/bin/gnu/h-i686-mingw32/bin/../lib/gcc/nios2-elf/4.1.2/../../../../nios2-elf/lib/mno-hw-mul\libc.a(lib_a-strcmp.o)
 .debug_pubnames
                0x00000839       0x1f f:/quatus/nios2eds/bin/gnu/h-i686-mingw32/bin/../lib/gcc/nios2-elf/4.1.2/../../../../nios2-elf/lib/mno-hw-mul\libc.a(lib_a-writer.o)
 .debug_pubnames
                0x00000858       0x20 f:/quatus/nios2eds/bin/gnu/h-i686-mingw32/bin/../lib/gcc/nios2-elf/4.1.2/../../../../nios2-elf/lib/mno-hw-mul\libc.a(lib_a-callocr.o)
 .debug_pubnames
                0x00000878       0x1f f:/quatus/nios2eds/bin/gnu/h-i686-mingw32/bin/../lib/gcc/nios2-elf/4.1.2/../../../../nios2-elf/lib/mno-hw-mul\libc.a(lib_a-closer.o)
 .debug_pubnames
                0x00000897       0x2b f:/quatus/nios2eds/bin/gnu/h-i686-mingw32/bin/../lib/gcc/nios2-elf/4.1.2/../../../../nios2-elf/lib/mno-hw-mul\libc.a(lib_a-fclose.o)
 .debug_pubnames
                0x000008c2       0x1f f:/quatus/nios2eds/bin/gnu/h-i686-mingw32/bin/../lib/gcc/nios2-elf/4.1.2/../../../../nios2-elf/lib/mno-hw-mul\libc.a(lib_a-fstatr.o)
 .debug_pubnames
                0x000008e1       0x20 f:/quatus/nios2eds/bin/gnu/h-i686-mingw32/bin/../lib/gcc/nios2-elf/4.1.2/../../../../nios2-elf/lib/mno-hw-mul\libc.a(lib_a-isattyr.o)
 .debug_pubnames
                0x00000901       0x1f f:/quatus/nios2eds/bin/gnu/h-i686-mingw32/bin/../lib/gcc/nios2-elf/4.1.2/../../../../nios2-elf/lib/mno-hw-mul\libc.a(lib_a-lseekr.o)
 .debug_pubnames
                0x00000920       0x1e f:/quatus/nios2eds/bin/gnu/h-i686-mingw32/bin/../lib/gcc/nios2-elf/4.1.2/../../../../nios2-elf/lib/mno-hw-mul\libc.a(lib_a-readr.o)
 .debug_pubnames
                0x0000093e       0x1f f:/quatus/nios2eds/bin/gnu/h-i686-mingw32/bin/../lib/gcc/nios2-elf/4.1.2/mno-hw-mul\libgcc.a(_muldi3.o)
 .debug_pubnames
                0x0000095d       0x20 f:/quatus/nios2eds/bin/gnu/h-i686-mingw32/bin/../lib/gcc/nios2-elf/4.1.2/mno-hw-mul\libgcc.a(_udivdi3.o)
 .debug_pubnames
                0x0000097d       0x20 f:/quatus/nios2eds/bin/gnu/h-i686-mingw32/bin/../lib/gcc/nios2-elf/4.1.2/mno-hw-mul\libgcc.a(_umoddi3.o)
 .debug_pubnames
                0x0000099d       0x2c f:/quatus/nios2eds/bin/gnu/h-i686-mingw32/bin/../lib/gcc/nios2-elf/4.1.2/mno-hw-mul\libgcc.a(_addsub_df.o)
 .debug_pubnames
                0x000009c9       0x1f f:/quatus/nios2eds/bin/gnu/h-i686-mingw32/bin/../lib/gcc/nios2-elf/4.1.2/mno-hw-mul\libgcc.a(_mul_df.o)
 .debug_pubnames
                0x000009e8       0x1f f:/quatus/nios2eds/bin/gnu/h-i686-mingw32/bin/../lib/gcc/nios2-elf/4.1.2/mno-hw-mul\libgcc.a(_div_df.o)
 .debug_pubnames
                0x00000a07       0x1e f:/quatus/nios2eds/bin/gnu/h-i686-mingw32/bin/../lib/gcc/nios2-elf/4.1.2/mno-hw-mul\libgcc.a(_eq_df.o)
 .debug_pubnames
                0x00000a25       0x1e f:/quatus/nios2eds/bin/gnu/h-i686-mingw32/bin/../lib/gcc/nios2-elf/4.1.2/mno-hw-mul\libgcc.a(_ne_df.o)
 .debug_pubnames
                0x00000a43       0x1e f:/quatus/nios2eds/bin/gnu/h-i686-mingw32/bin/../lib/gcc/nios2-elf/4.1.2/mno-hw-mul\libgcc.a(_gt_df.o)
 .debug_pubnames
                0x00000a61       0x1e f:/quatus/nios2eds/bin/gnu/h-i686-mingw32/bin/../lib/gcc/nios2-elf/4.1.2/mno-hw-mul\libgcc.a(_ge_df.o)
 .debug_pubnames
                0x00000a7f       0x1e f:/quatus/nios2eds/bin/gnu/h-i686-mingw32/bin/../lib/gcc/nios2-elf/4.1.2/mno-hw-mul\libgcc.a(_lt_df.o)
 .debug_pubnames
                0x00000a9d       0x22 f:/quatus/nios2eds/bin/gnu/h-i686-mingw32/bin/../lib/gcc/nios2-elf/4.1.2/mno-hw-mul\libgcc.a(_si_to_df.o)
 .debug_pubnames
                0x00000abf       0x20 f:/quatus/nios2eds/bin/gnu/h-i686-mingw32/bin/../lib/gcc/nios2-elf/4.1.2/mno-hw-mul\libgcc.a(_df_to_si.o)
 .debug_pubnames
                0x00000adf       0x22 f:/quatus/nios2eds/bin/gnu/h-i686-mingw32/bin/../lib/gcc/nios2-elf/4.1.2/mno-hw-mul\libgcc.a(_thenan_df.o)
 .debug_pubnames
                0x00000b01       0x24 f:/quatus/nios2eds/bin/gnu/h-i686-mingw32/bin/../lib/gcc/nios2-elf/4.1.2/mno-hw-mul\libgcc.a(_usi_to_df.o)
 .debug_pubnames
                0x00000b25       0x48 f:/quatus/nios2eds/bin/gnu/h-i686-mingw32/bin/../lib/gcc/nios2-elf/4.1.2/mno-hw-mul\libgcc.a(lib2-divmod.o)
 .debug_pubnames
                0x00000b6d       0x1f f:/quatus/nios2eds/bin/gnu/h-i686-mingw32/bin/../lib/gcc/nios2-elf/4.1.2/mno-hw-mul\libgcc.a(lib2-mul.o)
 .debug_pubnames
                0x00000b8c       0x20 f:/quatus/nios2eds/bin/gnu/h-i686-mingw32/bin/../lib/gcc/nios2-elf/4.1.2/mno-hw-mul\libgcc.a(_clz.o)
 .debug_pubnames
                0x00000bac       0x1f f:/quatus/nios2eds/bin/gnu/h-i686-mingw32/bin/../lib/gcc/nios2-elf/4.1.2/mno-hw-mul\libgcc.a(_clzsi2.o)
 .debug_pubnames
                0x00000bcb       0x1f f:/quatus/nios2eds/bin/gnu/h-i686-mingw32/bin/../lib/gcc/nios2-elf/4.1.2/mno-hw-mul\libgcc.a(_pack_df.o)
 .debug_pubnames
                0x00000bea       0x21 f:/quatus/nios2eds/bin/gnu/h-i686-mingw32/bin/../lib/gcc/nios2-elf/4.1.2/mno-hw-mul\libgcc.a(_unpack_df.o)
 .debug_pubnames
                0x00000c0b       0x26 f:/quatus/nios2eds/bin/gnu/h-i686-mingw32/bin/../lib/gcc/nios2-elf/4.1.2/mno-hw-mul\libgcc.a(_fpcmp_parts_df.o)
 .debug_pubnames
                0x00000c31       0x1c ../1223_bsp/\libhal_bsp.a(alt_close.o)
 .debug_pubnames
                0x00000c4d       0x63 ../1223_bsp/\libhal_bsp.a(alt_dev.o)
 .debug_pubnames
                0x00000cb0       0x20 ../1223_bsp/\libhal_bsp.a(alt_errno.o)
 .debug_pubnames
                0x00000cd0       0x1c ../1223_bsp/\libhal_bsp.a(alt_fstat.o)
 .debug_pubnames
                0x00000cec       0x46 ../1223_bsp/\libhal_bsp.a(alt_gettod.o)
 .debug_pubnames
                0x00000d32       0x27 ../1223_bsp/\libhal_bsp.a(alt_irq_register.o)
 .debug_pubnames
                0x00000d59       0x3b ../1223_bsp/\libhal_bsp.a(alt_irq_vars.o)
 .debug_pubnames
                0x00000d94       0x1d ../1223_bsp/\libhal_bsp.a(alt_isatty.o)
 .debug_pubnames
                0x00000db1       0x1f ../1223_bsp/\libhal_bsp.a(alt_load.o)
 .debug_pubnames
                0x00000dd0       0x1c ../1223_bsp/\libhal_bsp.a(alt_lseek.o)
 .debug_pubnames
                0x00000dec       0x46 ../1223_bsp/\libhal_bsp.a(alt_main.o)
 .debug_pubnames
                0x00000e32       0x38 ../1223_bsp/\libhal_bsp.a(alt_malloc_lock.o)
 .debug_pubnames
                0x00000e6a       0x1b ../1223_bsp/\libhal_bsp.a(alt_read.o)
 .debug_pubnames
                0x00000e85       0x25 ../1223_bsp/\libhal_bsp.a(alt_release_fd.o)
 .debug_pubnames
                0x00000eaa       0x1b ../1223_bsp/\libhal_bsp.a(alt_sbrk.o)
 .debug_pubnames
                0x00000ec5       0x68 ../1223_bsp/\libhal_bsp.a(alt_tick.o)
 .debug_pubnames
                0x00000f2d       0x1d ../1223_bsp/\libhal_bsp.a(alt_usleep.o)
 .debug_pubnames
                0x00000f4a       0x1c ../1223_bsp/\libhal_bsp.a(alt_write.o)
 .debug_pubnames
                0x00000f66       0x34 ../1223_bsp/\libhal_bsp.a(alt_sys_init.o)
 .debug_pubnames
                0x00000f9a       0xce ../1223_bsp/\libhal_bsp.a(altera_avalon_dma.o)
 .debug_pubnames
                0x00001068       0xa5 ../1223_bsp/\libhal_bsp.a(altera_avalon_jtag_uart_fd.o)
 .debug_pubnames
                0x0000110d       0x55 ../1223_bsp/\libhal_bsp.a(altera_avalon_jtag_uart_init.o)
 .debug_pubnames
                0x00001162       0x34 ../1223_bsp/\libhal_bsp.a(altera_avalon_jtag_uart_ioctl.o)
 .debug_pubnames
                0x00001196       0x33 ../1223_bsp/\libhal_bsp.a(altera_avalon_jtag_uart_read.o)
 .debug_pubnames
                0x000011c9       0x34 ../1223_bsp/\libhal_bsp.a(altera_avalon_jtag_uart_write.o)
 .debug_pubnames
                0x000011fd       0x26 ../1223_bsp/\libhal_bsp.a(alt_alarm_start.o)
 .debug_pubnames
                0x00001223       0x25 ../1223_bsp/\libhal_bsp.a(alt_busy_sleep.o)
 .debug_pubnames
                0x00001248       0x2b ../1223_bsp/\libhal_bsp.a(alt_dcache_flush_all.o)
 .debug_pubnames
                0x00001273       0x2b ../1223_bsp/\libhal_bsp.a(alt_dev_llist_insert.o)
 .debug_pubnames
                0x0000129e       0x42 ../1223_bsp/\libhal_bsp.a(alt_dma_rxchan_open.o)
 .debug_pubnames
                0x000012e0       0x42 ../1223_bsp/\libhal_bsp.a(alt_dma_txchan_open.o)
 .debug_pubnames
                0x00001322       0x20 ../1223_bsp/\libhal_bsp.a(alt_do_ctors.o)
 .debug_pubnames
                0x00001342       0x20 ../1223_bsp/\libhal_bsp.a(alt_do_dtors.o)
 .debug_pubnames
                0x00001362       0x23 ../1223_bsp/\libhal_bsp.a(alt_find_dev.o)
 .debug_pubnames
                0x00001385       0x2b ../1223_bsp/\libhal_bsp.a(alt_icache_flush_all.o)
 .debug_pubnames
                0x000013b0       0x6e ../1223_bsp/\libhal_bsp.a(alt_iic.o)
 .debug_pubnames
                0x0000141e       0x2b ../1223_bsp/\libhal_bsp.a(alt_iic_isr_register.o)
 .debug_pubnames
                0x00001449       0x26 ../1223_bsp/\libhal_bsp.a(alt_io_redirect.o)
 .debug_pubnames
                0x0000146f       0x32 ../1223_bsp/\libhal_bsp.a(alt_irq_handler.o)
 .debug_pubnames
                0x000014a1       0x1b ../1223_bsp/\libhal_bsp.a(alt_open.o)
 .debug_pubnames
                0x000014bc       0x31 ../1223_bsp/\libhal_bsp.a(altera_nios2_qsys_irq.o)
 .debug_pubnames
                0x000014ed       0x24 ../1223_bsp/\libhal_bsp.a(alt_find_file.o)
 .debug_pubnames
                0x00001511       0x21 ../1223_bsp/\libhal_bsp.a(alt_get_fd.o)
 .debug_pubnames
                0x00001532       0x2a f:/quatus/nios2eds/bin/gnu/h-i686-mingw32/bin/../lib/gcc/nios2-elf/4.1.2/../../../../nios2-elf/lib/mno-hw-mul\libc.a(lib_a-atexit.o)
 .debug_pubnames
                0x0000155c       0x1b f:/quatus/nios2eds/bin/gnu/h-i686-mingw32/bin/../lib/gcc/nios2-elf/4.1.2/../../../../nios2-elf/lib/mno-hw-mul\libc.a(lib_a-exit.o)
 .debug_pubnames
                0x00001577       0x1d f:/quatus/nios2eds/bin/gnu/h-i686-mingw32/bin/../lib/gcc/nios2-elf/4.1.2/../../../../nios2-elf/lib/mno-hw-mul\libc.a(lib_a-memcmp.o)
 .debug_pubnames
                0x00001594       0x2a f:/quatus/nios2eds/bin/gnu/h-i686-mingw32/bin/../lib/gcc/nios2-elf/4.1.2/../../../../nios2-elf/lib/mno-hw-mul\libc.a(lib_a-__atexit.o)
 .debug_pubnames
                0x000015be       0x27 f:/quatus/nios2eds/bin/gnu/h-i686-mingw32/bin/../lib/gcc/nios2-elf/4.1.2/../../../../nios2-elf/lib/mno-hw-mul\libc.a(lib_a-__call_atexit.o)
 .debug_pubnames
                0x000015e5       0x1c ../1223_bsp/\libhal_bsp.a(alt_exit.o)

.debug_info     0x00000000    0x2689d
 *(.debug_info .gnu.linkonce.wi.*)
 .debug_info    0x00000000       0x66 ../1223_bsp//obj/HAL/src/crt0.o
 .debug_info    0x00000066      0x550 obj/default/count_binary.o
 .debug_info    0x000005b6      0x9d1 f:/quatus/nios2eds/bin/gnu/h-i686-mingw32/bin/../lib/gcc/nios2-elf/4.1.2/../../../../nios2-elf/lib/mno-hw-mul\libc.a(lib_a-printf.o)
 .debug_info    0x00000f87      0xa25 f:/quatus/nios2eds/bin/gnu/h-i686-mingw32/bin/../lib/gcc/nios2-elf/4.1.2/../../../../nios2-elf/lib/mno-hw-mul\libc.a(lib_a-puts.o)
 .debug_info    0x000019ac      0x951 f:/quatus/nios2eds/bin/gnu/h-i686-mingw32/bin/../lib/gcc/nios2-elf/4.1.2/../../../../nios2-elf/lib/mno-hw-mul\libc.a(lib_a-rand.o)
 .debug_info    0x000022fd       0xdb f:/quatus/nios2eds/bin/gnu/h-i686-mingw32/bin/../lib/gcc/nios2-elf/4.1.2/../../../../nios2-elf/lib/mno-hw-mul\libc.a(lib_a-strlen.o)
 .debug_info    0x000023d8      0x98f f:/quatus/nios2eds/bin/gnu/h-i686-mingw32/bin/../lib/gcc/nios2-elf/4.1.2/../../../../nios2-elf/lib/mno-hw-mul\libc.a(lib_a-time.o)
 .debug_info    0x00002d67     0x10d5 f:/quatus/nios2eds/bin/gnu/h-i686-mingw32/bin/../lib/gcc/nios2-elf/4.1.2/../../../../nios2-elf/lib/mno-hw-mul\libc.a(lib_a-vfprintf.o)
 .debug_info    0x00003e3c      0x95d f:/quatus/nios2eds/bin/gnu/h-i686-mingw32/bin/../lib/gcc/nios2-elf/4.1.2/../../../../nios2-elf/lib/mno-hw-mul\libc.a(lib_a-wsetup.o)
 .debug_info    0x00004799      0xd6f f:/quatus/nios2eds/bin/gnu/h-i686-mingw32/bin/../lib/gcc/nios2-elf/4.1.2/../../../../nios2-elf/lib/mno-hw-mul\libc.a(lib_a-dtoa.o)
 .debug_info    0x00005508      0x9fe f:/quatus/nios2eds/bin/gnu/h-i686-mingw32/bin/../lib/gcc/nios2-elf/4.1.2/../../../../nios2-elf/lib/mno-hw-mul\libc.a(lib_a-fflush.o)
 .debug_info    0x00005f06      0xb72 f:/quatus/nios2eds/bin/gnu/h-i686-mingw32/bin/../lib/gcc/nios2-elf/4.1.2/../../../../nios2-elf/lib/mno-hw-mul\libc.a(lib_a-findfp.o)
 .debug_info    0x00006a78      0xbc9 f:/quatus/nios2eds/bin/gnu/h-i686-mingw32/bin/../lib/gcc/nios2-elf/4.1.2/../../../../nios2-elf/lib/mno-hw-mul\libc.a(lib_a-freer.o)
 .debug_info    0x00007641      0xa88 f:/quatus/nios2eds/bin/gnu/h-i686-mingw32/bin/../lib/gcc/nios2-elf/4.1.2/../../../../nios2-elf/lib/mno-hw-mul\libc.a(lib_a-fvwrite.o)
 .debug_info    0x000080c9      0xaed f:/quatus/nios2eds/bin/gnu/h-i686-mingw32/bin/../lib/gcc/nios2-elf/4.1.2/../../../../nios2-elf/lib/mno-hw-mul\libc.a(lib_a-fwalk.o)
 .debug_info    0x00008bb6      0x9ad f:/quatus/nios2eds/bin/gnu/h-i686-mingw32/bin/../lib/gcc/nios2-elf/4.1.2/../../../../nios2-elf/lib/mno-hw-mul\libc.a(lib_a-gettimeofdayr.o)
 .debug_info    0x00009563      0x93d f:/quatus/nios2eds/bin/gnu/h-i686-mingw32/bin/../lib/gcc/nios2-elf/4.1.2/../../../../nios2-elf/lib/mno-hw-mul\libc.a(lib_a-impure.o)
 .debug_info    0x00009ea0       0x8c f:/quatus/nios2eds/bin/gnu/h-i686-mingw32/bin/../lib/gcc/nios2-elf/4.1.2/../../../../nios2-elf/lib/mno-hw-mul\libc.a(lib_a-int_errno.o)
 .debug_info    0x00009f2c      0xb97 f:/quatus/nios2eds/bin/gnu/h-i686-mingw32/bin/../lib/gcc/nios2-elf/4.1.2/../../../../nios2-elf/lib/mno-hw-mul\libc.a(lib_a-locale.o)
 .debug_info    0x0000aac3      0xb1a f:/quatus/nios2eds/bin/gnu/h-i686-mingw32/bin/../lib/gcc/nios2-elf/4.1.2/../../../../nios2-elf/lib/mno-hw-mul\libc.a(lib_a-makebuf.o)
 .debug_info    0x0000b5dd      0xcd0 f:/quatus/nios2eds/bin/gnu/h-i686-mingw32/bin/../lib/gcc/nios2-elf/4.1.2/../../../../nios2-elf/lib/mno-hw-mul\libc.a(lib_a-mallocr.o)
 .debug_info    0x0000c2ad      0x138 f:/quatus/nios2eds/bin/gnu/h-i686-mingw32/bin/../lib/gcc/nios2-elf/4.1.2/../../../../nios2-elf/lib/mno-hw-mul\libc.a(lib_a-memchr.o)
 .debug_info    0x0000c3e5      0x106 f:/quatus/nios2eds/bin/gnu/h-i686-mingw32/bin/../lib/gcc/nios2-elf/4.1.2/../../../../nios2-elf/lib/mno-hw-mul\libc.a(lib_a-memcpy.o)
 .debug_info    0x0000c4eb      0x13e f:/quatus/nios2eds/bin/gnu/h-i686-mingw32/bin/../lib/gcc/nios2-elf/4.1.2/../../../../nios2-elf/lib/mno-hw-mul\libc.a(lib_a-memmove.o)
 .debug_info    0x0000c629      0x113 f:/quatus/nios2eds/bin/gnu/h-i686-mingw32/bin/../lib/gcc/nios2-elf/4.1.2/../../../../nios2-elf/lib/mno-hw-mul\libc.a(lib_a-memset.o)
 .debug_info    0x0000c73c     0x143b f:/quatus/nios2eds/bin/gnu/h-i686-mingw32/bin/../lib/gcc/nios2-elf/4.1.2/../../../../nios2-elf/lib/mno-hw-mul\libc.a(lib_a-mprec.o)
 .debug_info    0x0000db77      0xbd7 f:/quatus/nios2eds/bin/gnu/h-i686-mingw32/bin/../lib/gcc/nios2-elf/4.1.2/../../../../nios2-elf/lib/mno-hw-mul\libc.a(lib_a-reallocr.o)
 .debug_info    0x0000e74e       0xd7 f:/quatus/nios2eds/bin/gnu/h-i686-mingw32/bin/../lib/gcc/nios2-elf/4.1.2/../../../../nios2-elf/lib/mno-hw-mul\libc.a(lib_a-s_isinfd.o)
 .debug_info    0x0000e825       0xd5 f:/quatus/nios2eds/bin/gnu/h-i686-mingw32/bin/../lib/gcc/nios2-elf/4.1.2/../../../../nios2-elf/lib/mno-hw-mul\libc.a(lib_a-s_isnand.o)
 .debug_info    0x0000e8fa      0x962 f:/quatus/nios2eds/bin/gnu/h-i686-mingw32/bin/../lib/gcc/nios2-elf/4.1.2/../../../../nios2-elf/lib/mno-hw-mul\libc.a(lib_a-sbrkr.o)
 .debug_info    0x0000f25c      0xaac f:/quatus/nios2eds/bin/gnu/h-i686-mingw32/bin/../lib/gcc/nios2-elf/4.1.2/../../../../nios2-elf/lib/mno-hw-mul\libc.a(lib_a-stdio.o)
 .debug_info    0x0000fd08       0xdd f:/quatus/nios2eds/bin/gnu/h-i686-mingw32/bin/../lib/gcc/nios2-elf/4.1.2/../../../../nios2-elf/lib/mno-hw-mul\libc.a(lib_a-strcmp.o)
 .debug_info    0x0000fde5      0x993 f:/quatus/nios2eds/bin/gnu/h-i686-mingw32/bin/../lib/gcc/nios2-elf/4.1.2/../../../../nios2-elf/lib/mno-hw-mul\libc.a(lib_a-writer.o)
 .debug_info    0x00010778      0xa1b f:/quatus/nios2eds/bin/gnu/h-i686-mingw32/bin/../lib/gcc/nios2-elf/4.1.2/../../../../nios2-elf/lib/mno-hw-mul\libc.a(lib_a-callocr.o)
 .debug_info    0x00011193      0x958 f:/quatus/nios2eds/bin/gnu/h-i686-mingw32/bin/../lib/gcc/nios2-elf/4.1.2/../../../../nios2-elf/lib/mno-hw-mul\libc.a(lib_a-closer.o)
 .debug_info    0x00011aeb      0x994 f:/quatus/nios2eds/bin/gnu/h-i686-mingw32/bin/../lib/gcc/nios2-elf/4.1.2/../../../../nios2-elf/lib/mno-hw-mul\libc.a(lib_a-fclose.o)
 .debug_info    0x0001247f      0xafc f:/quatus/nios2eds/bin/gnu/h-i686-mingw32/bin/../lib/gcc/nios2-elf/4.1.2/../../../../nios2-elf/lib/mno-hw-mul\libc.a(lib_a-fstatr.o)
 .debug_info    0x00012f7b      0x958 f:/quatus/nios2eds/bin/gnu/h-i686-mingw32/bin/../lib/gcc/nios2-elf/4.1.2/../../../../nios2-elf/lib/mno-hw-mul\libc.a(lib_a-isattyr.o)
 .debug_info    0x000138d3      0x981 f:/quatus/nios2eds/bin/gnu/h-i686-mingw32/bin/../lib/gcc/nios2-elf/4.1.2/../../../../nios2-elf/lib/mno-hw-mul\libc.a(lib_a-lseekr.o)
 .debug_info    0x00014254      0x98c f:/quatus/nios2eds/bin/gnu/h-i686-mingw32/bin/../lib/gcc/nios2-elf/4.1.2/../../../../nios2-elf/lib/mno-hw-mul\libc.a(lib_a-readr.o)
 .debug_info    0x00014be0      0x210 f:/quatus/nios2eds/bin/gnu/h-i686-mingw32/bin/../lib/gcc/nios2-elf/4.1.2/mno-hw-mul\libgcc.a(_muldi3.o)
 .debug_info    0x00014df0      0x71c f:/quatus/nios2eds/bin/gnu/h-i686-mingw32/bin/../lib/gcc/nios2-elf/4.1.2/mno-hw-mul\libgcc.a(_udivdi3.o)
 .debug_info    0x0001550c      0x749 f:/quatus/nios2eds/bin/gnu/h-i686-mingw32/bin/../lib/gcc/nios2-elf/4.1.2/mno-hw-mul\libgcc.a(_umoddi3.o)
 .debug_info    0x00015c55      0x493 f:/quatus/nios2eds/bin/gnu/h-i686-mingw32/bin/../lib/gcc/nios2-elf/4.1.2/mno-hw-mul\libgcc.a(_addsub_df.o)
 .debug_info    0x000160e8      0x488 f:/quatus/nios2eds/bin/gnu/h-i686-mingw32/bin/../lib/gcc/nios2-elf/4.1.2/mno-hw-mul\libgcc.a(_mul_df.o)
 .debug_info    0x00016570      0x39b f:/quatus/nios2eds/bin/gnu/h-i686-mingw32/bin/../lib/gcc/nios2-elf/4.1.2/mno-hw-mul\libgcc.a(_div_df.o)
 .debug_info    0x0001690b      0x29d f:/quatus/nios2eds/bin/gnu/h-i686-mingw32/bin/../lib/gcc/nios2-elf/4.1.2/mno-hw-mul\libgcc.a(_eq_df.o)
 .debug_info    0x00016ba8      0x29d f:/quatus/nios2eds/bin/gnu/h-i686-mingw32/bin/../lib/gcc/nios2-elf/4.1.2/mno-hw-mul\libgcc.a(_ne_df.o)
 .debug_info    0x00016e45      0x29d f:/quatus/nios2eds/bin/gnu/h-i686-mingw32/bin/../lib/gcc/nios2-elf/4.1.2/mno-hw-mul\libgcc.a(_gt_df.o)
 .debug_info    0x000170e2      0x29d f:/quatus/nios2eds/bin/gnu/h-i686-mingw32/bin/../lib/gcc/nios2-elf/4.1.2/mno-hw-mul\libgcc.a(_ge_df.o)
 .debug_info    0x0001737f      0x29d f:/quatus/nios2eds/bin/gnu/h-i686-mingw32/bin/../lib/gcc/nios2-elf/4.1.2/mno-hw-mul\libgcc.a(_lt_df.o)
 .debug_info    0x0001761c      0x218 f:/quatus/nios2eds/bin/gnu/h-i686-mingw32/bin/../lib/gcc/nios2-elf/4.1.2/mno-hw-mul\libgcc.a(_si_to_df.o)
 .debug_info    0x00017834      0x2cd f:/quatus/nios2eds/bin/gnu/h-i686-mingw32/bin/../lib/gcc/nios2-elf/4.1.2/mno-hw-mul\libgcc.a(_df_to_si.o)
 .debug_info    0x00017b01      0x164 f:/quatus/nios2eds/bin/gnu/h-i686-mingw32/bin/../lib/gcc/nios2-elf/4.1.2/mno-hw-mul\libgcc.a(_thenan_df.o)
 .debug_info    0x00017c65      0x213 f:/quatus/nios2eds/bin/gnu/h-i686-mingw32/bin/../lib/gcc/nios2-elf/4.1.2/mno-hw-mul\libgcc.a(_usi_to_df.o)
 .debug_info    0x00017e78      0x21c f:/quatus/nios2eds/bin/gnu/h-i686-mingw32/bin/../lib/gcc/nios2-elf/4.1.2/mno-hw-mul\libgcc.a(lib2-divmod.o)
 .debug_info    0x00018094       0xf3 f:/quatus/nios2eds/bin/gnu/h-i686-mingw32/bin/../lib/gcc/nios2-elf/4.1.2/mno-hw-mul\libgcc.a(lib2-mul.o)
 .debug_info    0x00018187       0xc9 f:/quatus/nios2eds/bin/gnu/h-i686-mingw32/bin/../lib/gcc/nios2-elf/4.1.2/mno-hw-mul\libgcc.a(_clz.o)
 .debug_info    0x00018250      0x130 f:/quatus/nios2eds/bin/gnu/h-i686-mingw32/bin/../lib/gcc/nios2-elf/4.1.2/mno-hw-mul\libgcc.a(_clzsi2.o)
 .debug_info    0x00018380      0x2fc f:/quatus/nios2eds/bin/gnu/h-i686-mingw32/bin/../lib/gcc/nios2-elf/4.1.2/mno-hw-mul\libgcc.a(_pack_df.o)
 .debug_info    0x0001867c      0x268 f:/quatus/nios2eds/bin/gnu/h-i686-mingw32/bin/../lib/gcc/nios2-elf/4.1.2/mno-hw-mul\libgcc.a(_unpack_df.o)
 .debug_info    0x000188e4      0x21b f:/quatus/nios2eds/bin/gnu/h-i686-mingw32/bin/../lib/gcc/nios2-elf/4.1.2/mno-hw-mul\libgcc.a(_fpcmp_parts_df.o)
 .debug_info    0x00018aff      0x452 ../1223_bsp/\libhal_bsp.a(alt_close.o)
 .debug_info    0x00018f51      0x66a ../1223_bsp/\libhal_bsp.a(alt_dev.o)
 .debug_info    0x000195bb      0x14f ../1223_bsp/\libhal_bsp.a(alt_errno.o)
 .debug_info    0x0001970a      0x64b ../1223_bsp/\libhal_bsp.a(alt_fstat.o)
 .debug_info    0x00019d55      0x30e ../1223_bsp/\libhal_bsp.a(alt_gettod.o)
 .debug_info    0x0001a063      0x415 ../1223_bsp/\libhal_bsp.a(alt_irq_register.o)
 .debug_info    0x0001a478      0x152 ../1223_bsp/\libhal_bsp.a(alt_irq_vars.o)
 .debug_info    0x0001a5ca      0x651 ../1223_bsp/\libhal_bsp.a(alt_isatty.o)
 .debug_info    0x0001ac1b      0x278 ../1223_bsp/\libhal_bsp.a(alt_load.o)
 .debug_info    0x0001ae93      0x485 ../1223_bsp/\libhal_bsp.a(alt_lseek.o)
 .debug_info    0x0001b318      0x210 ../1223_bsp/\libhal_bsp.a(alt_main.o)
 .debug_info    0x0001b528      0xc03 ../1223_bsp/\libhal_bsp.a(alt_malloc_lock.o)
 .debug_info    0x0001c12b      0x675 ../1223_bsp/\libhal_bsp.a(alt_read.o)
 .debug_info    0x0001c7a0      0x3dd ../1223_bsp/\libhal_bsp.a(alt_release_fd.o)
 .debug_info    0x0001cb7d      0x2a2 ../1223_bsp/\libhal_bsp.a(alt_sbrk.o)
 .debug_info    0x0001ce1f      0x3e9 ../1223_bsp/\libhal_bsp.a(alt_tick.o)
 .debug_info    0x0001d208      0x153 ../1223_bsp/\libhal_bsp.a(alt_usleep.o)
 .debug_info    0x0001d35b      0x67e ../1223_bsp/\libhal_bsp.a(alt_write.o)
 .debug_info    0x0001d9d9      0xc02 ../1223_bsp/\libhal_bsp.a(alt_sys_init.o)
 .debug_info    0x0001e5db      0xd90 ../1223_bsp/\libhal_bsp.a(altera_avalon_dma.o)
 .debug_info    0x0001f36b      0x7c4 ../1223_bsp/\libhal_bsp.a(altera_avalon_jtag_uart_fd.o)
 .debug_info    0x0001fb2f      0x5ec ../1223_bsp/\libhal_bsp.a(altera_avalon_jtag_uart_init.o)
 .debug_info    0x0002011b      0x42e ../1223_bsp/\libhal_bsp.a(altera_avalon_jtag_uart_ioctl.o)
 .debug_info    0x00020549      0x531 ../1223_bsp/\libhal_bsp.a(altera_avalon_jtag_uart_read.o)
 .debug_info    0x00020a7a      0x529 ../1223_bsp/\libhal_bsp.a(altera_avalon_jtag_uart_write.o)
 .debug_info    0x00020fa3      0x42d ../1223_bsp/\libhal_bsp.a(alt_alarm_start.o)
 .debug_info    0x000213d0      0x196 ../1223_bsp/\libhal_bsp.a(alt_busy_sleep.o)
 .debug_info    0x00021566      0x147 ../1223_bsp/\libhal_bsp.a(alt_dcache_flush_all.o)
 .debug_info    0x000216ad      0x2a2 ../1223_bsp/\libhal_bsp.a(alt_dev_llist_insert.o)
 .debug_info    0x0002194f      0x39c ../1223_bsp/\libhal_bsp.a(alt_dma_rxchan_open.o)
 .debug_info    0x00021ceb      0x3b6 ../1223_bsp/\libhal_bsp.a(alt_dma_txchan_open.o)
 .debug_info    0x000220a1       0xfa ../1223_bsp/\libhal_bsp.a(alt_do_ctors.o)
 .debug_info    0x0002219b       0xf9 ../1223_bsp/\libhal_bsp.a(alt_do_dtors.o)
 .debug_info    0x00022294      0x403 ../1223_bsp/\libhal_bsp.a(alt_find_dev.o)
 .debug_info    0x00022697      0x147 ../1223_bsp/\libhal_bsp.a(alt_icache_flush_all.o)
 .debug_info    0x000227de      0x47e ../1223_bsp/\libhal_bsp.a(alt_iic.o)
 .debug_info    0x00022c5c      0x2ff ../1223_bsp/\libhal_bsp.a(alt_iic_isr_register.o)
 .debug_info    0x00022f5b      0x680 ../1223_bsp/\libhal_bsp.a(alt_io_redirect.o)
 .debug_info    0x000235db       0x6f ../1223_bsp/\libhal_bsp.a(alt_irq_entry.o)
 .debug_info    0x0002364a      0x260 ../1223_bsp/\libhal_bsp.a(alt_irq_handler.o)
 .debug_info    0x000238aa      0x510 ../1223_bsp/\libhal_bsp.a(alt_open.o)
 .debug_info    0x00023dba      0x14e ../1223_bsp/\libhal_bsp.a(altera_nios2_qsys_irq.o)
 .debug_info    0x00023f08       0x75 ../1223_bsp/\libhal_bsp.a(alt_exception_entry.o)
 .debug_info    0x00023f7d      0x40a ../1223_bsp/\libhal_bsp.a(alt_find_file.o)
 .debug_info    0x00024387      0x44b ../1223_bsp/\libhal_bsp.a(alt_get_fd.o)
 .debug_info    0x000247d2      0x181 f:/quatus/nios2eds/bin/gnu/h-i686-mingw32/bin/../lib/gcc/nios2-elf/4.1.2/../../../../nios2-elf/lib/mno-hw-mul\libc.a(lib_a-atexit.o)
 .debug_info    0x00024953      0x93f f:/quatus/nios2eds/bin/gnu/h-i686-mingw32/bin/../lib/gcc/nios2-elf/4.1.2/../../../../nios2-elf/lib/mno-hw-mul\libc.a(lib_a-exit.o)
 .debug_info    0x00025292      0x115 f:/quatus/nios2eds/bin/gnu/h-i686-mingw32/bin/../lib/gcc/nios2-elf/4.1.2/../../../../nios2-elf/lib/mno-hw-mul\libc.a(lib_a-memcmp.o)
 .debug_info    0x000253a7      0x99c f:/quatus/nios2eds/bin/gnu/h-i686-mingw32/bin/../lib/gcc/nios2-elf/4.1.2/../../../../nios2-elf/lib/mno-hw-mul\libc.a(lib_a-__atexit.o)
 .debug_info    0x00025d43      0x9e2 f:/quatus/nios2eds/bin/gnu/h-i686-mingw32/bin/../lib/gcc/nios2-elf/4.1.2/../../../../nios2-elf/lib/mno-hw-mul\libc.a(lib_a-__call_atexit.o)
 .debug_info    0x00026725      0x178 ../1223_bsp/\libhal_bsp.a(alt_exit.o)

.debug_abbrev   0x00000000     0x8459
 *(.debug_abbrev)
 .debug_abbrev  0x00000000       0x12 ../1223_bsp//obj/HAL/src/crt0.o
 .debug_abbrev  0x00000012      0x103 obj/default/count_binary.o
 .debug_abbrev  0x00000115      0x191 f:/quatus/nios2eds/bin/gnu/h-i686-mingw32/bin/../lib/gcc/nios2-elf/4.1.2/../../../../nios2-elf/lib/mno-hw-mul\libc.a(lib_a-printf.o)
 .debug_abbrev  0x000002a6      0x1ac f:/quatus/nios2eds/bin/gnu/h-i686-mingw32/bin/../lib/gcc/nios2-elf/4.1.2/../../../../nios2-elf/lib/mno-hw-mul\libc.a(lib_a-puts.o)
 .debug_abbrev  0x00000452      0x185 f:/quatus/nios2eds/bin/gnu/h-i686-mingw32/bin/../lib/gcc/nios2-elf/4.1.2/../../../../nios2-elf/lib/mno-hw-mul\libc.a(lib_a-rand.o)
 .debug_abbrev  0x000005d7       0x8b f:/quatus/nios2eds/bin/gnu/h-i686-mingw32/bin/../lib/gcc/nios2-elf/4.1.2/../../../../nios2-elf/lib/mno-hw-mul\libc.a(lib_a-strlen.o)
 .debug_abbrev  0x00000662      0x17f f:/quatus/nios2eds/bin/gnu/h-i686-mingw32/bin/../lib/gcc/nios2-elf/4.1.2/../../../../nios2-elf/lib/mno-hw-mul\libc.a(lib_a-time.o)
 .debug_abbrev  0x000007e1      0x30a f:/quatus/nios2eds/bin/gnu/h-i686-mingw32/bin/../lib/gcc/nios2-elf/4.1.2/../../../../nios2-elf/lib/mno-hw-mul\libc.a(lib_a-vfprintf.o)
 .debug_abbrev  0x00000aeb      0x170 f:/quatus/nios2eds/bin/gnu/h-i686-mingw32/bin/../lib/gcc/nios2-elf/4.1.2/../../../../nios2-elf/lib/mno-hw-mul\libc.a(lib_a-wsetup.o)
 .debug_abbrev  0x00000c5b      0x232 f:/quatus/nios2eds/bin/gnu/h-i686-mingw32/bin/../lib/gcc/nios2-elf/4.1.2/../../../../nios2-elf/lib/mno-hw-mul\libc.a(lib_a-dtoa.o)
 .debug_abbrev  0x00000e8d      0x1c6 f:/quatus/nios2eds/bin/gnu/h-i686-mingw32/bin/../lib/gcc/nios2-elf/4.1.2/../../../../nios2-elf/lib/mno-hw-mul\libc.a(lib_a-fflush.o)
 .debug_abbrev  0x00001053      0x24c f:/quatus/nios2eds/bin/gnu/h-i686-mingw32/bin/../lib/gcc/nios2-elf/4.1.2/../../../../nios2-elf/lib/mno-hw-mul\libc.a(lib_a-findfp.o)
 .debug_abbrev  0x0000129f      0x1d9 f:/quatus/nios2eds/bin/gnu/h-i686-mingw32/bin/../lib/gcc/nios2-elf/4.1.2/../../../../nios2-elf/lib/mno-hw-mul\libc.a(lib_a-freer.o)
 .debug_abbrev  0x00001478      0x1a3 f:/quatus/nios2eds/bin/gnu/h-i686-mingw32/bin/../lib/gcc/nios2-elf/4.1.2/../../../../nios2-elf/lib/mno-hw-mul\libc.a(lib_a-fvwrite.o)
 .debug_abbrev  0x0000161b      0x1e3 f:/quatus/nios2eds/bin/gnu/h-i686-mingw32/bin/../lib/gcc/nios2-elf/4.1.2/../../../../nios2-elf/lib/mno-hw-mul\libc.a(lib_a-fwalk.o)
 .debug_abbrev  0x000017fe      0x18e f:/quatus/nios2eds/bin/gnu/h-i686-mingw32/bin/../lib/gcc/nios2-elf/4.1.2/../../../../nios2-elf/lib/mno-hw-mul\libc.a(lib_a-gettimeofdayr.o)
 .debug_abbrev  0x0000198c      0x157 f:/quatus/nios2eds/bin/gnu/h-i686-mingw32/bin/../lib/gcc/nios2-elf/4.1.2/../../../../nios2-elf/lib/mno-hw-mul\libc.a(lib_a-impure.o)
 .debug_abbrev  0x00001ae3       0x3b f:/quatus/nios2eds/bin/gnu/h-i686-mingw32/bin/../lib/gcc/nios2-elf/4.1.2/../../../../nios2-elf/lib/mno-hw-mul\libc.a(lib_a-int_errno.o)
 .debug_abbrev  0x00001b1e      0x1ed f:/quatus/nios2eds/bin/gnu/h-i686-mingw32/bin/../lib/gcc/nios2-elf/4.1.2/../../../../nios2-elf/lib/mno-hw-mul\libc.a(lib_a-locale.o)
 .debug_abbrev  0x00001d0b      0x197 f:/quatus/nios2eds/bin/gnu/h-i686-mingw32/bin/../lib/gcc/nios2-elf/4.1.2/../../../../nios2-elf/lib/mno-hw-mul\libc.a(lib_a-makebuf.o)
 .debug_abbrev  0x00001ea2      0x216 f:/quatus/nios2eds/bin/gnu/h-i686-mingw32/bin/../lib/gcc/nios2-elf/4.1.2/../../../../nios2-elf/lib/mno-hw-mul\libc.a(lib_a-mallocr.o)
 .debug_abbrev  0x000020b8       0xb5 f:/quatus/nios2eds/bin/gnu/h-i686-mingw32/bin/../lib/gcc/nios2-elf/4.1.2/../../../../nios2-elf/lib/mno-hw-mul\libc.a(lib_a-memchr.o)
 .debug_abbrev  0x0000216d       0xb5 f:/quatus/nios2eds/bin/gnu/h-i686-mingw32/bin/../lib/gcc/nios2-elf/4.1.2/../../../../nios2-elf/lib/mno-hw-mul\libc.a(lib_a-memcpy.o)
 .debug_abbrev  0x00002222       0xb5 f:/quatus/nios2eds/bin/gnu/h-i686-mingw32/bin/../lib/gcc/nios2-elf/4.1.2/../../../../nios2-elf/lib/mno-hw-mul\libc.a(lib_a-memmove.o)
 .debug_abbrev  0x000022d7       0xb8 f:/quatus/nios2eds/bin/gnu/h-i686-mingw32/bin/../lib/gcc/nios2-elf/4.1.2/../../../../nios2-elf/lib/mno-hw-mul\libc.a(lib_a-memset.o)
 .debug_abbrev  0x0000238f      0x297 f:/quatus/nios2eds/bin/gnu/h-i686-mingw32/bin/../lib/gcc/nios2-elf/4.1.2/../../../../nios2-elf/lib/mno-hw-mul\libc.a(lib_a-mprec.o)
 .debug_abbrev  0x00002626      0x1c3 f:/quatus/nios2eds/bin/gnu/h-i686-mingw32/bin/../lib/gcc/nios2-elf/4.1.2/../../../../nios2-elf/lib/mno-hw-mul\libc.a(lib_a-reallocr.o)
 .debug_abbrev  0x000027e9       0x79 f:/quatus/nios2eds/bin/gnu/h-i686-mingw32/bin/../lib/gcc/nios2-elf/4.1.2/../../../../nios2-elf/lib/mno-hw-mul\libc.a(lib_a-s_isinfd.o)
 .debug_abbrev  0x00002862       0x79 f:/quatus/nios2eds/bin/gnu/h-i686-mingw32/bin/../lib/gcc/nios2-elf/4.1.2/../../../../nios2-elf/lib/mno-hw-mul\libc.a(lib_a-s_isnand.o)
 .debug_abbrev  0x000028db      0x18c f:/quatus/nios2eds/bin/gnu/h-i686-mingw32/bin/../lib/gcc/nios2-elf/4.1.2/../../../../nios2-elf/lib/mno-hw-mul\libc.a(lib_a-sbrkr.o)
 .debug_abbrev  0x00002a67      0x1c9 f:/quatus/nios2eds/bin/gnu/h-i686-mingw32/bin/../lib/gcc/nios2-elf/4.1.2/../../../../nios2-elf/lib/mno-hw-mul\libc.a(lib_a-stdio.o)
 .debug_abbrev  0x00002c30       0x80 f:/quatus/nios2eds/bin/gnu/h-i686-mingw32/bin/../lib/gcc/nios2-elf/4.1.2/../../../../nios2-elf/lib/mno-hw-mul\libc.a(lib_a-strcmp.o)
 .debug_abbrev  0x00002cb0      0x184 f:/quatus/nios2eds/bin/gnu/h-i686-mingw32/bin/../lib/gcc/nios2-elf/4.1.2/../../../../nios2-elf/lib/mno-hw-mul\libc.a(lib_a-writer.o)
 .debug_abbrev  0x00002e34      0x1b8 f:/quatus/nios2eds/bin/gnu/h-i686-mingw32/bin/../lib/gcc/nios2-elf/4.1.2/../../../../nios2-elf/lib/mno-hw-mul\libc.a(lib_a-callocr.o)
 .debug_abbrev  0x00002fec      0x17f f:/quatus/nios2eds/bin/gnu/h-i686-mingw32/bin/../lib/gcc/nios2-elf/4.1.2/../../../../nios2-elf/lib/mno-hw-mul\libc.a(lib_a-closer.o)
 .debug_abbrev  0x0000316b      0x1a7 f:/quatus/nios2eds/bin/gnu/h-i686-mingw32/bin/../lib/gcc/nios2-elf/4.1.2/../../../../nios2-elf/lib/mno-hw-mul\libc.a(lib_a-fclose.o)
 .debug_abbrev  0x00003312      0x18e f:/quatus/nios2eds/bin/gnu/h-i686-mingw32/bin/../lib/gcc/nios2-elf/4.1.2/../../../../nios2-elf/lib/mno-hw-mul\libc.a(lib_a-fstatr.o)
 .debug_abbrev  0x000034a0      0x17f f:/quatus/nios2eds/bin/gnu/h-i686-mingw32/bin/../lib/gcc/nios2-elf/4.1.2/../../../../nios2-elf/lib/mno-hw-mul\libc.a(lib_a-isattyr.o)
 .debug_abbrev  0x0000361f      0x18e f:/quatus/nios2eds/bin/gnu/h-i686-mingw32/bin/../lib/gcc/nios2-elf/4.1.2/../../../../nios2-elf/lib/mno-hw-mul\libc.a(lib_a-lseekr.o)
 .debug_abbrev  0x000037ad      0x17f f:/quatus/nios2eds/bin/gnu/h-i686-mingw32/bin/../lib/gcc/nios2-elf/4.1.2/../../../../nios2-elf/lib/mno-hw-mul\libc.a(lib_a-readr.o)
 .debug_abbrev  0x0000392c       0xfb f:/quatus/nios2eds/bin/gnu/h-i686-mingw32/bin/../lib/gcc/nios2-elf/4.1.2/mno-hw-mul\libgcc.a(_muldi3.o)
 .debug_abbrev  0x00003a27      0x16b f:/quatus/nios2eds/bin/gnu/h-i686-mingw32/bin/../lib/gcc/nios2-elf/4.1.2/mno-hw-mul\libgcc.a(_udivdi3.o)
 .debug_abbrev  0x00003b92      0x18e f:/quatus/nios2eds/bin/gnu/h-i686-mingw32/bin/../lib/gcc/nios2-elf/4.1.2/mno-hw-mul\libgcc.a(_umoddi3.o)
 .debug_abbrev  0x00003d20      0x1d2 f:/quatus/nios2eds/bin/gnu/h-i686-mingw32/bin/../lib/gcc/nios2-elf/4.1.2/mno-hw-mul\libgcc.a(_addsub_df.o)
 .debug_abbrev  0x00003ef2      0x204 f:/quatus/nios2eds/bin/gnu/h-i686-mingw32/bin/../lib/gcc/nios2-elf/4.1.2/mno-hw-mul\libgcc.a(_mul_df.o)
 .debug_abbrev  0x000040f6      0x1e3 f:/quatus/nios2eds/bin/gnu/h-i686-mingw32/bin/../lib/gcc/nios2-elf/4.1.2/mno-hw-mul\libgcc.a(_div_df.o)
 .debug_abbrev  0x000042d9      0x151 f:/quatus/nios2eds/bin/gnu/h-i686-mingw32/bin/../lib/gcc/nios2-elf/4.1.2/mno-hw-mul\libgcc.a(_eq_df.o)
 .debug_abbrev  0x0000442a      0x151 f:/quatus/nios2eds/bin/gnu/h-i686-mingw32/bin/../lib/gcc/nios2-elf/4.1.2/mno-hw-mul\libgcc.a(_ne_df.o)
 .debug_abbrev  0x0000457b      0x151 f:/quatus/nios2eds/bin/gnu/h-i686-mingw32/bin/../lib/gcc/nios2-elf/4.1.2/mno-hw-mul\libgcc.a(_gt_df.o)
 .debug_abbrev  0x000046cc      0x151 f:/quatus/nios2eds/bin/gnu/h-i686-mingw32/bin/../lib/gcc/nios2-elf/4.1.2/mno-hw-mul\libgcc.a(_ge_df.o)
 .debug_abbrev  0x0000481d      0x151 f:/quatus/nios2eds/bin/gnu/h-i686-mingw32/bin/../lib/gcc/nios2-elf/4.1.2/mno-hw-mul\libgcc.a(_lt_df.o)
 .debug_abbrev  0x0000496e      0x13f f:/quatus/nios2eds/bin/gnu/h-i686-mingw32/bin/../lib/gcc/nios2-elf/4.1.2/mno-hw-mul\libgcc.a(_si_to_df.o)
 .debug_abbrev  0x00004aad      0x176 f:/quatus/nios2eds/bin/gnu/h-i686-mingw32/bin/../lib/gcc/nios2-elf/4.1.2/mno-hw-mul\libgcc.a(_df_to_si.o)
 .debug_abbrev  0x00004c23       0xba f:/quatus/nios2eds/bin/gnu/h-i686-mingw32/bin/../lib/gcc/nios2-elf/4.1.2/mno-hw-mul\libgcc.a(_thenan_df.o)
 .debug_abbrev  0x00004cdd      0x155 f:/quatus/nios2eds/bin/gnu/h-i686-mingw32/bin/../lib/gcc/nios2-elf/4.1.2/mno-hw-mul\libgcc.a(_usi_to_df.o)
 .debug_abbrev  0x00004e32       0xe0 f:/quatus/nios2eds/bin/gnu/h-i686-mingw32/bin/../lib/gcc/nios2-elf/4.1.2/mno-hw-mul\libgcc.a(lib2-divmod.o)
 .debug_abbrev  0x00004f12       0x7b f:/quatus/nios2eds/bin/gnu/h-i686-mingw32/bin/../lib/gcc/nios2-elf/4.1.2/mno-hw-mul\libgcc.a(lib2-mul.o)
 .debug_abbrev  0x00004f8d       0x61 f:/quatus/nios2eds/bin/gnu/h-i686-mingw32/bin/../lib/gcc/nios2-elf/4.1.2/mno-hw-mul\libgcc.a(_clz.o)
 .debug_abbrev  0x00004fee       0xb9 f:/quatus/nios2eds/bin/gnu/h-i686-mingw32/bin/../lib/gcc/nios2-elf/4.1.2/mno-hw-mul\libgcc.a(_clzsi2.o)
 .debug_abbrev  0x000050a7      0x1b1 f:/quatus/nios2eds/bin/gnu/h-i686-mingw32/bin/../lib/gcc/nios2-elf/4.1.2/mno-hw-mul\libgcc.a(_pack_df.o)
 .debug_abbrev  0x00005258      0x149 f:/quatus/nios2eds/bin/gnu/h-i686-mingw32/bin/../lib/gcc/nios2-elf/4.1.2/mno-hw-mul\libgcc.a(_unpack_df.o)
 .debug_abbrev  0x000053a1      0x132 f:/quatus/nios2eds/bin/gnu/h-i686-mingw32/bin/../lib/gcc/nios2-elf/4.1.2/mno-hw-mul\libgcc.a(_fpcmp_parts_df.o)
 .debug_abbrev  0x000054d3       0xfb ../1223_bsp/\libhal_bsp.a(alt_close.o)
 .debug_abbrev  0x000055ce       0xc7 ../1223_bsp/\libhal_bsp.a(alt_dev.o)
 .debug_abbrev  0x00005695       0x5e ../1223_bsp/\libhal_bsp.a(alt_errno.o)
 .debug_abbrev  0x000056f3       0xfb ../1223_bsp/\libhal_bsp.a(alt_fstat.o)
 .debug_abbrev  0x000057ee       0xe5 ../1223_bsp/\libhal_bsp.a(alt_gettod.o)
 .debug_abbrev  0x000058d3      0x180 ../1223_bsp/\libhal_bsp.a(alt_irq_register.o)
 .debug_abbrev  0x00005a53       0x44 ../1223_bsp/\libhal_bsp.a(alt_irq_vars.o)
 .debug_abbrev  0x00005a97       0xfb ../1223_bsp/\libhal_bsp.a(alt_isatty.o)
 .debug_abbrev  0x00005b92       0x88 ../1223_bsp/\libhal_bsp.a(alt_load.o)
 .debug_abbrev  0x00005c1a       0xfb ../1223_bsp/\libhal_bsp.a(alt_lseek.o)
 .debug_abbrev  0x00005d15       0xb7 ../1223_bsp/\libhal_bsp.a(alt_main.o)
 .debug_abbrev  0x00005dcc      0x181 ../1223_bsp/\libhal_bsp.a(alt_malloc_lock.o)
 .debug_abbrev  0x00005f4d       0xfb ../1223_bsp/\libhal_bsp.a(alt_read.o)
 .debug_abbrev  0x00006048       0xc1 ../1223_bsp/\libhal_bsp.a(alt_release_fd.o)
 .debug_abbrev  0x00006109      0x115 ../1223_bsp/\libhal_bsp.a(alt_sbrk.o)
 .debug_abbrev  0x0000621e      0x150 ../1223_bsp/\libhal_bsp.a(alt_tick.o)
 .debug_abbrev  0x0000636e       0x5d ../1223_bsp/\libhal_bsp.a(alt_usleep.o)
 .debug_abbrev  0x000063cb      0x100 ../1223_bsp/\libhal_bsp.a(alt_write.o)
 .debug_abbrev  0x000064cb      0x161 ../1223_bsp/\libhal_bsp.a(alt_sys_init.o)
 .debug_abbrev  0x0000662c      0x242 ../1223_bsp/\libhal_bsp.a(altera_avalon_dma.o)
 .debug_abbrev  0x0000686e       0xf7 ../1223_bsp/\libhal_bsp.a(altera_avalon_jtag_uart_fd.o)
 .debug_abbrev  0x00006965      0x17c ../1223_bsp/\libhal_bsp.a(altera_avalon_jtag_uart_init.o)
 .debug_abbrev  0x00006ae1       0xf0 ../1223_bsp/\libhal_bsp.a(altera_avalon_jtag_uart_ioctl.o)
 .debug_abbrev  0x00006bd1      0x191 ../1223_bsp/\libhal_bsp.a(altera_avalon_jtag_uart_read.o)
 .debug_abbrev  0x00006d62      0x18d ../1223_bsp/\libhal_bsp.a(altera_avalon_jtag_uart_write.o)
 .debug_abbrev  0x00006eef      0x172 ../1223_bsp/\libhal_bsp.a(alt_alarm_start.o)
 .debug_abbrev  0x00007061       0x6c ../1223_bsp/\libhal_bsp.a(alt_busy_sleep.o)
 .debug_abbrev  0x000070cd       0x3f ../1223_bsp/\libhal_bsp.a(alt_dcache_flush_all.o)
 .debug_abbrev  0x0000710c       0xf6 ../1223_bsp/\libhal_bsp.a(alt_dev_llist_insert.o)
 .debug_abbrev  0x00007202       0xfe ../1223_bsp/\libhal_bsp.a(alt_dma_rxchan_open.o)
 .debug_abbrev  0x00007300      0x103 ../1223_bsp/\libhal_bsp.a(alt_dma_txchan_open.o)
 .debug_abbrev  0x00007403       0x76 ../1223_bsp/\libhal_bsp.a(alt_do_ctors.o)
 .debug_abbrev  0x00007479       0x76 ../1223_bsp/\libhal_bsp.a(alt_do_dtors.o)
 .debug_abbrev  0x000074ef       0xcf ../1223_bsp/\libhal_bsp.a(alt_find_dev.o)
 .debug_abbrev  0x000075be       0x3f ../1223_bsp/\libhal_bsp.a(alt_icache_flush_all.o)
 .debug_abbrev  0x000075fd      0x134 ../1223_bsp/\libhal_bsp.a(alt_iic.o)
 .debug_abbrev  0x00007731      0x14e ../1223_bsp/\libhal_bsp.a(alt_iic_isr_register.o)
 .debug_abbrev  0x0000787f       0xf0 ../1223_bsp/\libhal_bsp.a(alt_io_redirect.o)
 .debug_abbrev  0x0000796f       0x12 ../1223_bsp/\libhal_bsp.a(alt_irq_entry.o)
 .debug_abbrev  0x00007981      0x10c ../1223_bsp/\libhal_bsp.a(alt_irq_handler.o)
 .debug_abbrev  0x00007a8d      0x112 ../1223_bsp/\libhal_bsp.a(alt_open.o)
 .debug_abbrev  0x00007b9f       0x3f ../1223_bsp/\libhal_bsp.a(altera_nios2_qsys_irq.o)
 .debug_abbrev  0x00007bde       0x12 ../1223_bsp/\libhal_bsp.a(alt_exception_entry.o)
 .debug_abbrev  0x00007bf0       0xcf ../1223_bsp/\libhal_bsp.a(alt_find_file.o)
 .debug_abbrev  0x00007cbf       0xfb ../1223_bsp/\libhal_bsp.a(alt_get_fd.o)
 .debug_abbrev  0x00007dba       0xb7 f:/quatus/nios2eds/bin/gnu/h-i686-mingw32/bin/../lib/gcc/nios2-elf/4.1.2/../../../../nios2-elf/lib/mno-hw-mul\libc.a(lib_a-atexit.o)
 .debug_abbrev  0x00007e71      0x16e f:/quatus/nios2eds/bin/gnu/h-i686-mingw32/bin/../lib/gcc/nios2-elf/4.1.2/../../../../nios2-elf/lib/mno-hw-mul\libc.a(lib_a-exit.o)
 .debug_abbrev  0x00007fdf       0x7c f:/quatus/nios2eds/bin/gnu/h-i686-mingw32/bin/../lib/gcc/nios2-elf/4.1.2/../../../../nios2-elf/lib/mno-hw-mul\libc.a(lib_a-memcmp.o)
 .debug_abbrev  0x0000805b      0x1ae f:/quatus/nios2eds/bin/gnu/h-i686-mingw32/bin/../lib/gcc/nios2-elf/4.1.2/../../../../nios2-elf/lib/mno-hw-mul\libc.a(lib_a-__atexit.o)
 .debug_abbrev  0x00008209      0x1de f:/quatus/nios2eds/bin/gnu/h-i686-mingw32/bin/../lib/gcc/nios2-elf/4.1.2/../../../../nios2-elf/lib/mno-hw-mul\libc.a(lib_a-__call_atexit.o)
 .debug_abbrev  0x000083e7       0x72 ../1223_bsp/\libhal_bsp.a(alt_exit.o)

.debug_line     0x00000000    0x15256
 *(.debug_line)
 .debug_line    0x00000000       0x66 ../1223_bsp//obj/HAL/src/crt0.o
 .debug_line    0x00000066      0x714 obj/default/count_binary.o
 .debug_line    0x0000077a      0x29e f:/quatus/nios2eds/bin/gnu/h-i686-mingw32/bin/../lib/gcc/nios2-elf/4.1.2/../../../../nios2-elf/lib/mno-hw-mul\libc.a(lib_a-printf.o)
 .debug_line    0x00000a18      0x2fa f:/quatus/nios2eds/bin/gnu/h-i686-mingw32/bin/../lib/gcc/nios2-elf/4.1.2/../../../../nios2-elf/lib/mno-hw-mul\libc.a(lib_a-puts.o)
 .debug_line    0x00000d12      0x240 f:/quatus/nios2eds/bin/gnu/h-i686-mingw32/bin/../lib/gcc/nios2-elf/4.1.2/../../../../nios2-elf/lib/mno-hw-mul\libc.a(lib_a-rand.o)
 .debug_line    0x00000f52      0x270 f:/quatus/nios2eds/bin/gnu/h-i686-mingw32/bin/../lib/gcc/nios2-elf/4.1.2/../../../../nios2-elf/lib/mno-hw-mul\libc.a(lib_a-strlen.o)
 .debug_line    0x000011c2      0x24a f:/quatus/nios2eds/bin/gnu/h-i686-mingw32/bin/../lib/gcc/nios2-elf/4.1.2/../../../../nios2-elf/lib/mno-hw-mul\libc.a(lib_a-time.o)
 .debug_line    0x0000140c     0x110f f:/quatus/nios2eds/bin/gnu/h-i686-mingw32/bin/../lib/gcc/nios2-elf/4.1.2/../../../../nios2-elf/lib/mno-hw-mul\libc.a(lib_a-vfprintf.o)
 .debug_line    0x0000251b      0x2f3 f:/quatus/nios2eds/bin/gnu/h-i686-mingw32/bin/../lib/gcc/nios2-elf/4.1.2/../../../../nios2-elf/lib/mno-hw-mul\libc.a(lib_a-wsetup.o)
 .debug_line    0x0000280e     0x1309 f:/quatus/nios2eds/bin/gnu/h-i686-mingw32/bin/../lib/gcc/nios2-elf/4.1.2/../../../../nios2-elf/lib/mno-hw-mul\libc.a(lib_a-dtoa.o)
 .debug_line    0x00003b17      0x410 f:/quatus/nios2eds/bin/gnu/h-i686-mingw32/bin/../lib/gcc/nios2-elf/4.1.2/../../../../nios2-elf/lib/mno-hw-mul\libc.a(lib_a-fflush.o)
 .debug_line    0x00003f27      0x60c f:/quatus/nios2eds/bin/gnu/h-i686-mingw32/bin/../lib/gcc/nios2-elf/4.1.2/../../../../nios2-elf/lib/mno-hw-mul\libc.a(lib_a-findfp.o)
 .debug_line    0x00004533      0x5ee f:/quatus/nios2eds/bin/gnu/h-i686-mingw32/bin/../lib/gcc/nios2-elf/4.1.2/../../../../nios2-elf/lib/mno-hw-mul\libc.a(lib_a-freer.o)
 .debug_line    0x00004b21      0x644 f:/quatus/nios2eds/bin/gnu/h-i686-mingw32/bin/../lib/gcc/nios2-elf/4.1.2/../../../../nios2-elf/lib/mno-hw-mul\libc.a(lib_a-fvwrite.o)
 .debug_line    0x00005165      0x34d f:/quatus/nios2eds/bin/gnu/h-i686-mingw32/bin/../lib/gcc/nios2-elf/4.1.2/../../../../nios2-elf/lib/mno-hw-mul\libc.a(lib_a-fwalk.o)
 .debug_line    0x000054b2      0x27d f:/quatus/nios2eds/bin/gnu/h-i686-mingw32/bin/../lib/gcc/nios2-elf/4.1.2/../../../../nios2-elf/lib/mno-hw-mul\libc.a(lib_a-gettimeofdayr.o)
 .debug_line    0x0000572f      0x230 f:/quatus/nios2eds/bin/gnu/h-i686-mingw32/bin/../lib/gcc/nios2-elf/4.1.2/../../../../nios2-elf/lib/mno-hw-mul\libc.a(lib_a-impure.o)
 .debug_line    0x0000595f      0x1e2 f:/quatus/nios2eds/bin/gnu/h-i686-mingw32/bin/../lib/gcc/nios2-elf/4.1.2/../../../../nios2-elf/lib/mno-hw-mul\libc.a(lib_a-int_errno.o)
 .debug_line    0x00005b41      0x2cb f:/quatus/nios2eds/bin/gnu/h-i686-mingw32/bin/../lib/gcc/nios2-elf/4.1.2/../../../../nios2-elf/lib/mno-hw-mul\libc.a(lib_a-locale.o)
 .debug_line    0x00005e0c      0x3c6 f:/quatus/nios2eds/bin/gnu/h-i686-mingw32/bin/../lib/gcc/nios2-elf/4.1.2/../../../../nios2-elf/lib/mno-hw-mul\libc.a(lib_a-makebuf.o)
 .debug_line    0x000061d2      0x80d f:/quatus/nios2eds/bin/gnu/h-i686-mingw32/bin/../lib/gcc/nios2-elf/4.1.2/../../../../nios2-elf/lib/mno-hw-mul\libc.a(lib_a-mallocr.o)
 .debug_line    0x000069df      0x306 f:/quatus/nios2eds/bin/gnu/h-i686-mingw32/bin/../lib/gcc/nios2-elf/4.1.2/../../../../nios2-elf/lib/mno-hw-mul\libc.a(lib_a-memchr.o)
 .debug_line    0x00006ce5      0x1af f:/quatus/nios2eds/bin/gnu/h-i686-mingw32/bin/../lib/gcc/nios2-elf/4.1.2/../../../../nios2-elf/lib/mno-hw-mul\libc.a(lib_a-memcpy.o)
 .debug_line    0x00006e94      0x30d f:/quatus/nios2eds/bin/gnu/h-i686-mingw32/bin/../lib/gcc/nios2-elf/4.1.2/../../../../nios2-elf/lib/mno-hw-mul\libc.a(lib_a-memmove.o)
 .debug_line    0x000071a1      0x304 f:/quatus/nios2eds/bin/gnu/h-i686-mingw32/bin/../lib/gcc/nios2-elf/4.1.2/../../../../nios2-elf/lib/mno-hw-mul\libc.a(lib_a-memset.o)
 .debug_line    0x000074a5     0x125e f:/quatus/nios2eds/bin/gnu/h-i686-mingw32/bin/../lib/gcc/nios2-elf/4.1.2/../../../../nios2-elf/lib/mno-hw-mul\libc.a(lib_a-mprec.o)
 .debug_line    0x00008703      0x58d f:/quatus/nios2eds/bin/gnu/h-i686-mingw32/bin/../lib/gcc/nios2-elf/4.1.2/../../../../nios2-elf/lib/mno-hw-mul\libc.a(lib_a-reallocr.o)
 .debug_line    0x00008c90      0x225 f:/quatus/nios2eds/bin/gnu/h-i686-mingw32/bin/../lib/gcc/nios2-elf/4.1.2/../../../../nios2-elf/lib/mno-hw-mul\libc.a(lib_a-s_isinfd.o)
 .debug_line    0x00008eb5      0x21d f:/quatus/nios2eds/bin/gnu/h-i686-mingw32/bin/../lib/gcc/nios2-elf/4.1.2/../../../../nios2-elf/lib/mno-hw-mul\libc.a(lib_a-s_isnand.o)
 .debug_line    0x000090d2      0x29c f:/quatus/nios2eds/bin/gnu/h-i686-mingw32/bin/../lib/gcc/nios2-elf/4.1.2/../../../../nios2-elf/lib/mno-hw-mul\libc.a(lib_a-sbrkr.o)
 .debug_line    0x0000936e      0x38f f:/quatus/nios2eds/bin/gnu/h-i686-mingw32/bin/../lib/gcc/nios2-elf/4.1.2/../../../../nios2-elf/lib/mno-hw-mul\libc.a(lib_a-stdio.o)
 .debug_line    0x000096fd      0x2d8 f:/quatus/nios2eds/bin/gnu/h-i686-mingw32/bin/../lib/gcc/nios2-elf/4.1.2/../../../../nios2-elf/lib/mno-hw-mul\libc.a(lib_a-strcmp.o)
 .debug_line    0x000099d5      0x29d f:/quatus/nios2eds/bin/gnu/h-i686-mingw32/bin/../lib/gcc/nios2-elf/4.1.2/../../../../nios2-elf/lib/mno-hw-mul\libc.a(lib_a-writer.o)
 .debug_line    0x00009c72      0x25f f:/quatus/nios2eds/bin/gnu/h-i686-mingw32/bin/../lib/gcc/nios2-elf/4.1.2/../../../../nios2-elf/lib/mno-hw-mul\libc.a(lib_a-callocr.o)
 .debug_line    0x00009ed1      0x29d f:/quatus/nios2eds/bin/gnu/h-i686-mingw32/bin/../lib/gcc/nios2-elf/4.1.2/../../../../nios2-elf/lib/mno-hw-mul\libc.a(lib_a-closer.o)
 .debug_line    0x0000a16e      0x2eb f:/quatus/nios2eds/bin/gnu/h-i686-mingw32/bin/../lib/gcc/nios2-elf/4.1.2/../../../../nios2-elf/lib/mno-hw-mul\libc.a(lib_a-fclose.o)
 .debug_line    0x0000a459      0x267 f:/quatus/nios2eds/bin/gnu/h-i686-mingw32/bin/../lib/gcc/nios2-elf/4.1.2/../../../../nios2-elf/lib/mno-hw-mul\libc.a(lib_a-fstatr.o)
 .debug_line    0x0000a6c0      0x29e f:/quatus/nios2eds/bin/gnu/h-i686-mingw32/bin/../lib/gcc/nios2-elf/4.1.2/../../../../nios2-elf/lib/mno-hw-mul\libc.a(lib_a-isattyr.o)
 .debug_line    0x0000a95e      0x29d f:/quatus/nios2eds/bin/gnu/h-i686-mingw32/bin/../lib/gcc/nios2-elf/4.1.2/../../../../nios2-elf/lib/mno-hw-mul\libc.a(lib_a-lseekr.o)
 .debug_line    0x0000abfb      0x29c f:/quatus/nios2eds/bin/gnu/h-i686-mingw32/bin/../lib/gcc/nios2-elf/4.1.2/../../../../nios2-elf/lib/mno-hw-mul\libc.a(lib_a-readr.o)
 .debug_line    0x0000ae97      0x14f f:/quatus/nios2eds/bin/gnu/h-i686-mingw32/bin/../lib/gcc/nios2-elf/4.1.2/mno-hw-mul\libgcc.a(_muldi3.o)
 .debug_line    0x0000afe6      0x2f2 f:/quatus/nios2eds/bin/gnu/h-i686-mingw32/bin/../lib/gcc/nios2-elf/4.1.2/mno-hw-mul\libgcc.a(_udivdi3.o)
 .debug_line    0x0000b2d8      0x405 f:/quatus/nios2eds/bin/gnu/h-i686-mingw32/bin/../lib/gcc/nios2-elf/4.1.2/mno-hw-mul\libgcc.a(_umoddi3.o)
 .debug_line    0x0000b6dd      0x430 f:/quatus/nios2eds/bin/gnu/h-i686-mingw32/bin/../lib/gcc/nios2-elf/4.1.2/mno-hw-mul\libgcc.a(_addsub_df.o)
 .debug_line    0x0000bb0d      0x3e5 f:/quatus/nios2eds/bin/gnu/h-i686-mingw32/bin/../lib/gcc/nios2-elf/4.1.2/mno-hw-mul\libgcc.a(_mul_df.o)
 .debug_line    0x0000bef2      0x301 f:/quatus/nios2eds/bin/gnu/h-i686-mingw32/bin/../lib/gcc/nios2-elf/4.1.2/mno-hw-mul\libgcc.a(_div_df.o)
 .debug_line    0x0000c1f3      0x129 f:/quatus/nios2eds/bin/gnu/h-i686-mingw32/bin/../lib/gcc/nios2-elf/4.1.2/mno-hw-mul\libgcc.a(_eq_df.o)
 .debug_line    0x0000c31c      0x129 f:/quatus/nios2eds/bin/gnu/h-i686-mingw32/bin/../lib/gcc/nios2-elf/4.1.2/mno-hw-mul\libgcc.a(_ne_df.o)
 .debug_line    0x0000c445      0x129 f:/quatus/nios2eds/bin/gnu/h-i686-mingw32/bin/../lib/gcc/nios2-elf/4.1.2/mno-hw-mul\libgcc.a(_gt_df.o)
 .debug_line    0x0000c56e      0x129 f:/quatus/nios2eds/bin/gnu/h-i686-mingw32/bin/../lib/gcc/nios2-elf/4.1.2/mno-hw-mul\libgcc.a(_ge_df.o)
 .debug_line    0x0000c697      0x129 f:/quatus/nios2eds/bin/gnu/h-i686-mingw32/bin/../lib/gcc/nios2-elf/4.1.2/mno-hw-mul\libgcc.a(_lt_df.o)
 .debug_line    0x0000c7c0      0x175 f:/quatus/nios2eds/bin/gnu/h-i686-mingw32/bin/../lib/gcc/nios2-elf/4.1.2/mno-hw-mul\libgcc.a(_si_to_df.o)
 .debug_line    0x0000c935      0x149 f:/quatus/nios2eds/bin/gnu/h-i686-mingw32/bin/../lib/gcc/nios2-elf/4.1.2/mno-hw-mul\libgcc.a(_df_to_si.o)
 .debug_line    0x0000ca7e       0x94 f:/quatus/nios2eds/bin/gnu/h-i686-mingw32/bin/../lib/gcc/nios2-elf/4.1.2/mno-hw-mul\libgcc.a(_thenan_df.o)
 .debug_line    0x0000cb12      0x189 f:/quatus/nios2eds/bin/gnu/h-i686-mingw32/bin/../lib/gcc/nios2-elf/4.1.2/mno-hw-mul\libgcc.a(_usi_to_df.o)
 .debug_line    0x0000cc9b      0x24f f:/quatus/nios2eds/bin/gnu/h-i686-mingw32/bin/../lib/gcc/nios2-elf/4.1.2/mno-hw-mul\libgcc.a(lib2-divmod.o)
 .debug_line    0x0000ceea      0x11a f:/quatus/nios2eds/bin/gnu/h-i686-mingw32/bin/../lib/gcc/nios2-elf/4.1.2/mno-hw-mul\libgcc.a(lib2-mul.o)
 .debug_line    0x0000d004       0xaa f:/quatus/nios2eds/bin/gnu/h-i686-mingw32/bin/../lib/gcc/nios2-elf/4.1.2/mno-hw-mul\libgcc.a(_clz.o)
 .debug_line    0x0000d0ae      0x105 f:/quatus/nios2eds/bin/gnu/h-i686-mingw32/bin/../lib/gcc/nios2-elf/4.1.2/mno-hw-mul\libgcc.a(_clzsi2.o)
 .debug_line    0x0000d1b3      0x222 f:/quatus/nios2eds/bin/gnu/h-i686-mingw32/bin/../lib/gcc/nios2-elf/4.1.2/mno-hw-mul\libgcc.a(_pack_df.o)
 .debug_line    0x0000d3d5      0x1e4 f:/quatus/nios2eds/bin/gnu/h-i686-mingw32/bin/../lib/gcc/nios2-elf/4.1.2/mno-hw-mul\libgcc.a(_unpack_df.o)
 .debug_line    0x0000d5b9      0x187 f:/quatus/nios2eds/bin/gnu/h-i686-mingw32/bin/../lib/gcc/nios2-elf/4.1.2/mno-hw-mul\libgcc.a(_fpcmp_parts_df.o)
 .debug_line    0x0000d740      0x289 ../1223_bsp/\libhal_bsp.a(alt_close.o)
 .debug_line    0x0000d9c9      0x244 ../1223_bsp/\libhal_bsp.a(alt_dev.o)
 .debug_line    0x0000dc0d      0x19a ../1223_bsp/\libhal_bsp.a(alt_errno.o)
 .debug_line    0x0000dda7      0x291 ../1223_bsp/\libhal_bsp.a(alt_fstat.o)
 .debug_line    0x0000e038      0x2e5 ../1223_bsp/\libhal_bsp.a(alt_gettod.o)
 .debug_line    0x0000e31d      0x2f3 ../1223_bsp/\libhal_bsp.a(alt_irq_register.o)
 .debug_line    0x0000e610       0x72 ../1223_bsp/\libhal_bsp.a(alt_irq_vars.o)
 .debug_line    0x0000e682      0x292 ../1223_bsp/\libhal_bsp.a(alt_isatty.o)
 .debug_line    0x0000e914      0x207 ../1223_bsp/\libhal_bsp.a(alt_load.o)
 .debug_line    0x0000eb1b      0x291 ../1223_bsp/\libhal_bsp.a(alt_lseek.o)
 .debug_line    0x0000edac      0x2ba ../1223_bsp/\libhal_bsp.a(alt_main.o)
 .debug_line    0x0000f066      0x1f7 ../1223_bsp/\libhal_bsp.a(alt_malloc_lock.o)
 .debug_line    0x0000f25d      0x2b8 ../1223_bsp/\libhal_bsp.a(alt_read.o)
 .debug_line    0x0000f515       0xed ../1223_bsp/\libhal_bsp.a(alt_release_fd.o)
 .debug_line    0x0000f602      0x251 ../1223_bsp/\libhal_bsp.a(alt_sbrk.o)
 .debug_line    0x0000f853      0x2cc ../1223_bsp/\libhal_bsp.a(alt_tick.o)
 .debug_line    0x0000fb1f      0x1ea ../1223_bsp/\libhal_bsp.a(alt_usleep.o)
 .debug_line    0x0000fd09      0x2b9 ../1223_bsp/\libhal_bsp.a(alt_write.o)
 .debug_line    0x0000ffc2      0x2c6 ../1223_bsp/\libhal_bsp.a(alt_sys_init.o)
 .debug_line    0x00010288      0x7c3 ../1223_bsp/\libhal_bsp.a(altera_avalon_dma.o)
 .debug_line    0x00010a4b      0x20f ../1223_bsp/\libhal_bsp.a(altera_avalon_jtag_uart_fd.o)
 .debug_line    0x00010c5a      0x49b ../1223_bsp/\libhal_bsp.a(altera_avalon_jtag_uart_init.o)
 .debug_line    0x000110f5      0x307 ../1223_bsp/\libhal_bsp.a(altera_avalon_jtag_uart_ioctl.o)
 .debug_line    0x000113fc      0x3e7 ../1223_bsp/\libhal_bsp.a(altera_avalon_jtag_uart_read.o)
 .debug_line    0x000117e3      0x3f5 ../1223_bsp/\libhal_bsp.a(altera_avalon_jtag_uart_write.o)
 .debug_line    0x00011bd8      0x2cc ../1223_bsp/\libhal_bsp.a(alt_alarm_start.o)
 .debug_line    0x00011ea4      0x244 ../1223_bsp/\libhal_bsp.a(alt_busy_sleep.o)
 .debug_line    0x000120e8      0x1a5 ../1223_bsp/\libhal_bsp.a(alt_dcache_flush_all.o)
 .debug_line    0x0001228d      0x24a ../1223_bsp/\libhal_bsp.a(alt_dev_llist_insert.o)
 .debug_line    0x000124d7      0x250 ../1223_bsp/\libhal_bsp.a(alt_dma_rxchan_open.o)
 .debug_line    0x00012727      0x250 ../1223_bsp/\libhal_bsp.a(alt_dma_txchan_open.o)
 .debug_line    0x00012977       0x83 ../1223_bsp/\libhal_bsp.a(alt_do_ctors.o)
 .debug_line    0x000129fa       0x83 ../1223_bsp/\libhal_bsp.a(alt_do_dtors.o)
 .debug_line    0x00012a7d      0x25b ../1223_bsp/\libhal_bsp.a(alt_find_dev.o)
 .debug_line    0x00012cd8      0x1a5 ../1223_bsp/\libhal_bsp.a(alt_icache_flush_all.o)
 .debug_line    0x00012e7d      0x2b8 ../1223_bsp/\libhal_bsp.a(alt_iic.o)
 .debug_line    0x00013135      0x239 ../1223_bsp/\libhal_bsp.a(alt_iic_isr_register.o)
 .debug_line    0x0001336e      0x2a4 ../1223_bsp/\libhal_bsp.a(alt_io_redirect.o)
 .debug_line    0x00013612       0x6b ../1223_bsp/\libhal_bsp.a(alt_irq_entry.o)
 .debug_line    0x0001367d      0x238 ../1223_bsp/\libhal_bsp.a(alt_irq_handler.o)
 .debug_line    0x000138b5      0x2ef ../1223_bsp/\libhal_bsp.a(alt_open.o)
 .debug_line    0x00013ba4      0x1be ../1223_bsp/\libhal_bsp.a(altera_nios2_qsys_irq.o)
 .debug_line    0x00013d62       0xab ../1223_bsp/\libhal_bsp.a(alt_exception_entry.o)
 .debug_line    0x00013e0d      0x26c ../1223_bsp/\libhal_bsp.a(alt_find_file.o)
 .debug_line    0x00014079      0x287 ../1223_bsp/\libhal_bsp.a(alt_get_fd.o)
 .debug_line    0x00014300      0x203 f:/quatus/nios2eds/bin/gnu/h-i686-mingw32/bin/../lib/gcc/nios2-elf/4.1.2/../../../../nios2-elf/lib/mno-hw-mul\libc.a(lib_a-atexit.o)
 .debug_line    0x00014503      0x23b f:/quatus/nios2eds/bin/gnu/h-i686-mingw32/bin/../lib/gcc/nios2-elf/4.1.2/../../../../nios2-elf/lib/mno-hw-mul\libc.a(lib_a-exit.o)
 .debug_line    0x0001473e      0x2a2 f:/quatus/nios2eds/bin/gnu/h-i686-mingw32/bin/../lib/gcc/nios2-elf/4.1.2/../../../../nios2-elf/lib/mno-hw-mul\libc.a(lib_a-memcmp.o)
 .debug_line    0x000149e0      0x316 f:/quatus/nios2eds/bin/gnu/h-i686-mingw32/bin/../lib/gcc/nios2-elf/4.1.2/../../../../nios2-elf/lib/mno-hw-mul\libc.a(lib_a-__atexit.o)
 .debug_line    0x00014cf6      0x36a f:/quatus/nios2eds/bin/gnu/h-i686-mingw32/bin/../lib/gcc/nios2-elf/4.1.2/../../../../nios2-elf/lib/mno-hw-mul\libc.a(lib_a-__call_atexit.o)
 .debug_line    0x00015060      0x1f6 ../1223_bsp/\libhal_bsp.a(alt_exit.o)

.debug_frame    0x00000000     0x1c08
 *(.debug_frame)
 .debug_frame   0x00000000       0xf0 obj/default/count_binary.o
 .debug_frame   0x000000f0       0x40 f:/quatus/nios2eds/bin/gnu/h-i686-mingw32/bin/../lib/gcc/nios2-elf/4.1.2/../../../../nios2-elf/lib/mno-hw-mul\libc.a(lib_a-printf.o)
 .debug_frame   0x00000130       0x3c f:/quatus/nios2eds/bin/gnu/h-i686-mingw32/bin/../lib/gcc/nios2-elf/4.1.2/../../../../nios2-elf/lib/mno-hw-mul\libc.a(lib_a-puts.o)
 .debug_frame   0x0000016c       0x3c f:/quatus/nios2eds/bin/gnu/h-i686-mingw32/bin/../lib/gcc/nios2-elf/4.1.2/../../../../nios2-elf/lib/mno-hw-mul\libc.a(lib_a-rand.o)
 .debug_frame   0x000001a8       0x20 f:/quatus/nios2eds/bin/gnu/h-i686-mingw32/bin/../lib/gcc/nios2-elf/4.1.2/../../../../nios2-elf/lib/mno-hw-mul\libc.a(lib_a-strlen.o)
 .debug_frame   0x000001c8       0x2c f:/quatus/nios2eds/bin/gnu/h-i686-mingw32/bin/../lib/gcc/nios2-elf/4.1.2/../../../../nios2-elf/lib/mno-hw-mul\libc.a(lib_a-time.o)
 .debug_frame   0x000001f4       0x64 f:/quatus/nios2eds/bin/gnu/h-i686-mingw32/bin/../lib/gcc/nios2-elf/4.1.2/../../../../nios2-elf/lib/mno-hw-mul\libc.a(lib_a-vfprintf.o)
 .debug_frame   0x00000258       0x2c f:/quatus/nios2eds/bin/gnu/h-i686-mingw32/bin/../lib/gcc/nios2-elf/4.1.2/../../../../nios2-elf/lib/mno-hw-mul\libc.a(lib_a-wsetup.o)
 .debug_frame   0x00000284       0x64 f:/quatus/nios2eds/bin/gnu/h-i686-mingw32/bin/../lib/gcc/nios2-elf/4.1.2/../../../../nios2-elf/lib/mno-hw-mul\libc.a(lib_a-dtoa.o)
 .debug_frame   0x000002e8       0x40 f:/quatus/nios2eds/bin/gnu/h-i686-mingw32/bin/../lib/gcc/nios2-elf/4.1.2/../../../../nios2-elf/lib/mno-hw-mul\libc.a(lib_a-fflush.o)
 .debug_frame   0x00000328      0x118 f:/quatus/nios2eds/bin/gnu/h-i686-mingw32/bin/../lib/gcc/nios2-elf/4.1.2/../../../../nios2-elf/lib/mno-hw-mul\libc.a(lib_a-findfp.o)
 .debug_frame   0x00000440       0x4c f:/quatus/nios2eds/bin/gnu/h-i686-mingw32/bin/../lib/gcc/nios2-elf/4.1.2/../../../../nios2-elf/lib/mno-hw-mul\libc.a(lib_a-freer.o)
 .debug_frame   0x0000048c       0x38 f:/quatus/nios2eds/bin/gnu/h-i686-mingw32/bin/../lib/gcc/nios2-elf/4.1.2/../../../../nios2-elf/lib/mno-hw-mul\libc.a(lib_a-fvwrite.o)
 .debug_frame   0x000004c4       0x60 f:/quatus/nios2eds/bin/gnu/h-i686-mingw32/bin/../lib/gcc/nios2-elf/4.1.2/../../../../nios2-elf/lib/mno-hw-mul\libc.a(lib_a-fwalk.o)
 .debug_frame   0x00000524       0x2c f:/quatus/nios2eds/bin/gnu/h-i686-mingw32/bin/../lib/gcc/nios2-elf/4.1.2/../../../../nios2-elf/lib/mno-hw-mul\libc.a(lib_a-gettimeofdayr.o)
 .debug_frame   0x00000550       0x70 f:/quatus/nios2eds/bin/gnu/h-i686-mingw32/bin/../lib/gcc/nios2-elf/4.1.2/../../../../nios2-elf/lib/mno-hw-mul\libc.a(lib_a-locale.o)
 .debug_frame   0x000005c0       0x2c f:/quatus/nios2eds/bin/gnu/h-i686-mingw32/bin/../lib/gcc/nios2-elf/4.1.2/../../../../nios2-elf/lib/mno-hw-mul\libc.a(lib_a-makebuf.o)
 .debug_frame   0x000005ec       0x38 f:/quatus/nios2eds/bin/gnu/h-i686-mingw32/bin/../lib/gcc/nios2-elf/4.1.2/../../../../nios2-elf/lib/mno-hw-mul\libc.a(lib_a-mallocr.o)
 .debug_frame   0x00000624       0x20 f:/quatus/nios2eds/bin/gnu/h-i686-mingw32/bin/../lib/gcc/nios2-elf/4.1.2/../../../../nios2-elf/lib/mno-hw-mul\libc.a(lib_a-memchr.o)
 .debug_frame   0x00000644       0x20 f:/quatus/nios2eds/bin/gnu/h-i686-mingw32/bin/../lib/gcc/nios2-elf/4.1.2/../../../../nios2-elf/lib/mno-hw-mul\libc.a(lib_a-memcpy.o)
 .debug_frame   0x00000664       0x20 f:/quatus/nios2eds/bin/gnu/h-i686-mingw32/bin/../lib/gcc/nios2-elf/4.1.2/../../../../nios2-elf/lib/mno-hw-mul\libc.a(lib_a-memmove.o)
 .debug_frame   0x00000684       0x20 f:/quatus/nios2eds/bin/gnu/h-i686-mingw32/bin/../lib/gcc/nios2-elf/4.1.2/../../../../nios2-elf/lib/mno-hw-mul\libc.a(lib_a-memset.o)
 .debug_frame   0x000006a4      0x228 f:/quatus/nios2eds/bin/gnu/h-i686-mingw32/bin/../lib/gcc/nios2-elf/4.1.2/../../../../nios2-elf/lib/mno-hw-mul\libc.a(lib_a-mprec.o)
 .debug_frame   0x000008cc       0x38 f:/quatus/nios2eds/bin/gnu/h-i686-mingw32/bin/../lib/gcc/nios2-elf/4.1.2/../../../../nios2-elf/lib/mno-hw-mul\libc.a(lib_a-reallocr.o)
 .debug_frame   0x00000904       0x20 f:/quatus/nios2eds/bin/gnu/h-i686-mingw32/bin/../lib/gcc/nios2-elf/4.1.2/../../../../nios2-elf/lib/mno-hw-mul\libc.a(lib_a-s_isinfd.o)
 .debug_frame   0x00000924       0x20 f:/quatus/nios2eds/bin/gnu/h-i686-mingw32/bin/../lib/gcc/nios2-elf/4.1.2/../../../../nios2-elf/lib/mno-hw-mul\libc.a(lib_a-s_isnand.o)
 .debug_frame   0x00000944       0x2c f:/quatus/nios2eds/bin/gnu/h-i686-mingw32/bin/../lib/gcc/nios2-elf/4.1.2/../../../../nios2-elf/lib/mno-hw-mul\libc.a(lib_a-sbrkr.o)
 .debug_frame   0x00000970       0x78 f:/quatus/nios2eds/bin/gnu/h-i686-mingw32/bin/../lib/gcc/nios2-elf/4.1.2/../../../../nios2-elf/lib/mno-hw-mul\libc.a(lib_a-stdio.o)
 .debug_frame   0x000009e8       0x20 f:/quatus/nios2eds/bin/gnu/h-i686-mingw32/bin/../lib/gcc/nios2-elf/4.1.2/../../../../nios2-elf/lib/mno-hw-mul\libc.a(lib_a-strcmp.o)
 .debug_frame   0x00000a08       0x2c f:/quatus/nios2eds/bin/gnu/h-i686-mingw32/bin/../lib/gcc/nios2-elf/4.1.2/../../../../nios2-elf/lib/mno-hw-mul\libc.a(lib_a-writer.o)
 .debug_frame   0x00000a34       0x2c f:/quatus/nios2eds/bin/gnu/h-i686-mingw32/bin/../lib/gcc/nios2-elf/4.1.2/../../../../nios2-elf/lib/mno-hw-mul\libc.a(lib_a-callocr.o)
 .debug_frame   0x00000a60       0x2c f:/quatus/nios2eds/bin/gnu/h-i686-mingw32/bin/../lib/gcc/nios2-elf/4.1.2/../../../../nios2-elf/lib/mno-hw-mul\libc.a(lib_a-closer.o)
 .debug_frame   0x00000a8c       0x3c f:/quatus/nios2eds/bin/gnu/h-i686-mingw32/bin/../lib/gcc/nios2-elf/4.1.2/../../../../nios2-elf/lib/mno-hw-mul\libc.a(lib_a-fclose.o)
 .debug_frame   0x00000ac8       0x2c f:/quatus/nios2eds/bin/gnu/h-i686-mingw32/bin/../lib/gcc/nios2-elf/4.1.2/../../../../nios2-elf/lib/mno-hw-mul\libc.a(lib_a-fstatr.o)
 .debug_frame   0x00000af4       0x2c f:/quatus/nios2eds/bin/gnu/h-i686-mingw32/bin/../lib/gcc/nios2-elf/4.1.2/../../../../nios2-elf/lib/mno-hw-mul\libc.a(lib_a-isattyr.o)
 .debug_frame   0x00000b20       0x2c f:/quatus/nios2eds/bin/gnu/h-i686-mingw32/bin/../lib/gcc/nios2-elf/4.1.2/../../../../nios2-elf/lib/mno-hw-mul\libc.a(lib_a-lseekr.o)
 .debug_frame   0x00000b4c       0x2c f:/quatus/nios2eds/bin/gnu/h-i686-mingw32/bin/../lib/gcc/nios2-elf/4.1.2/../../../../nios2-elf/lib/mno-hw-mul\libc.a(lib_a-readr.o)
 .debug_frame   0x00000b78       0x40 f:/quatus/nios2eds/bin/gnu/h-i686-mingw32/bin/../lib/gcc/nios2-elf/4.1.2/mno-hw-mul\libgcc.a(_muldi3.o)
 .debug_frame   0x00000bb8       0x38 f:/quatus/nios2eds/bin/gnu/h-i686-mingw32/bin/../lib/gcc/nios2-elf/4.1.2/mno-hw-mul\libgcc.a(_udivdi3.o)
 .debug_frame   0x00000bf0       0x38 f:/quatus/nios2eds/bin/gnu/h-i686-mingw32/bin/../lib/gcc/nios2-elf/4.1.2/mno-hw-mul\libgcc.a(_umoddi3.o)
 .debug_frame   0x00000c28       0x70 f:/quatus/nios2eds/bin/gnu/h-i686-mingw32/bin/../lib/gcc/nios2-elf/4.1.2/mno-hw-mul\libgcc.a(_addsub_df.o)
 .debug_frame   0x00000c98       0x3c f:/quatus/nios2eds/bin/gnu/h-i686-mingw32/bin/../lib/gcc/nios2-elf/4.1.2/mno-hw-mul\libgcc.a(_mul_df.o)
 .debug_frame   0x00000cd4       0x30 f:/quatus/nios2eds/bin/gnu/h-i686-mingw32/bin/../lib/gcc/nios2-elf/4.1.2/mno-hw-mul\libgcc.a(_div_df.o)
 .debug_frame   0x00000d04       0x2c f:/quatus/nios2eds/bin/gnu/h-i686-mingw32/bin/../lib/gcc/nios2-elf/4.1.2/mno-hw-mul\libgcc.a(_eq_df.o)
 .debug_frame   0x00000d30       0x2c f:/quatus/nios2eds/bin/gnu/h-i686-mingw32/bin/../lib/gcc/nios2-elf/4.1.2/mno-hw-mul\libgcc.a(_ne_df.o)
 .debug_frame   0x00000d5c       0x2c f:/quatus/nios2eds/bin/gnu/h-i686-mingw32/bin/../lib/gcc/nios2-elf/4.1.2/mno-hw-mul\libgcc.a(_gt_df.o)
 .debug_frame   0x00000d88       0x2c f:/quatus/nios2eds/bin/gnu/h-i686-mingw32/bin/../lib/gcc/nios2-elf/4.1.2/mno-hw-mul\libgcc.a(_ge_df.o)
 .debug_frame   0x00000db4       0x2c f:/quatus/nios2eds/bin/gnu/h-i686-mingw32/bin/../lib/gcc/nios2-elf/4.1.2/mno-hw-mul\libgcc.a(_lt_df.o)
 .debug_frame   0x00000de0       0x30 f:/quatus/nios2eds/bin/gnu/h-i686-mingw32/bin/../lib/gcc/nios2-elf/4.1.2/mno-hw-mul\libgcc.a(_si_to_df.o)
 .debug_frame   0x00000e10       0x28 f:/quatus/nios2eds/bin/gnu/h-i686-mingw32/bin/../lib/gcc/nios2-elf/4.1.2/mno-hw-mul\libgcc.a(_df_to_si.o)
 .debug_frame   0x00000e38       0x38 f:/quatus/nios2eds/bin/gnu/h-i686-mingw32/bin/../lib/gcc/nios2-elf/4.1.2/mno-hw-mul\libgcc.a(_usi_to_df.o)
 .debug_frame   0x00000e70       0x70 f:/quatus/nios2eds/bin/gnu/h-i686-mingw32/bin/../lib/gcc/nios2-elf/4.1.2/mno-hw-mul\libgcc.a(lib2-divmod.o)
 .debug_frame   0x00000ee0       0x20 f:/quatus/nios2eds/bin/gnu/h-i686-mingw32/bin/../lib/gcc/nios2-elf/4.1.2/mno-hw-mul\libgcc.a(lib2-mul.o)
 .debug_frame   0x00000f00       0x20 f:/quatus/nios2eds/bin/gnu/h-i686-mingw32/bin/../lib/gcc/nios2-elf/4.1.2/mno-hw-mul\libgcc.a(_clzsi2.o)
 .debug_frame   0x00000f20       0x2c f:/quatus/nios2eds/bin/gnu/h-i686-mingw32/bin/../lib/gcc/nios2-elf/4.1.2/mno-hw-mul\libgcc.a(_pack_df.o)
 .debug_frame   0x00000f4c       0x20 f:/quatus/nios2eds/bin/gnu/h-i686-mingw32/bin/../lib/gcc/nios2-elf/4.1.2/mno-hw-mul\libgcc.a(_unpack_df.o)
 .debug_frame   0x00000f6c       0x20 f:/quatus/nios2eds/bin/gnu/h-i686-mingw32/bin/../lib/gcc/nios2-elf/4.1.2/mno-hw-mul\libgcc.a(_fpcmp_parts_df.o)
 .debug_frame   0x00000f8c       0x48 ../1223_bsp/\libhal_bsp.a(alt_close.o)
 .debug_frame   0x00000fd4       0x2c ../1223_bsp/\libhal_bsp.a(alt_dev.o)
 .debug_frame   0x00001000       0x48 ../1223_bsp/\libhal_bsp.a(alt_fstat.o)
 .debug_frame   0x00001048       0x34 ../1223_bsp/\libhal_bsp.a(alt_gettod.o)
 .debug_frame   0x0000107c       0x2c ../1223_bsp/\libhal_bsp.a(alt_irq_register.o)
 .debug_frame   0x000010a8       0x48 ../1223_bsp/\libhal_bsp.a(alt_isatty.o)
 .debug_frame   0x000010f0       0x48 ../1223_bsp/\libhal_bsp.a(alt_load.o)
 .debug_frame   0x00001138       0x48 ../1223_bsp/\libhal_bsp.a(alt_lseek.o)
 .debug_frame   0x00001180       0x2c ../1223_bsp/\libhal_bsp.a(alt_main.o)
 .debug_frame   0x000011ac       0x48 ../1223_bsp/\libhal_bsp.a(alt_malloc_lock.o)
 .debug_frame   0x000011f4       0x48 ../1223_bsp/\libhal_bsp.a(alt_read.o)
 .debug_frame   0x0000123c       0x30 ../1223_bsp/\libhal_bsp.a(alt_release_fd.o)
 .debug_frame   0x0000126c       0x2c ../1223_bsp/\libhal_bsp.a(alt_sbrk.o)
 .debug_frame   0x00001298       0x48 ../1223_bsp/\libhal_bsp.a(alt_tick.o)
 .debug_frame   0x000012e0       0x2c ../1223_bsp/\libhal_bsp.a(alt_usleep.o)
 .debug_frame   0x0000130c       0x48 ../1223_bsp/\libhal_bsp.a(alt_write.o)
 .debug_frame   0x00001354       0x64 ../1223_bsp/\libhal_bsp.a(alt_sys_init.o)
 .debug_frame   0x000013b8      0x17c ../1223_bsp/\libhal_bsp.a(altera_avalon_dma.o)
 .debug_frame   0x00001534       0x80 ../1223_bsp/\libhal_bsp.a(altera_avalon_jtag_uart_fd.o)
 .debug_frame   0x000015b4       0x80 ../1223_bsp/\libhal_bsp.a(altera_avalon_jtag_uart_init.o)
 .debug_frame   0x00001634       0x2c ../1223_bsp/\libhal_bsp.a(altera_avalon_jtag_uart_ioctl.o)
 .debug_frame   0x00001660       0x2c ../1223_bsp/\libhal_bsp.a(altera_avalon_jtag_uart_read.o)
 .debug_frame   0x0000168c       0x2c ../1223_bsp/\libhal_bsp.a(altera_avalon_jtag_uart_write.o)
 .debug_frame   0x000016b8       0x2c ../1223_bsp/\libhal_bsp.a(alt_alarm_start.o)
 .debug_frame   0x000016e4       0x2c ../1223_bsp/\libhal_bsp.a(alt_busy_sleep.o)
 .debug_frame   0x00001710       0x2c ../1223_bsp/\libhal_bsp.a(alt_dcache_flush_all.o)
 .debug_frame   0x0000173c       0x48 ../1223_bsp/\libhal_bsp.a(alt_dev_llist_insert.o)
 .debug_frame   0x00001784       0x48 ../1223_bsp/\libhal_bsp.a(alt_dma_rxchan_open.o)
 .debug_frame   0x000017cc       0x48 ../1223_bsp/\libhal_bsp.a(alt_dma_txchan_open.o)
 .debug_frame   0x00001814       0x2c ../1223_bsp/\libhal_bsp.a(alt_do_ctors.o)
 .debug_frame   0x00001840       0x2c ../1223_bsp/\libhal_bsp.a(alt_do_dtors.o)
 .debug_frame   0x0000186c       0x2c ../1223_bsp/\libhal_bsp.a(alt_find_dev.o)
 .debug_frame   0x00001898       0x2c ../1223_bsp/\libhal_bsp.a(alt_icache_flush_all.o)
 .debug_frame   0x000018c4       0x80 ../1223_bsp/\libhal_bsp.a(alt_iic.o)
 .debug_frame   0x00001944       0x2c ../1223_bsp/\libhal_bsp.a(alt_iic_isr_register.o)
 .debug_frame   0x00001970       0x4c ../1223_bsp/\libhal_bsp.a(alt_io_redirect.o)
 .debug_frame   0x000019bc       0x2c ../1223_bsp/\libhal_bsp.a(alt_irq_handler.o)
 .debug_frame   0x000019e8       0x68 ../1223_bsp/\libhal_bsp.a(alt_open.o)
 .debug_frame   0x00001a50       0x2c ../1223_bsp/\libhal_bsp.a(altera_nios2_qsys_irq.o)
 .debug_frame   0x00001a7c       0x2c ../1223_bsp/\libhal_bsp.a(alt_find_file.o)
 .debug_frame   0x00001aa8       0x30 ../1223_bsp/\libhal_bsp.a(alt_get_fd.o)
 .debug_frame   0x00001ad8       0x20 f:/quatus/nios2eds/bin/gnu/h-i686-mingw32/bin/../lib/gcc/nios2-elf/4.1.2/../../../../nios2-elf/lib/mno-hw-mul\libc.a(lib_a-atexit.o)
 .debug_frame   0x00001af8       0x28 f:/quatus/nios2eds/bin/gnu/h-i686-mingw32/bin/../lib/gcc/nios2-elf/4.1.2/../../../../nios2-elf/lib/mno-hw-mul\libc.a(lib_a-exit.o)
 .debug_frame   0x00001b20       0x20 f:/quatus/nios2eds/bin/gnu/h-i686-mingw32/bin/../lib/gcc/nios2-elf/4.1.2/../../../../nios2-elf/lib/mno-hw-mul\libc.a(lib_a-memcmp.o)
 .debug_frame   0x00001b40       0x34 f:/quatus/nios2eds/bin/gnu/h-i686-mingw32/bin/../lib/gcc/nios2-elf/4.1.2/../../../../nios2-elf/lib/mno-hw-mul\libc.a(lib_a-__atexit.o)
 .debug_frame   0x00001b74       0x4c f:/quatus/nios2eds/bin/gnu/h-i686-mingw32/bin/../lib/gcc/nios2-elf/4.1.2/../../../../nios2-elf/lib/mno-hw-mul\libc.a(lib_a-__call_atexit.o)
 .debug_frame   0x00001bc0       0x48 ../1223_bsp/\libhal_bsp.a(alt_exit.o)

.debug_str      0x00000000     0x247c
 *(.debug_str)
 .debug_str     0x00000000       0x12 obj/default/count_binary.o
 .debug_str     0x00000012      0x4a9 f:/quatus/nios2eds/bin/gnu/h-i686-mingw32/bin/../lib/gcc/nios2-elf/4.1.2/../../../../nios2-elf/lib/mno-hw-mul\libc.a(lib_a-printf.o)
                                0x531 (size before relaxing)
 .debug_str     0x000004bb       0x84 f:/quatus/nios2eds/bin/gnu/h-i686-mingw32/bin/../lib/gcc/nios2-elf/4.1.2/../../../../nios2-elf/lib/mno-hw-mul\libc.a(lib_a-puts.o)
                                0x557 (size before relaxing)
 .debug_str     0x0000053f       0xd9 f:/quatus/nios2eds/bin/gnu/h-i686-mingw32/bin/../lib/gcc/nios2-elf/4.1.2/../../../../nios2-elf/lib/mno-hw-mul\libc.a(lib_a-rand.o)
                                0x519 (size before relaxing)
 .debug_str     0x00000618       0xe9 f:/quatus/nios2eds/bin/gnu/h-i686-mingw32/bin/../lib/gcc/nios2-elf/4.1.2/../../../../nios2-elf/lib/mno-hw-mul\libc.a(lib_a-strlen.o)
                                0x18b (size before relaxing)
 .debug_str     0x00000701       0xf1 f:/quatus/nios2eds/bin/gnu/h-i686-mingw32/bin/../lib/gcc/nios2-elf/4.1.2/../../../../nios2-elf/lib/mno-hw-mul\libc.a(lib_a-time.o)
                                0x534 (size before relaxing)
 .debug_str     0x000007f2      0x188 f:/quatus/nios2eds/bin/gnu/h-i686-mingw32/bin/../lib/gcc/nios2-elf/4.1.2/../../../../nios2-elf/lib/mno-hw-mul\libc.a(lib_a-vfprintf.o)
                                0x706 (size before relaxing)
 .debug_str     0x0000097a       0x49 f:/quatus/nios2eds/bin/gnu/h-i686-mingw32/bin/../lib/gcc/nios2-elf/4.1.2/../../../../nios2-elf/lib/mno-hw-mul\libc.a(lib_a-wsetup.o)
                                0x51a (size before relaxing)
 .debug_str     0x000009c3      0x105 f:/quatus/nios2eds/bin/gnu/h-i686-mingw32/bin/../lib/gcc/nios2-elf/4.1.2/../../../../nios2-elf/lib/mno-hw-mul\libc.a(lib_a-dtoa.o)
                                0x60f (size before relaxing)
 .debug_str     0x00000ac8       0x68 f:/quatus/nios2eds/bin/gnu/h-i686-mingw32/bin/../lib/gcc/nios2-elf/4.1.2/../../../../nios2-elf/lib/mno-hw-mul\libc.a(lib_a-fflush.o)
                                0x540 (size before relaxing)
 .debug_str     0x00000b30      0x105 f:/quatus/nios2eds/bin/gnu/h-i686-mingw32/bin/../lib/gcc/nios2-elf/4.1.2/../../../../nios2-elf/lib/mno-hw-mul\libc.a(lib_a-findfp.o)
                                0x602 (size before relaxing)
 .debug_str     0x00000c35      0x15e f:/quatus/nios2eds/bin/gnu/h-i686-mingw32/bin/../lib/gcc/nios2-elf/4.1.2/../../../../nios2-elf/lib/mno-hw-mul\libc.a(lib_a-freer.o)
                                0x651 (size before relaxing)
 .debug_str     0x00000d93       0x69 f:/quatus/nios2eds/bin/gnu/h-i686-mingw32/bin/../lib/gcc/nios2-elf/4.1.2/../../../../nios2-elf/lib/mno-hw-mul\libc.a(lib_a-fvwrite.o)
                                0x571 (size before relaxing)
 .debug_str     0x00000dfc       0x61 f:/quatus/nios2eds/bin/gnu/h-i686-mingw32/bin/../lib/gcc/nios2-elf/4.1.2/../../../../nios2-elf/lib/mno-hw-mul\libc.a(lib_a-fwalk.o)
                                0x543 (size before relaxing)
 .debug_str     0x00000e5d       0xfd f:/quatus/nios2eds/bin/gnu/h-i686-mingw32/bin/../lib/gcc/nios2-elf/4.1.2/../../../../nios2-elf/lib/mno-hw-mul\libc.a(lib_a-gettimeofdayr.o)
                                0x557 (size before relaxing)
 .debug_str     0x00000f5a       0x49 f:/quatus/nios2eds/bin/gnu/h-i686-mingw32/bin/../lib/gcc/nios2-elf/4.1.2/../../../../nios2-elf/lib/mno-hw-mul\libc.a(lib_a-impure.o)
                                0x528 (size before relaxing)
 .debug_str     0x00000fa3       0x40 f:/quatus/nios2eds/bin/gnu/h-i686-mingw32/bin/../lib/gcc/nios2-elf/4.1.2/../../../../nios2-elf/lib/mno-hw-mul\libc.a(lib_a-int_errno.o)
                                0x171 (size before relaxing)
 .debug_str     0x00000fe3      0x233 f:/quatus/nios2eds/bin/gnu/h-i686-mingw32/bin/../lib/gcc/nios2-elf/4.1.2/../../../../nios2-elf/lib/mno-hw-mul\libc.a(lib_a-locale.o)
                                0x6b7 (size before relaxing)
 .debug_str     0x00001216      0x11f f:/quatus/nios2eds/bin/gnu/h-i686-mingw32/bin/../lib/gcc/nios2-elf/4.1.2/../../../../nios2-elf/lib/mno-hw-mul\libc.a(lib_a-makebuf.o)
                                0x614 (size before relaxing)
 .debug_str     0x00001335       0xef f:/quatus/nios2eds/bin/gnu/h-i686-mingw32/bin/../lib/gcc/nios2-elf/4.1.2/../../../../nios2-elf/lib/mno-hw-mul\libc.a(lib_a-mallocr.o)
                                0x6ff (size before relaxing)
 .debug_str     0x00001424       0x5f f:/quatus/nios2eds/bin/gnu/h-i686-mingw32/bin/../lib/gcc/nios2-elf/4.1.2/../../../../nios2-elf/lib/mno-hw-mul\libc.a(lib_a-memchr.o)
                                0x199 (size before relaxing)
 .debug_str     0x00001483       0x6c f:/quatus/nios2eds/bin/gnu/h-i686-mingw32/bin/../lib/gcc/nios2-elf/4.1.2/../../../../nios2-elf/lib/mno-hw-mul\libc.a(lib_a-memcpy.o)
                                0x136 (size before relaxing)
 .debug_str     0x000014ef       0x50 f:/quatus/nios2eds/bin/gnu/h-i686-mingw32/bin/../lib/gcc/nios2-elf/4.1.2/../../../../nios2-elf/lib/mno-hw-mul\libc.a(lib_a-memmove.o)
                                0x1ab (size before relaxing)
 .debug_str     0x0000153f       0x45 f:/quatus/nios2eds/bin/gnu/h-i686-mingw32/bin/../lib/gcc/nios2-elf/4.1.2/../../../../nios2-elf/lib/mno-hw-mul\libc.a(lib_a-memset.o)
                                0x18c (size before relaxing)
 .debug_str     0x00001584       0xfb f:/quatus/nios2eds/bin/gnu/h-i686-mingw32/bin/../lib/gcc/nios2-elf/4.1.2/../../../../nios2-elf/lib/mno-hw-mul\libc.a(lib_a-mprec.o)
                                0x61c (size before relaxing)
 .debug_str     0x0000167f       0x59 f:/quatus/nios2eds/bin/gnu/h-i686-mingw32/bin/../lib/gcc/nios2-elf/4.1.2/../../../../nios2-elf/lib/mno-hw-mul\libc.a(lib_a-reallocr.o)
                                0x5d1 (size before relaxing)
 .debug_str     0x000016d8       0xea f:/quatus/nios2eds/bin/gnu/h-i686-mingw32/bin/../lib/gcc/nios2-elf/4.1.2/../../../../nios2-elf/lib/mno-hw-mul\libc.a(lib_a-s_isinfd.o)
                                0x198 (size before relaxing)
 .debug_str     0x000017c2       0x49 f:/quatus/nios2eds/bin/gnu/h-i686-mingw32/bin/../lib/gcc/nios2-elf/4.1.2/../../../../nios2-elf/lib/mno-hw-mul\libc.a(lib_a-s_isnand.o)
                                0x198 (size before relaxing)
 .debug_str     0x0000180b       0x53 f:/quatus/nios2eds/bin/gnu/h-i686-mingw32/bin/../lib/gcc/nios2-elf/4.1.2/../../../../nios2-elf/lib/mno-hw-mul\libc.a(lib_a-sbrkr.o)
                                0x519 (size before relaxing)
 .debug_str     0x0000185e       0x65 f:/quatus/nios2eds/bin/gnu/h-i686-mingw32/bin/../lib/gcc/nios2-elf/4.1.2/../../../../nios2-elf/lib/mno-hw-mul\libc.a(lib_a-stdio.o)
                                0x53f (size before relaxing)
 .debug_str     0x000018c3       0x45 f:/quatus/nios2eds/bin/gnu/h-i686-mingw32/bin/../lib/gcc/nios2-elf/4.1.2/../../../../nios2-elf/lib/mno-hw-mul\libc.a(lib_a-strcmp.o)
                                0x171 (size before relaxing)
 .debug_str     0x00001908       0x4f f:/quatus/nios2eds/bin/gnu/h-i686-mingw32/bin/../lib/gcc/nios2-elf/4.1.2/../../../../nios2-elf/lib/mno-hw-mul\libc.a(lib_a-writer.o)
                                0x51c (size before relaxing)
 .debug_str     0x00001957       0x19 f:/quatus/nios2eds/bin/gnu/h-i686-mingw32/bin/../lib/gcc/nios2-elf/4.1.2/../../../../nios2-elf/lib/mno-hw-mul\libc.a(lib_a-callocr.o)
                                0x550 (size before relaxing)
 .debug_str     0x00001970       0x46 f:/quatus/nios2eds/bin/gnu/h-i686-mingw32/bin/../lib/gcc/nios2-elf/4.1.2/../../../../nios2-elf/lib/mno-hw-mul\libc.a(lib_a-closer.o)
                                0x50c (size before relaxing)
 .debug_str     0x000019b6       0x4e f:/quatus/nios2eds/bin/gnu/h-i686-mingw32/bin/../lib/gcc/nios2-elf/4.1.2/../../../../nios2-elf/lib/mno-hw-mul\libc.a(lib_a-fclose.o)
                                0x524 (size before relaxing)
 .debug_str     0x00001a04       0x4c f:/quatus/nios2eds/bin/gnu/h-i686-mingw32/bin/../lib/gcc/nios2-elf/4.1.2/../../../../nios2-elf/lib/mno-hw-mul\libc.a(lib_a-fstatr.o)
                                0x5ff (size before relaxing)
 .debug_str     0x00001a50       0x48 f:/quatus/nios2eds/bin/gnu/h-i686-mingw32/bin/../lib/gcc/nios2-elf/4.1.2/../../../../nios2-elf/lib/mno-hw-mul\libc.a(lib_a-isattyr.o)
                                0x50e (size before relaxing)
 .debug_str     0x00001a98       0x46 f:/quatus/nios2eds/bin/gnu/h-i686-mingw32/bin/../lib/gcc/nios2-elf/4.1.2/../../../../nios2-elf/lib/mno-hw-mul\libc.a(lib_a-lseekr.o)
                                0x51a (size before relaxing)
 .debug_str     0x00001ade       0x44 f:/quatus/nios2eds/bin/gnu/h-i686-mingw32/bin/../lib/gcc/nios2-elf/4.1.2/../../../../nios2-elf/lib/mno-hw-mul\libc.a(lib_a-readr.o)
                                0x51a (size before relaxing)
 .debug_str     0x00001b22       0xfc f:/quatus/nios2eds/bin/gnu/h-i686-mingw32/bin/../lib/gcc/nios2-elf/4.1.2/mno-hw-mul\libgcc.a(_muldi3.o)
                                0x1ac (size before relaxing)
 .debug_str     0x00001c1e       0x54 f:/quatus/nios2eds/bin/gnu/h-i686-mingw32/bin/../lib/gcc/nios2-elf/4.1.2/mno-hw-mul\libgcc.a(_udivdi3.o)
                                0x1f7 (size before relaxing)
 .debug_str     0x00001c72        0xa f:/quatus/nios2eds/bin/gnu/h-i686-mingw32/bin/../lib/gcc/nios2-elf/4.1.2/mno-hw-mul\libgcc.a(_umoddi3.o)
                                0x1f7 (size before relaxing)
 .debug_str     0x00001c7c      0x137 f:/quatus/nios2eds/bin/gnu/h-i686-mingw32/bin/../lib/gcc/nios2-elf/4.1.2/mno-hw-mul\libgcc.a(_addsub_df.o)
                                0x26f (size before relaxing)
 .debug_str     0x00001db3       0x40 f:/quatus/nios2eds/bin/gnu/h-i686-mingw32/bin/../lib/gcc/nios2-elf/4.1.2/mno-hw-mul\libgcc.a(_mul_df.o)
                                0x241 (size before relaxing)
 .debug_str     0x00001df3       0x35 f:/quatus/nios2eds/bin/gnu/h-i686-mingw32/bin/../lib/gcc/nios2-elf/4.1.2/mno-hw-mul\libgcc.a(_div_df.o)
                                0x231 (size before relaxing)
 .debug_str     0x00001e28        0x8 f:/quatus/nios2eds/bin/gnu/h-i686-mingw32/bin/../lib/gcc/nios2-elf/4.1.2/mno-hw-mul\libgcc.a(_eq_df.o)
                                0x1fe (size before relaxing)
 .debug_str     0x00001e30        0x8 f:/quatus/nios2eds/bin/gnu/h-i686-mingw32/bin/../lib/gcc/nios2-elf/4.1.2/mno-hw-mul\libgcc.a(_ne_df.o)
                                0x1fe (size before relaxing)
 .debug_str     0x00001e38        0x8 f:/quatus/nios2eds/bin/gnu/h-i686-mingw32/bin/../lib/gcc/nios2-elf/4.1.2/mno-hw-mul\libgcc.a(_gt_df.o)
                                0x1fe (size before relaxing)
 .debug_str     0x00001e40        0x8 f:/quatus/nios2eds/bin/gnu/h-i686-mingw32/bin/../lib/gcc/nios2-elf/4.1.2/mno-hw-mul\libgcc.a(_ge_df.o)
                                0x1fe (size before relaxing)
 .debug_str     0x00001e48        0x8 f:/quatus/nios2eds/bin/gnu/h-i686-mingw32/bin/../lib/gcc/nios2-elf/4.1.2/mno-hw-mul\libgcc.a(_lt_df.o)
                                0x1fe (size before relaxing)
 .debug_str     0x00001e50       0x18 f:/quatus/nios2eds/bin/gnu/h-i686-mingw32/bin/../lib/gcc/nios2-elf/4.1.2/mno-hw-mul\libgcc.a(_si_to_df.o)
                                0x1de (size before relaxing)
 .debug_str     0x00001e68        0xa f:/quatus/nios2eds/bin/gnu/h-i686-mingw32/bin/../lib/gcc/nios2-elf/4.1.2/mno-hw-mul\libgcc.a(_df_to_si.o)
                                0x207 (size before relaxing)
 .debug_str     0x00000000      0x1a3 f:/quatus/nios2eds/bin/gnu/h-i686-mingw32/bin/../lib/gcc/nios2-elf/4.1.2/mno-hw-mul\libgcc.a(_thenan_df.o)
 .debug_str     0x00001e72       0x14 f:/quatus/nios2eds/bin/gnu/h-i686-mingw32/bin/../lib/gcc/nios2-elf/4.1.2/mno-hw-mul\libgcc.a(_usi_to_df.o)
                                0x1da (size before relaxing)
 .debug_str     0x00001e86       0x76 f:/quatus/nios2eds/bin/gnu/h-i686-mingw32/bin/../lib/gcc/nios2-elf/4.1.2/mno-hw-mul\libgcc.a(lib2-divmod.o)
                                0x1b4 (size before relaxing)
 .debug_str     0x00001efc       0x37 f:/quatus/nios2eds/bin/gnu/h-i686-mingw32/bin/../lib/gcc/nios2-elf/4.1.2/mno-hw-mul\libgcc.a(lib2-mul.o)
                                0x175 (size before relaxing)
 .debug_str     0x00000000      0x161 f:/quatus/nios2eds/bin/gnu/h-i686-mingw32/bin/../lib/gcc/nios2-elf/4.1.2/mno-hw-mul\libgcc.a(_clz.o)
 .debug_str     0x00001f33        0x9 f:/quatus/nios2eds/bin/gnu/h-i686-mingw32/bin/../lib/gcc/nios2-elf/4.1.2/mno-hw-mul\libgcc.a(_clzsi2.o)
                                0x17e (size before relaxing)
 .debug_str     0x00001f3c       0x10 f:/quatus/nios2eds/bin/gnu/h-i686-mingw32/bin/../lib/gcc/nios2-elf/4.1.2/mno-hw-mul\libgcc.a(_pack_df.o)
                                0x206 (size before relaxing)
 .debug_str     0x00001f4c        0xb f:/quatus/nios2eds/bin/gnu/h-i686-mingw32/bin/../lib/gcc/nios2-elf/4.1.2/mno-hw-mul\libgcc.a(_unpack_df.o)
                                0x1e8 (size before relaxing)
 .debug_str     0x00001f57       0x10 f:/quatus/nios2eds/bin/gnu/h-i686-mingw32/bin/../lib/gcc/nios2-elf/4.1.2/mno-hw-mul\libgcc.a(_fpcmp_parts_df.o)
                                0x1c6 (size before relaxing)
 .debug_str     0x00001f67       0x12 ../1223_bsp/\libhal_bsp.a(alt_close.o)
 .debug_str     0x00001f79       0x12 ../1223_bsp/\libhal_bsp.a(alt_dev.o)
 .debug_str     0x00001f8b       0x12 ../1223_bsp/\libhal_bsp.a(alt_errno.o)
 .debug_str     0x00001f9d       0x12 ../1223_bsp/\libhal_bsp.a(alt_fstat.o)
 .debug_str     0x00001faf       0x12 ../1223_bsp/\libhal_bsp.a(alt_gettod.o)
 .debug_str     0x00001fc1       0x21 ../1223_bsp/\libhal_bsp.a(alt_irq_register.o)
 .debug_str     0x00001fe2       0x12 ../1223_bsp/\libhal_bsp.a(alt_isatty.o)
 .debug_str     0x00001ff4       0x12 ../1223_bsp/\libhal_bsp.a(alt_load.o)
 .debug_str     0x00002006       0x12 ../1223_bsp/\libhal_bsp.a(alt_lseek.o)
 .debug_str     0x00002018       0x12 ../1223_bsp/\libhal_bsp.a(alt_main.o)
 .debug_str     0x0000202a       0x20 ../1223_bsp/\libhal_bsp.a(alt_malloc_lock.o)
 .debug_str     0x0000204a       0x12 ../1223_bsp/\libhal_bsp.a(alt_read.o)
 .debug_str     0x0000205c       0x1a ../1223_bsp/\libhal_bsp.a(alt_sbrk.o)
 .debug_str     0x00002076       0x1a ../1223_bsp/\libhal_bsp.a(alt_tick.o)
 .debug_str     0x00002090       0x12 ../1223_bsp/\libhal_bsp.a(alt_usleep.o)
 .debug_str     0x000020a2       0x12 ../1223_bsp/\libhal_bsp.a(alt_write.o)
 .debug_str     0x000020b4       0x12 ../1223_bsp/\libhal_bsp.a(alt_sys_init.o)
 .debug_str     0x000020c6       0x53 ../1223_bsp/\libhal_bsp.a(altera_avalon_dma.o)
 .debug_str     0x00002119       0x12 ../1223_bsp/\libhal_bsp.a(altera_avalon_jtag_uart_fd.o)
 .debug_str     0x0000212b       0x1a ../1223_bsp/\libhal_bsp.a(altera_avalon_jtag_uart_init.o)
 .debug_str     0x00002145       0x12 ../1223_bsp/\libhal_bsp.a(altera_avalon_jtag_uart_ioctl.o)
 .debug_str     0x00002157       0x1a ../1223_bsp/\libhal_bsp.a(altera_avalon_jtag_uart_read.o)
 .debug_str     0x00002171       0x1a ../1223_bsp/\libhal_bsp.a(altera_avalon_jtag_uart_write.o)
 .debug_str     0x0000218b       0x23 ../1223_bsp/\libhal_bsp.a(alt_alarm_start.o)
 .debug_str     0x000021ae       0x12 ../1223_bsp/\libhal_bsp.a(alt_busy_sleep.o)
 .debug_str     0x000021c0       0x12 ../1223_bsp/\libhal_bsp.a(alt_dcache_flush_all.o)
 .debug_str     0x000021d2       0x12 ../1223_bsp/\libhal_bsp.a(alt_dev_llist_insert.o)
 .debug_str     0x000021e4       0x12 ../1223_bsp/\libhal_bsp.a(alt_dma_rxchan_open.o)
 .debug_str     0x000021f6       0x12 ../1223_bsp/\libhal_bsp.a(alt_dma_txchan_open.o)
 .debug_str     0x00002208       0x12 ../1223_bsp/\libhal_bsp.a(alt_find_dev.o)
 .debug_str     0x0000221a       0x12 ../1223_bsp/\libhal_bsp.a(alt_icache_flush_all.o)
 .debug_str     0x0000222c       0x18 ../1223_bsp/\libhal_bsp.a(alt_iic.o)
 .debug_str     0x00002244       0x1a ../1223_bsp/\libhal_bsp.a(alt_iic_isr_register.o)
 .debug_str     0x0000225e       0x12 ../1223_bsp/\libhal_bsp.a(alt_io_redirect.o)
 .debug_str     0x00002270       0x12 ../1223_bsp/\libhal_bsp.a(alt_irq_handler.o)
 .debug_str     0x00002282       0x12 ../1223_bsp/\libhal_bsp.a(alt_open.o)
 .debug_str     0x00002294       0x12 ../1223_bsp/\libhal_bsp.a(altera_nios2_qsys_irq.o)
 .debug_str     0x000022a6       0x12 ../1223_bsp/\libhal_bsp.a(alt_find_file.o)
 .debug_str     0x000022b8       0x12 ../1223_bsp/\libhal_bsp.a(alt_get_fd.o)
 .debug_str     0x000022ca       0x3e f:/quatus/nios2eds/bin/gnu/h-i686-mingw32/bin/../lib/gcc/nios2-elf/4.1.2/../../../../nios2-elf/lib/mno-hw-mul\libc.a(lib_a-atexit.o)
                                0x1cd (size before relaxing)
 .debug_str     0x00002308       0x41 f:/quatus/nios2eds/bin/gnu/h-i686-mingw32/bin/../lib/gcc/nios2-elf/4.1.2/../../../../nios2-elf/lib/mno-hw-mul\libc.a(lib_a-exit.o)
                                0x51a (size before relaxing)
 .debug_str     0x00002349       0x45 f:/quatus/nios2eds/bin/gnu/h-i686-mingw32/bin/../lib/gcc/nios2-elf/4.1.2/../../../../nios2-elf/lib/mno-hw-mul\libc.a(lib_a-memcmp.o)
                                0x178 (size before relaxing)
 .debug_str     0x0000238e       0x54 f:/quatus/nios2eds/bin/gnu/h-i686-mingw32/bin/../lib/gcc/nios2-elf/4.1.2/../../../../nios2-elf/lib/mno-hw-mul\libc.a(lib_a-__atexit.o)
                                0x532 (size before relaxing)
 .debug_str     0x000023e2       0x7e f:/quatus/nios2eds/bin/gnu/h-i686-mingw32/bin/../lib/gcc/nios2-elf/4.1.2/../../../../nios2-elf/lib/mno-hw-mul\libc.a(lib_a-__call_atexit.o)
                                0x55c (size before relaxing)
 .debug_str     0x00002460       0x1c ../1223_bsp/\libhal_bsp.a(alt_exit.o)

.debug_loc      0x00000000     0xc2d4
 *(.debug_loc)
 .debug_loc     0x00000000      0x159 obj/default/count_binary.o
 .debug_loc     0x00000159       0xcb f:/quatus/nios2eds/bin/gnu/h-i686-mingw32/bin/../lib/gcc/nios2-elf/4.1.2/../../../../nios2-elf/lib/mno-hw-mul\libc.a(lib_a-printf.o)
 .debug_loc     0x00000224       0xa2 f:/quatus/nios2eds/bin/gnu/h-i686-mingw32/bin/../lib/gcc/nios2-elf/4.1.2/../../../../nios2-elf/lib/mno-hw-mul\libc.a(lib_a-puts.o)
 .debug_loc     0x000002c6       0x42 f:/quatus/nios2eds/bin/gnu/h-i686-mingw32/bin/../lib/gcc/nios2-elf/4.1.2/../../../../nios2-elf/lib/mno-hw-mul\libc.a(lib_a-rand.o)
 .debug_loc     0x00000308       0x3c f:/quatus/nios2eds/bin/gnu/h-i686-mingw32/bin/../lib/gcc/nios2-elf/4.1.2/../../../../nios2-elf/lib/mno-hw-mul\libc.a(lib_a-strlen.o)
 .debug_loc     0x00000344       0x48 f:/quatus/nios2eds/bin/gnu/h-i686-mingw32/bin/../lib/gcc/nios2-elf/4.1.2/../../../../nios2-elf/lib/mno-hw-mul\libc.a(lib_a-time.o)
 .debug_loc     0x0000038c     0x1dc0 f:/quatus/nios2eds/bin/gnu/h-i686-mingw32/bin/../lib/gcc/nios2-elf/4.1.2/../../../../nios2-elf/lib/mno-hw-mul\libc.a(lib_a-vfprintf.o)
 .debug_loc     0x0000214c       0x7c f:/quatus/nios2eds/bin/gnu/h-i686-mingw32/bin/../lib/gcc/nios2-elf/4.1.2/../../../../nios2-elf/lib/mno-hw-mul\libc.a(lib_a-wsetup.o)
 .debug_loc     0x000021c8     0x1da7 f:/quatus/nios2eds/bin/gnu/h-i686-mingw32/bin/../lib/gcc/nios2-elf/4.1.2/../../../../nios2-elf/lib/mno-hw-mul\libc.a(lib_a-dtoa.o)
 .debug_loc     0x00003f6f      0x1f6 f:/quatus/nios2eds/bin/gnu/h-i686-mingw32/bin/../lib/gcc/nios2-elf/4.1.2/../../../../nios2-elf/lib/mno-hw-mul\libc.a(lib_a-fflush.o)
 .debug_loc     0x00004165      0x1e1 f:/quatus/nios2eds/bin/gnu/h-i686-mingw32/bin/../lib/gcc/nios2-elf/4.1.2/../../../../nios2-elf/lib/mno-hw-mul\libc.a(lib_a-findfp.o)
 .debug_loc     0x00004346      0x4a7 f:/quatus/nios2eds/bin/gnu/h-i686-mingw32/bin/../lib/gcc/nios2-elf/4.1.2/../../../../nios2-elf/lib/mno-hw-mul\libc.a(lib_a-freer.o)
 .debug_loc     0x000047ed      0x4e4 f:/quatus/nios2eds/bin/gnu/h-i686-mingw32/bin/../lib/gcc/nios2-elf/4.1.2/../../../../nios2-elf/lib/mno-hw-mul\libc.a(lib_a-fvwrite.o)
 .debug_loc     0x00004cd1      0x1d2 f:/quatus/nios2eds/bin/gnu/h-i686-mingw32/bin/../lib/gcc/nios2-elf/4.1.2/../../../../nios2-elf/lib/mno-hw-mul\libc.a(lib_a-fwalk.o)
 .debug_loc     0x00004ea3       0x79 f:/quatus/nios2eds/bin/gnu/h-i686-mingw32/bin/../lib/gcc/nios2-elf/4.1.2/../../../../nios2-elf/lib/mno-hw-mul\libc.a(lib_a-gettimeofdayr.o)
 .debug_loc     0x00004f1c       0xe1 f:/quatus/nios2eds/bin/gnu/h-i686-mingw32/bin/../lib/gcc/nios2-elf/4.1.2/../../../../nios2-elf/lib/mno-hw-mul\libc.a(lib_a-locale.o)
 .debug_loc     0x00004ffd      0x11c f:/quatus/nios2eds/bin/gnu/h-i686-mingw32/bin/../lib/gcc/nios2-elf/4.1.2/../../../../nios2-elf/lib/mno-hw-mul\libc.a(lib_a-makebuf.o)
 .debug_loc     0x00005119      0xaeb f:/quatus/nios2eds/bin/gnu/h-i686-mingw32/bin/../lib/gcc/nios2-elf/4.1.2/../../../../nios2-elf/lib/mno-hw-mul\libc.a(lib_a-mallocr.o)
 .debug_loc     0x00005c04      0x106 f:/quatus/nios2eds/bin/gnu/h-i686-mingw32/bin/../lib/gcc/nios2-elf/4.1.2/../../../../nios2-elf/lib/mno-hw-mul\libc.a(lib_a-memchr.o)
 .debug_loc     0x00005d0a       0xca f:/quatus/nios2eds/bin/gnu/h-i686-mingw32/bin/../lib/gcc/nios2-elf/4.1.2/../../../../nios2-elf/lib/mno-hw-mul\libc.a(lib_a-memcpy.o)
 .debug_loc     0x00005dd4      0x117 f:/quatus/nios2eds/bin/gnu/h-i686-mingw32/bin/../lib/gcc/nios2-elf/4.1.2/../../../../nios2-elf/lib/mno-hw-mul\libc.a(lib_a-memmove.o)
 .debug_loc     0x00005eeb       0xa1 f:/quatus/nios2eds/bin/gnu/h-i686-mingw32/bin/../lib/gcc/nios2-elf/4.1.2/../../../../nios2-elf/lib/mno-hw-mul\libc.a(lib_a-memset.o)
 .debug_loc     0x00005f8c     0x1547 f:/quatus/nios2eds/bin/gnu/h-i686-mingw32/bin/../lib/gcc/nios2-elf/4.1.2/../../../../nios2-elf/lib/mno-hw-mul\libc.a(lib_a-mprec.o)
 .debug_loc     0x000074d3      0x8c0 f:/quatus/nios2eds/bin/gnu/h-i686-mingw32/bin/../lib/gcc/nios2-elf/4.1.2/../../../../nios2-elf/lib/mno-hw-mul\libc.a(lib_a-reallocr.o)
 .debug_loc     0x00007d93       0x36 f:/quatus/nios2eds/bin/gnu/h-i686-mingw32/bin/../lib/gcc/nios2-elf/4.1.2/../../../../nios2-elf/lib/mno-hw-mul\libc.a(lib_a-s_isinfd.o)
 .debug_loc     0x00007dc9       0x18 f:/quatus/nios2eds/bin/gnu/h-i686-mingw32/bin/../lib/gcc/nios2-elf/4.1.2/../../../../nios2-elf/lib/mno-hw-mul\libc.a(lib_a-s_isnand.o)
 .debug_loc     0x00007de1       0x5b f:/quatus/nios2eds/bin/gnu/h-i686-mingw32/bin/../lib/gcc/nios2-elf/4.1.2/../../../../nios2-elf/lib/mno-hw-mul\libc.a(lib_a-sbrkr.o)
 .debug_loc     0x00007e3c      0x21f f:/quatus/nios2eds/bin/gnu/h-i686-mingw32/bin/../lib/gcc/nios2-elf/4.1.2/../../../../nios2-elf/lib/mno-hw-mul\libc.a(lib_a-stdio.o)
 .debug_loc     0x0000805b       0x65 f:/quatus/nios2eds/bin/gnu/h-i686-mingw32/bin/../lib/gcc/nios2-elf/4.1.2/../../../../nios2-elf/lib/mno-hw-mul\libc.a(lib_a-strcmp.o)
 .debug_loc     0x000080c0       0x97 f:/quatus/nios2eds/bin/gnu/h-i686-mingw32/bin/../lib/gcc/nios2-elf/4.1.2/../../../../nios2-elf/lib/mno-hw-mul\libc.a(lib_a-writer.o)
 .debug_loc     0x00008157       0xff f:/quatus/nios2eds/bin/gnu/h-i686-mingw32/bin/../lib/gcc/nios2-elf/4.1.2/../../../../nios2-elf/lib/mno-hw-mul\libc.a(lib_a-callocr.o)
 .debug_loc     0x00008256       0x5b f:/quatus/nios2eds/bin/gnu/h-i686-mingw32/bin/../lib/gcc/nios2-elf/4.1.2/../../../../nios2-elf/lib/mno-hw-mul\libc.a(lib_a-closer.o)
 .debug_loc     0x000082b1       0xe4 f:/quatus/nios2eds/bin/gnu/h-i686-mingw32/bin/../lib/gcc/nios2-elf/4.1.2/../../../../nios2-elf/lib/mno-hw-mul\libc.a(lib_a-fclose.o)
 .debug_loc     0x00008395       0x79 f:/quatus/nios2eds/bin/gnu/h-i686-mingw32/bin/../lib/gcc/nios2-elf/4.1.2/../../../../nios2-elf/lib/mno-hw-mul\libc.a(lib_a-fstatr.o)
 .debug_loc     0x0000840e       0x5b f:/quatus/nios2eds/bin/gnu/h-i686-mingw32/bin/../lib/gcc/nios2-elf/4.1.2/../../../../nios2-elf/lib/mno-hw-mul\libc.a(lib_a-isattyr.o)
 .debug_loc     0x00008469       0x97 f:/quatus/nios2eds/bin/gnu/h-i686-mingw32/bin/../lib/gcc/nios2-elf/4.1.2/../../../../nios2-elf/lib/mno-hw-mul\libc.a(lib_a-lseekr.o)
 .debug_loc     0x00008500       0x97 f:/quatus/nios2eds/bin/gnu/h-i686-mingw32/bin/../lib/gcc/nios2-elf/4.1.2/../../../../nios2-elf/lib/mno-hw-mul\libc.a(lib_a-readr.o)
 .debug_loc     0x00008597      0x103 f:/quatus/nios2eds/bin/gnu/h-i686-mingw32/bin/../lib/gcc/nios2-elf/4.1.2/mno-hw-mul\libgcc.a(_muldi3.o)
 .debug_loc     0x0000869a      0xc12 f:/quatus/nios2eds/bin/gnu/h-i686-mingw32/bin/../lib/gcc/nios2-elf/4.1.2/mno-hw-mul\libgcc.a(_udivdi3.o)
 .debug_loc     0x000092ac      0xbcc f:/quatus/nios2eds/bin/gnu/h-i686-mingw32/bin/../lib/gcc/nios2-elf/4.1.2/mno-hw-mul\libgcc.a(_umoddi3.o)
 .debug_loc     0x00009e78      0x47a f:/quatus/nios2eds/bin/gnu/h-i686-mingw32/bin/../lib/gcc/nios2-elf/4.1.2/mno-hw-mul\libgcc.a(_addsub_df.o)
 .debug_loc     0x0000a2f2      0x3b4 f:/quatus/nios2eds/bin/gnu/h-i686-mingw32/bin/../lib/gcc/nios2-elf/4.1.2/mno-hw-mul\libgcc.a(_mul_df.o)
 .debug_loc     0x0000a6a6      0x1df f:/quatus/nios2eds/bin/gnu/h-i686-mingw32/bin/../lib/gcc/nios2-elf/4.1.2/mno-hw-mul\libgcc.a(_div_df.o)
 .debug_loc     0x0000a885       0x70 f:/quatus/nios2eds/bin/gnu/h-i686-mingw32/bin/../lib/gcc/nios2-elf/4.1.2/mno-hw-mul\libgcc.a(_eq_df.o)
 .debug_loc     0x0000a8f5       0x70 f:/quatus/nios2eds/bin/gnu/h-i686-mingw32/bin/../lib/gcc/nios2-elf/4.1.2/mno-hw-mul\libgcc.a(_ne_df.o)
 .debug_loc     0x0000a965       0x70 f:/quatus/nios2eds/bin/gnu/h-i686-mingw32/bin/../lib/gcc/nios2-elf/4.1.2/mno-hw-mul\libgcc.a(_gt_df.o)
 .debug_loc     0x0000a9d5       0x70 f:/quatus/nios2eds/bin/gnu/h-i686-mingw32/bin/../lib/gcc/nios2-elf/4.1.2/mno-hw-mul\libgcc.a(_ge_df.o)
 .debug_loc     0x0000aa45       0x70 f:/quatus/nios2eds/bin/gnu/h-i686-mingw32/bin/../lib/gcc/nios2-elf/4.1.2/mno-hw-mul\libgcc.a(_lt_df.o)
 .debug_loc     0x0000aab5       0x9a f:/quatus/nios2eds/bin/gnu/h-i686-mingw32/bin/../lib/gcc/nios2-elf/4.1.2/mno-hw-mul\libgcc.a(_si_to_df.o)
 .debug_loc     0x0000ab4f       0x8b f:/quatus/nios2eds/bin/gnu/h-i686-mingw32/bin/../lib/gcc/nios2-elf/4.1.2/mno-hw-mul\libgcc.a(_df_to_si.o)
 .debug_loc     0x0000abda       0x5b f:/quatus/nios2eds/bin/gnu/h-i686-mingw32/bin/../lib/gcc/nios2-elf/4.1.2/mno-hw-mul\libgcc.a(_usi_to_df.o)
 .debug_loc     0x0000ac35      0x1d2 f:/quatus/nios2eds/bin/gnu/h-i686-mingw32/bin/../lib/gcc/nios2-elf/4.1.2/mno-hw-mul\libgcc.a(lib2-divmod.o)
 .debug_loc     0x0000ae07       0x4f f:/quatus/nios2eds/bin/gnu/h-i686-mingw32/bin/../lib/gcc/nios2-elf/4.1.2/mno-hw-mul\libgcc.a(lib2-mul.o)
 .debug_loc     0x0000ae56       0x1e f:/quatus/nios2eds/bin/gnu/h-i686-mingw32/bin/../lib/gcc/nios2-elf/4.1.2/mno-hw-mul\libgcc.a(_clzsi2.o)
 .debug_loc     0x0000ae74      0x184 f:/quatus/nios2eds/bin/gnu/h-i686-mingw32/bin/../lib/gcc/nios2-elf/4.1.2/mno-hw-mul\libgcc.a(_pack_df.o)
 .debug_loc     0x0000aff8       0xe5 f:/quatus/nios2eds/bin/gnu/h-i686-mingw32/bin/../lib/gcc/nios2-elf/4.1.2/mno-hw-mul\libgcc.a(_unpack_df.o)
 .debug_loc     0x0000b0dd       0x56 ../1223_bsp/\libhal_bsp.a(alt_close.o)
 .debug_loc     0x0000b133       0x2b ../1223_bsp/\libhal_bsp.a(alt_dev.o)
 .debug_loc     0x0000b15e       0x56 ../1223_bsp/\libhal_bsp.a(alt_fstat.o)
 .debug_loc     0x0000b1b4       0x2b ../1223_bsp/\libhal_bsp.a(alt_gettod.o)
 .debug_loc     0x0000b1df       0x2c ../1223_bsp/\libhal_bsp.a(alt_irq_register.o)
 .debug_loc     0x0000b20b       0x57 ../1223_bsp/\libhal_bsp.a(alt_isatty.o)
 .debug_loc     0x0000b262       0x56 ../1223_bsp/\libhal_bsp.a(alt_load.o)
 .debug_loc     0x0000b2b8       0x56 ../1223_bsp/\libhal_bsp.a(alt_lseek.o)
 .debug_loc     0x0000b30e       0x2b ../1223_bsp/\libhal_bsp.a(alt_main.o)
 .debug_loc     0x0000b339       0x56 ../1223_bsp/\libhal_bsp.a(alt_malloc_lock.o)
 .debug_loc     0x0000b38f       0x56 ../1223_bsp/\libhal_bsp.a(alt_read.o)
 .debug_loc     0x0000b3e5       0x2b ../1223_bsp/\libhal_bsp.a(alt_release_fd.o)
 .debug_loc     0x0000b410       0x2b ../1223_bsp/\libhal_bsp.a(alt_sbrk.o)
 .debug_loc     0x0000b43b       0x56 ../1223_bsp/\libhal_bsp.a(alt_tick.o)
 .debug_loc     0x0000b491       0x2b ../1223_bsp/\libhal_bsp.a(alt_usleep.o)
 .debug_loc     0x0000b4bc       0x56 ../1223_bsp/\libhal_bsp.a(alt_write.o)
 .debug_loc     0x0000b512       0x81 ../1223_bsp/\libhal_bsp.a(alt_sys_init.o)
 .debug_loc     0x0000b593      0x22f ../1223_bsp/\libhal_bsp.a(altera_avalon_dma.o)
 .debug_loc     0x0000b7c2       0xac ../1223_bsp/\libhal_bsp.a(altera_avalon_jtag_uart_fd.o)
 .debug_loc     0x0000b86e       0xac ../1223_bsp/\libhal_bsp.a(altera_avalon_jtag_uart_init.o)
 .debug_loc     0x0000b91a       0x2b ../1223_bsp/\libhal_bsp.a(altera_avalon_jtag_uart_ioctl.o)
 .debug_loc     0x0000b945       0x2b ../1223_bsp/\libhal_bsp.a(altera_avalon_jtag_uart_read.o)
 .debug_loc     0x0000b970       0x2b ../1223_bsp/\libhal_bsp.a(altera_avalon_jtag_uart_write.o)
 .debug_loc     0x0000b99b       0x2b ../1223_bsp/\libhal_bsp.a(alt_alarm_start.o)
 .debug_loc     0x0000b9c6       0x2b ../1223_bsp/\libhal_bsp.a(alt_busy_sleep.o)
 .debug_loc     0x0000b9f1       0x2b ../1223_bsp/\libhal_bsp.a(alt_dcache_flush_all.o)
 .debug_loc     0x0000ba1c       0x56 ../1223_bsp/\libhal_bsp.a(alt_dev_llist_insert.o)
 .debug_loc     0x0000ba72       0x56 ../1223_bsp/\libhal_bsp.a(alt_dma_rxchan_open.o)
 .debug_loc     0x0000bac8       0x56 ../1223_bsp/\libhal_bsp.a(alt_dma_txchan_open.o)
 .debug_loc     0x0000bb1e       0x2b ../1223_bsp/\libhal_bsp.a(alt_do_ctors.o)
 .debug_loc     0x0000bb49       0x2b ../1223_bsp/\libhal_bsp.a(alt_do_dtors.o)
 .debug_loc     0x0000bb74       0x2b ../1223_bsp/\libhal_bsp.a(alt_find_dev.o)
 .debug_loc     0x0000bb9f       0x2b ../1223_bsp/\libhal_bsp.a(alt_icache_flush_all.o)
 .debug_loc     0x0000bbca       0xac ../1223_bsp/\libhal_bsp.a(alt_iic.o)
 .debug_loc     0x0000bc76       0x2b ../1223_bsp/\libhal_bsp.a(alt_iic_isr_register.o)
 .debug_loc     0x0000bca1       0x56 ../1223_bsp/\libhal_bsp.a(alt_io_redirect.o)
 .debug_loc     0x0000bcf7       0x2b ../1223_bsp/\libhal_bsp.a(alt_irq_handler.o)
 .debug_loc     0x0000bd22       0x81 ../1223_bsp/\libhal_bsp.a(alt_open.o)
 .debug_loc     0x0000bda3       0x2b ../1223_bsp/\libhal_bsp.a(altera_nios2_qsys_irq.o)
 .debug_loc     0x0000bdce       0x2b ../1223_bsp/\libhal_bsp.a(alt_find_file.o)
 .debug_loc     0x0000bdf9       0x2b ../1223_bsp/\libhal_bsp.a(alt_get_fd.o)
 .debug_loc     0x0000be24       0x1e f:/quatus/nios2eds/bin/gnu/h-i686-mingw32/bin/../lib/gcc/nios2-elf/4.1.2/../../../../nios2-elf/lib/mno-hw-mul\libc.a(lib_a-atexit.o)
 .debug_loc     0x0000be42       0x3d f:/quatus/nios2eds/bin/gnu/h-i686-mingw32/bin/../lib/gcc/nios2-elf/4.1.2/../../../../nios2-elf/lib/mno-hw-mul\libc.a(lib_a-exit.o)
 .debug_loc     0x0000be7f      0x114 f:/quatus/nios2eds/bin/gnu/h-i686-mingw32/bin/../lib/gcc/nios2-elf/4.1.2/../../../../nios2-elf/lib/mno-hw-mul\libc.a(lib_a-memcmp.o)
 .debug_loc     0x0000bf93      0x120 f:/quatus/nios2eds/bin/gnu/h-i686-mingw32/bin/../lib/gcc/nios2-elf/4.1.2/../../../../nios2-elf/lib/mno-hw-mul\libc.a(lib_a-__atexit.o)
 .debug_loc     0x0000c0b3      0x1cb f:/quatus/nios2eds/bin/gnu/h-i686-mingw32/bin/../lib/gcc/nios2-elf/4.1.2/../../../../nios2-elf/lib/mno-hw-mul\libc.a(lib_a-__call_atexit.o)
 .debug_loc     0x0000c27e       0x56 ../1223_bsp/\libhal_bsp.a(alt_exit.o)

.debug_macinfo
 *(.debug_macinfo)

.debug_weaknames
 *(.debug_weaknames)

.debug_funcnames
 *(.debug_funcnames)

.debug_typenames
 *(.debug_typenames)

.debug_varnames
 *(.debug_varnames)

.debug_alt_sim_info
                0x00000000       0x40
 *(.debug_alt_sim_info)
 .debug_alt_sim_info
                0x00000000       0x10 ../1223_bsp//obj/HAL/src/crt0.o
 .debug_alt_sim_info
                0x00000010       0x30 ../1223_bsp/\libhal_bsp.a(alt_busy_sleep.o)
                0x03000000                __alt_data_end = 0x3000000
                0x03000000                PROVIDE (__alt_stack_pointer, __alt_data_end)
                0x02812e88                PROVIDE (__alt_stack_limit, __alt_stack_base)
                0x02812e88                PROVIDE (__alt_heap_start, end)
                0x03000000                PROVIDE (__alt_heap_limit, 0x3000000)
OUTPUT(1223.elf elf32-littlenios2)

.debug_ranges   0x00000000      0x9e0
 .debug_ranges  0x00000000       0x20 ../1223_bsp//obj/HAL/src/crt0.o
 .debug_ranges  0x00000020      0x168 f:/quatus/nios2eds/bin/gnu/h-i686-mingw32/bin/../lib/gcc/nios2-elf/4.1.2/../../../../nios2-elf/lib/mno-hw-mul\libc.a(lib_a-vfprintf.o)
 .debug_ranges  0x00000188       0x20 f:/quatus/nios2eds/bin/gnu/h-i686-mingw32/bin/../lib/gcc/nios2-elf/4.1.2/../../../../nios2-elf/lib/mno-hw-mul\libc.a(lib_a-fflush.o)
 .debug_ranges  0x000001a8       0x28 f:/quatus/nios2eds/bin/gnu/h-i686-mingw32/bin/../lib/gcc/nios2-elf/4.1.2/../../../../nios2-elf/lib/mno-hw-mul\libc.a(lib_a-fvwrite.o)
 .debug_ranges  0x000001d0       0xa0 f:/quatus/nios2eds/bin/gnu/h-i686-mingw32/bin/../lib/gcc/nios2-elf/4.1.2/../../../../nios2-elf/lib/mno-hw-mul\libc.a(lib_a-fwalk.o)
 .debug_ranges  0x00000270       0x70 f:/quatus/nios2eds/bin/gnu/h-i686-mingw32/bin/../lib/gcc/nios2-elf/4.1.2/../../../../nios2-elf/lib/mno-hw-mul\libc.a(lib_a-mallocr.o)
 .debug_ranges  0x000002e0      0x110 f:/quatus/nios2eds/bin/gnu/h-i686-mingw32/bin/../lib/gcc/nios2-elf/4.1.2/../../../../nios2-elf/lib/mno-hw-mul\libc.a(lib_a-reallocr.o)
 .debug_ranges  0x000003f0       0x38 f:/quatus/nios2eds/bin/gnu/h-i686-mingw32/bin/../lib/gcc/nios2-elf/4.1.2/../../../../nios2-elf/lib/mno-hw-mul\libc.a(lib_a-callocr.o)
 .debug_ranges  0x00000428       0x88 f:/quatus/nios2eds/bin/gnu/h-i686-mingw32/bin/../lib/gcc/nios2-elf/4.1.2/mno-hw-mul\libgcc.a(_muldi3.o)
 .debug_ranges  0x000004b0      0x190 f:/quatus/nios2eds/bin/gnu/h-i686-mingw32/bin/../lib/gcc/nios2-elf/4.1.2/mno-hw-mul\libgcc.a(_udivdi3.o)
 .debug_ranges  0x00000640      0x1c0 f:/quatus/nios2eds/bin/gnu/h-i686-mingw32/bin/../lib/gcc/nios2-elf/4.1.2/mno-hw-mul\libgcc.a(_umoddi3.o)
 .debug_ranges  0x00000800       0x30 f:/quatus/nios2eds/bin/gnu/h-i686-mingw32/bin/../lib/gcc/nios2-elf/4.1.2/mno-hw-mul\libgcc.a(_addsub_df.o)
 .debug_ranges  0x00000830       0x88 f:/quatus/nios2eds/bin/gnu/h-i686-mingw32/bin/../lib/gcc/nios2-elf/4.1.2/mno-hw-mul\libgcc.a(_mul_df.o)
 .debug_ranges  0x000008b8       0x50 f:/quatus/nios2eds/bin/gnu/h-i686-mingw32/bin/../lib/gcc/nios2-elf/4.1.2/mno-hw-mul\libgcc.a(_div_df.o)
 .debug_ranges  0x00000908       0x18 f:/quatus/nios2eds/bin/gnu/h-i686-mingw32/bin/../lib/gcc/nios2-elf/4.1.2/mno-hw-mul\libgcc.a(_usi_to_df.o)
 .debug_ranges  0x00000920       0x28 f:/quatus/nios2eds/bin/gnu/h-i686-mingw32/bin/../lib/gcc/nios2-elf/4.1.2/mno-hw-mul\libgcc.a(_clzsi2.o)
 .debug_ranges  0x00000948       0x28 f:/quatus/nios2eds/bin/gnu/h-i686-mingw32/bin/../lib/gcc/nios2-elf/4.1.2/mno-hw-mul\libgcc.a(_pack_df.o)
 .debug_ranges  0x00000970       0x28 ../1223_bsp/\libhal_bsp.a(alt_irq_entry.o)
 .debug_ranges  0x00000998       0x30 ../1223_bsp/\libhal_bsp.a(alt_exception_entry.o)
 .debug_ranges  0x000009c8       0x18 f:/quatus/nios2eds/bin/gnu/h-i686-mingw32/bin/../lib/gcc/nios2-elf/4.1.2/../../../../nios2-elf/lib/mno-hw-mul\libc.a(lib_a-__call_atexit.o)
