
0109.elf:     file format elf32-littlenios2
0109.elf
architecture: nios2, flags 0x00000112:
EXEC_P, HAS_SYMS, D_PAGED
start address 0x028001b4

Program Header:
    LOAD off    0x00001000 vaddr 0x02800000 paddr 0x02800000 align 2**12
         filesz 0x00000020 memsz 0x00000020 flags r-x
    LOAD off    0x00001020 vaddr 0x02800020 paddr 0x02800020 align 2**12
         filesz 0x0000fc80 memsz 0x0000fc80 flags r-x
    LOAD off    0x00010ca0 vaddr 0x0280fca0 paddr 0x02812484 align 2**12
         filesz 0x000027e4 memsz 0x000027e4 flags rw-
    LOAD off    0x00013c68 vaddr 0x02814c68 paddr 0x02814c68 align 2**12
         filesz 0x00000000 memsz 0x00000350 flags rw-

Sections:
Idx Name          Size      VMA       LMA       File off  Algn
  0 .entry        00000020  02800000  02800000  00001000  2**5
                  CONTENTS, ALLOC, LOAD, READONLY, CODE
  1 .exceptions   00000194  02800020  02800020  00001020  2**2
                  CONTENTS, ALLOC, LOAD, READONLY, CODE
  2 .text         0000f5e8  028001b4  028001b4  000011b4  2**2
                  CONTENTS, ALLOC, LOAD, READONLY, CODE
  3 .rodata       00000504  0280f79c  0280f79c  0001079c  2**2
                  CONTENTS, ALLOC, LOAD, READONLY, DATA
  4 .rwdata       000027e4  0280fca0  02812484  00010ca0  2**2
                  CONTENTS, ALLOC, LOAD, DATA, SMALL_DATA
  5 .bss          00000350  02814c68  02814c68  00013c68  2**2
                  ALLOC, SMALL_DATA
  6 .comment      00000026  00000000  00000000  00013484  2**0
                  CONTENTS, READONLY
  7 .debug_aranges 00000d38  00000000  00000000  000134b0  2**3
                  CONTENTS, READONLY, DEBUGGING
  8 .debug_pubnames 00001645  00000000  00000000  000141e8  2**0
                  CONTENTS, READONLY, DEBUGGING
  9 .debug_info   000254bd  00000000  00000000  0001582d  2**0
                  CONTENTS, READONLY, DEBUGGING
 10 .debug_abbrev 000080a2  00000000  00000000  0003acea  2**0
                  CONTENTS, READONLY, DEBUGGING
 11 .debug_line   000156ed  00000000  00000000  00042d8c  2**0
                  CONTENTS, READONLY, DEBUGGING
 12 .debug_frame  00001bfc  00000000  00000000  0005847c  2**2
                  CONTENTS, READONLY, DEBUGGING
 13 .debug_str    00002319  00000000  00000000  0005a078  2**0
                  CONTENTS, READONLY, DEBUGGING
 14 .debug_loc    0000c293  00000000  00000000  0005c391  2**0
                  CONTENTS, READONLY, DEBUGGING
 15 .debug_alt_sim_info 00000040  00000000  00000000  00068624  2**2
                  CONTENTS, READONLY, DEBUGGING
 16 .debug_ranges 000009e0  00000000  00000000  00068668  2**3
                  CONTENTS, READONLY, DEBUGGING
 17 .thread_model 00000003  00000000  00000000  0006c519  2**0
                  CONTENTS, READONLY
 18 .cpu          00000008  00000000  00000000  0006c51c  2**0
                  CONTENTS, READONLY
 19 .qsys         00000001  00000000  00000000  0006c524  2**0
                  CONTENTS, READONLY
 20 .simulation_enabled 00000001  00000000  00000000  0006c525  2**0
                  CONTENTS, READONLY
 21 .stderr_dev   00000009  00000000  00000000  0006c526  2**0
                  CONTENTS, READONLY
 22 .stdin_dev    00000009  00000000  00000000  0006c52f  2**0
                  CONTENTS, READONLY
 23 .stdout_dev   00000009  00000000  00000000  0006c538  2**0
                  CONTENTS, READONLY
 24 .sopc_system_name 00000007  00000000  00000000  0006c541  2**0
                  CONTENTS, READONLY
 25 .quartus_project_dir 00000025  00000000  00000000  0006c548  2**0
                  CONTENTS, READONLY
 26 .sopcinfo     0008d720  00000000  00000000  0006c56d  2**0
                  CONTENTS, READONLY
SYMBOL TABLE:
02800000 l    d  .entry	00000000 .entry
02800020 l    d  .exceptions	00000000 .exceptions
028001b4 l    d  .text	00000000 .text
0280f79c l    d  .rodata	00000000 .rodata
0280fca0 l    d  .rwdata	00000000 .rwdata
02814c68 l    d  .bss	00000000 .bss
00000000 l    d  .comment	00000000 .comment
00000000 l    d  .debug_aranges	00000000 .debug_aranges
00000000 l    d  .debug_pubnames	00000000 .debug_pubnames
00000000 l    d  .debug_info	00000000 .debug_info
00000000 l    d  .debug_abbrev	00000000 .debug_abbrev
00000000 l    d  .debug_line	00000000 .debug_line
00000000 l    d  .debug_frame	00000000 .debug_frame
00000000 l    d  .debug_str	00000000 .debug_str
00000000 l    d  .debug_loc	00000000 .debug_loc
00000000 l    d  .debug_alt_sim_info	00000000 .debug_alt_sim_info
00000000 l    d  .debug_ranges	00000000 .debug_ranges
028001ec l       .text	00000000 alt_after_alt_main
00000000 l    df *ABS*	00000000 alt_irq_handler.c
00000000 l    df *ABS*	00000000 count_binary.c
00000000 l    df *ABS*	00000000 lib2-mul.c
00000000 l    df *ABS*	00000000 printf.c
00000000 l    df *ABS*	00000000 puts.c
00000000 l    df *ABS*	00000000 rand.c
00000000 l    df *ABS*	00000000 strlen.c
00000000 l    df *ABS*	00000000 vfprintf.c
02802454 l     F .text	00000058 __sprint_r
0280f9ca l     O .rodata	00000010 blanks.3452
0280f9ba l     O .rodata	00000010 zeroes.3453
00000000 l    df *ABS*	00000000 wsetup.c
00000000 l    df *ABS*	00000000 dtoa.c
028044d0 l     F .text	00000244 quorem
00000000 l    df *ABS*	00000000 fflush.c
00000000 l    df *ABS*	00000000 findfp.c
02805ef8 l     F .text	00000058 std
02806004 l     F .text	00000008 __fp_lock
0280600c l     F .text	00000008 __fp_unlock
00000000 l    df *ABS*	00000000 mallocr.c
00000000 l    df *ABS*	00000000 fvwrite.c
00000000 l    df *ABS*	00000000 fwalk.c
00000000 l    df *ABS*	00000000 impure.c
02810930 l     O .rwdata	00000400 impure_data
00000000 l    df *ABS*	00000000 locale.c
02812440 l     O .rwdata	00000004 charset
0280fa00 l     O .rodata	00000030 lconv
00000000 l    df *ABS*	00000000 makebuf.c
00000000 l    df *ABS*	00000000 mallocr.c
00000000 l    df *ABS*	00000000 memchr.c
00000000 l    df *ABS*	00000000 memcpy.c
00000000 l    df *ABS*	00000000 memmove.c
00000000 l    df *ABS*	00000000 memset.c
00000000 l    df *ABS*	00000000 mprec.c
0280fb48 l     O .rodata	0000000c p05.2458
00000000 l    df *ABS*	00000000 mallocr.c
00000000 l    df *ABS*	00000000 s_isinfd.c
00000000 l    df *ABS*	00000000 s_isnand.c
00000000 l    df *ABS*	00000000 sbrkr.c
00000000 l    df *ABS*	00000000 stdio.c
00000000 l    df *ABS*	00000000 strcmp.c
00000000 l    df *ABS*	00000000 writer.c
00000000 l    df *ABS*	00000000 mallocr.c
00000000 l    df *ABS*	00000000 closer.c
00000000 l    df *ABS*	00000000 fclose.c
00000000 l    df *ABS*	00000000 fstatr.c
00000000 l    df *ABS*	00000000 int_errno.c
00000000 l    df *ABS*	00000000 isattyr.c
00000000 l    df *ABS*	00000000 lseekr.c
00000000 l    df *ABS*	00000000 readr.c
00000000 l    df *ABS*	00000000 libgcc2.c
00000000 l    df *ABS*	00000000 libgcc2.c
00000000 l    df *ABS*	00000000 libgcc2.c
00000000 l    df *ABS*	00000000 dp-bit.c
0280a4dc l     F .text	00000410 _fpadd_parts
00000000 l    df *ABS*	00000000 dp-bit.c
00000000 l    df *ABS*	00000000 dp-bit.c
00000000 l    df *ABS*	00000000 dp-bit.c
00000000 l    df *ABS*	00000000 dp-bit.c
00000000 l    df *ABS*	00000000 dp-bit.c
00000000 l    df *ABS*	00000000 dp-bit.c
00000000 l    df *ABS*	00000000 dp-bit.c
00000000 l    df *ABS*	00000000 dp-bit.c
00000000 l    df *ABS*	00000000 dp-bit.c
00000000 l    df *ABS*	00000000 dp-bit.c
00000000 l    df *ABS*	00000000 dp-bit.c
00000000 l    df *ABS*	00000000 lib2-divmod.c
0280b608 l     F .text	0000007c udivmodsi4
00000000 l    df *ABS*	00000000 libgcc2.c
00000000 l    df *ABS*	00000000 libgcc2.c
00000000 l    df *ABS*	00000000 dp-bit.c
00000000 l    df *ABS*	00000000 dp-bit.c
00000000 l    df *ABS*	00000000 dp-bit.c
00000000 l    df *ABS*	00000000 alt_close.c
0280bde8 l     F .text	00000060 alt_get_errno
00000000 l    df *ABS*	00000000 alt_dev.c
0280be48 l     F .text	0000002c alt_dev_null_write
00000000 l    df *ABS*	00000000 alt_errno.c
00000000 l    df *ABS*	00000000 alt_fstat.c
0280bf4c l     F .text	00000060 alt_get_errno
00000000 l    df *ABS*	00000000 alt_irq_register.c
00000000 l    df *ABS*	00000000 alt_irq_vars.c
00000000 l    df *ABS*	00000000 alt_isatty.c
0280c230 l     F .text	00000060 alt_get_errno
00000000 l    df *ABS*	00000000 alt_load.c
0280c310 l     F .text	0000006c alt_load_section
00000000 l    df *ABS*	00000000 alt_lseek.c
0280c470 l     F .text	00000060 alt_get_errno
00000000 l    df *ABS*	00000000 alt_main.c
00000000 l    df *ABS*	00000000 alt_malloc_lock.c
00000000 l    df *ABS*	00000000 alt_read.c
0280c6a0 l     F .text	00000060 alt_get_errno
00000000 l    df *ABS*	00000000 alt_release_fd.c
00000000 l    df *ABS*	00000000 alt_sbrk.c
02812468 l     O .rwdata	00000004 heap_end
00000000 l    df *ABS*	00000000 alt_usleep.c
00000000 l    df *ABS*	00000000 alt_write.c
0280c988 l     F .text	00000060 alt_get_errno
00000000 l    df *ABS*	00000000 alt_sys_init.c
028112ec l     O .rwdata	000000a4 dma_priv
02811390 l     O .rwdata	0000001c dma_tx
028113ac l     O .rwdata	0000001c dma_rx
028113c8 l     O .rwdata	00001060 jtag_uart
0280ca84 l     F .text	00000038 alt_dev_reg
00000000 l    df *ABS*	00000000 altera_avalon_dma.c
0280cbdc l     F .text	000000a8 alt_avalon_dma_launch_txonly
0280cc84 l     F .text	000000a8 alt_avalon_dma_launch_rxonly
0280cd2c l     F .text	000003a4 alt_avalon_dma_ioctl
0280d480 l     F .text	000001c8 alt_avalon_dma_irq
0280d6f8 l     F .text	00000038 alt_dma_txchan_reg
0280d730 l     F .text	00000038 alt_dma_rxchan_reg
00000000 l    df *ABS*	00000000 altera_avalon_jtag_uart_fd.c
00000000 l    df *ABS*	00000000 altera_avalon_jtag_uart_init.c
0280d970 l     F .text	00000228 altera_avalon_jtag_uart_irq
0280db98 l     F .text	000000b0 altera_avalon_jtag_uart_timeout
00000000 l    df *ABS*	00000000 altera_avalon_jtag_uart_ioctl.c
00000000 l    df *ABS*	00000000 altera_avalon_jtag_uart_read.c
00000000 l    df *ABS*	00000000 altera_avalon_jtag_uart_write.c
00000000 l    df *ABS*	00000000 alt_alarm_start.c
00000000 l    df *ABS*	00000000 alt_busy_sleep.c
00000000 l    df *ABS*	00000000 alt_dcache_flush_all.c
00000000 l    df *ABS*	00000000 alt_dev_llist_insert.c
0280e594 l     F .text	00000060 alt_get_errno
00000000 l    df *ABS*	00000000 alt_dma_rxchan_open.c
0280e64c l     F .text	00000060 alt_get_errno
00000000 l    df *ABS*	00000000 alt_dma_txchan_open.c
0280e704 l     F .text	00000060 alt_get_errno
00000000 l    df *ABS*	00000000 alt_do_ctors.c
00000000 l    df *ABS*	00000000 alt_do_dtors.c
00000000 l    df *ABS*	00000000 alt_find_dev.c
00000000 l    df *ABS*	00000000 alt_icache_flush_all.c
00000000 l    df *ABS*	00000000 alt_iic.c
00000000 l    df *ABS*	00000000 alt_iic_isr_register.c
00000000 l    df *ABS*	00000000 alt_io_redirect.c
0280eba8 l     F .text	000000d8 alt_open_fd
00000000 l    df *ABS*	00000000 alt_open.c
0280ecf8 l     F .text	000000f8 alt_file_locked
0280ef7c l     F .text	00000060 alt_get_errno
00000000 l    df *ABS*	00000000 alt_tick.c
00000000 l    df *ABS*	00000000 altera_nios2_qsys_irq.c
00000000 l    df *ABS*	00000000 alt_find_file.c
00000000 l    df *ABS*	00000000 alt_get_fd.c
00000000 l    df *ABS*	00000000 atexit.c
00000000 l    df *ABS*	00000000 exit.c
00000000 l    df *ABS*	00000000 memcmp.c
00000000 l    df *ABS*	00000000 __atexit.c
00000000 l    df *ABS*	00000000 __call_atexit.c
0280f584 l     F .text	00000004 register_fini
00000000 l    df *ABS*	00000000 alt_exit.c
0280f738 l     F .text	00000040 alt_sim_halt
02807ce8 g     F .text	00000094 _mprec_log10
02807dd4 g     F .text	00000088 __any_on
0280958c g     F .text	00000070 _isatty_r
0280fb20 g     O .rodata	00000028 __mprec_tinytens
0280c4d0 g     F .text	0000006c alt_main
02802298 g     F .text	000000a0 _puts_r
02814d28 g     O .bss	00000100 alt_irq
02814c84 g     O .bss	00000004 tmp
028095fc g     F .text	00000078 _lseek_r
02812484 g       *ABS*	00000000 __flash_rwdata_start
0280affc g     F .text	00000088 __eqdf2
02814fb8 g       *ABS*	00000000 __alt_heap_start
0280fca0 g     O .rwdata	000001e4 maze1
02802220 g     F .text	00000044 printf
02814c6c g     O .bss	00000004 control
02809044 g     F .text	00000068 __sseek
02805f60 g     F .text	000000a4 __sinit
0280d648 g     F .text	000000b0 alt_avalon_dma_init
02814c88 g     O .bss	00000004 b
02806c6c g     F .text	00000084 _setlocale_r
02806060 g     F .text	0000009c __sfmoreglue
0280c55c g     F .text	00000020 __malloc_unlock
02814c8c g     O .bss	00000004 j
02812428 g     O .rwdata	00000004 x
02807764 g     F .text	000000e0 memmove
02806050 g     F .text	00000010 _cleanup
02807e5c g     F .text	000000bc _Balloc
0280b10c g     F .text	00000088 __gtdf2
00000000  w      *UND*	00000000 __errno
02814c90 g     O .bss	00000004 bt2
02800000 g     F .entry	0000000c __reset
02800020 g       *ABS*	00000000 __flash_exceptions_start
02809518 g     F .text	00000074 _fstat_r
02814cc0 g     O .bss	00000004 errno
02814ccc g     O .bss	00000004 alt_argv
0281a428 g       *ABS*	00000000 _gp
0280c834 g     F .text	00000030 usleep
02814c74 g     O .bss	00000004 up
0280e6ac g     F .text	00000058 alt_dma_txchan_open
02800634 g     F .text	00000070 DoEnablePIOInterrupt
0281116c g     O .rwdata	00000180 alt_fd_list
028006fc g     F .text	00000084 PIOISRInitial
0280e82c g     F .text	00000094 alt_find_dev
028076c4 g     F .text	000000a0 memcpy
02806044 g     F .text	0000000c _cleanup_r
0280b2a4 g     F .text	000000f8 __floatsidf
0280ec80 g     F .text	00000078 alt_io_redirect
0280b21c g     F .text	00000088 __ltdf2
0280f79c g       *ABS*	00000000 __DTOR_END__
02802338 g     F .text	00000014 puts
02800340 g     F .text	000002f4 end_display
02807c38 g     F .text	000000b0 __ratio
0280ddb0 g     F .text	00000224 altera_avalon_jtag_uart_read
00000000  w      *UND*	00000000 malloc
02802264 g     F .text	00000034 _printf_r
0280b744 g     F .text	00000008 __udivsi3
0280c16c g     F .text	000000c4 isatty
0280fa30 g     O .rodata	000000c8 __mprec_tens
02806c48 g     F .text	00000008 __locale_charset
02814cb4 g     O .bss	00000004 __malloc_top_pad
0281243c g     O .rwdata	00000004 __mb_cur_max
02806c50 g     F .text	0000000c _localeconv_r
028085c0 g     F .text	0000003c __i2b
0280662c g     F .text	0000049c __sfvwrite_r
02814c80 g     O .bss	00000004 right
02808fcc g     F .text	00000070 _sbrk_r
02809674 g     F .text	00000078 _read_r
02810d30 g     O .rwdata	0000000c __lc_ctype
0281245c g     O .rwdata	00000004 alt_max_fd
02801404 g     F .text	0000053c role_map1
0280bae8 g     F .text	00000138 __unpack_d
028093f4 g     F .text	00000110 _fclose_r
02805ec4 g     F .text	00000034 fflush
02814cb8 g     O .bss	00000004 __malloc_max_sbrked_mem
0280bfac g     F .text	000001c0 alt_irq_register
0280a96c g     F .text	00000074 __adddf3
0280cabc g     F .text	00000120 alt_avalon_dma_launch_bidir
02807b18 g     F .text	00000120 __b2d
0280e5f4 g     F .text	00000058 alt_dma_rxchan_open
02809e7c g     F .text	00000660 __umoddi3
0280c37c g     F .text	000000f4 lseek
02812438 g     O .rwdata	00000004 _global_impure_ptr
02808968 g     F .text	000005f4 _realloc_r
02814fb8 g       *ABS*	00000000 __bss_end
0280eab0 g     F .text	000000f8 alt_iic_isr_register
0280f074 g     F .text	0000010c alt_tick
02809810 g     F .text	0000066c __udivdi3
0280faf8 g     O .rodata	00000028 __mprec_bigtens
02808848 g     F .text	00000120 __s2b
0280b474 g     F .text	00000194 __floatunsidf
02807a38 g     F .text	00000060 __mcmp
0280602c g     F .text	00000018 __fp_lock_all
0280ea68 g     F .text	00000048 alt_ic_irq_enabled
0280efdc g     F .text	00000098 alt_alarm_stop
02814cc4 g     O .bss	00000004 alt_irq_active
028000ec g     F .exceptions	000000c8 alt_irq_handler
02811144 g     O .rwdata	00000028 alt_dev_null
0280e4c4 g     F .text	0000001c alt_dcache_flush_all
02807904 g     F .text	00000070 __hi0bits
0280b39c g     F .text	000000d8 __fixdfsi
02812484 g       *ABS*	00000000 __ram_rwdata_end
02800ec8 g     F .text	0000053c role_map2
02812454 g     O .rwdata	00000008 alt_dev_list
0280d2ac g     F .text	00000080 alt_avalon_dma_space
0280c864 g     F .text	00000124 write
028001f0 g     F .text	00000150 star_display
0280fca0 g       *ABS*	00000000 __ram_rodata_end
0280be74 g     F .text	000000d8 fstat
02801940 g     F .text	0000054c role_map4
02808728 g     F .text	00000120 __pow5mult
02812430 g     O .rwdata	00000004 led
02814ca8 g     O .bss	00000004 __nlocale_changed
0280b74c g     F .text	00000008 __umodsi3
02814fb8 g       *ABS*	00000000 end
0280d8b0 g     F .text	000000c0 altera_avalon_jtag_uart_init
02814c94 g     O .bss	00000004 i
0280f798 g       *ABS*	00000000 __CTOR_LIST__
03000000 g       *ABS*	00000000 __alt_stack_pointer
0280b754 g     F .text	00000080 __clzsi2
0280dfd4 g     F .text	00000240 altera_avalon_jtag_uart_write
02805f50 g     F .text	00000004 __sfp_lock_acquire
028075e0 g     F .text	000000e4 memchr
028024ac g     F .text	00001ec4 ___vfprintf_internal_r
02806318 g     F .text	00000314 _free_r
0280d32c g     F .text	00000154 alt_avalon_dma_send
0280f588 g     F .text	000001b0 __call_exitprocs
02812474 g     O .rwdata	00000008 alt_dma_txchan_list
02814cac g     O .bss	00000004 __mlocale_changed
02812448 g     O .rwdata	00000004 __malloc_sbrk_base
028001b4 g     F .text	0000003c _start
02814c78 g     O .bss	00000004 down
02814cd4 g     O .bss	00000004 _alt_tick_rate
02814c7c g     O .bss	00000004 lift
02802368 g     F .text	00000078 rand
02808220 g     F .text	0000014c __lshift
02814cd8 g     O .bss	00000004 _alt_nticks
0280c57c g     F .text	00000124 read
0280ca1c g     F .text	00000068 alt_sys_init
0280f450 g     F .text	00000134 __register_exitproc
0280836c g     F .text	00000254 __multiply
0280dc48 g     F .text	00000074 altera_avalon_jtag_uart_close
028021e8 g     F .text	00000038 __mulsi3
0280fca0 g       *ABS*	00000000 __ram_rwdata_start
0280f79c g       *ABS*	00000000 __ram_rodata_start
02814cdc g     O .bss	00000028 __malloc_current_mallinfo
02807f18 g     F .text	0000017c __d2b
02814c98 g     O .bss	00000004 c
0280d768 g     F .text	00000058 altera_avalon_jtag_uart_read_fd
0280f2c0 g     F .text	000000d0 alt_get_fd
0280e368 g     F .text	0000015c alt_busy_sleep
0280bc20 g     F .text	000000c8 __fpcmp_parts_d
02800000 g       *ABS*	00000000 __alt_mem_sdram_ctrl
02809384 g     F .text	00000070 _close_r
0280f3dc g     F .text	00000074 memcmp
0280d818 g     F .text	00000048 altera_avalon_jtag_uart_close_fd
02814fb8 g       *ABS*	00000000 __alt_stack_base
0280d860 g     F .text	00000050 altera_avalon_jtag_uart_ioctl_fd
02804394 g     F .text	0000013c __swsetup_r
0280ada4 g     F .text	00000258 __divdf3
028060fc g     F .text	000000f0 __sfp
02807d7c g     F .text	00000058 __copybits
02810d3c g     O .rwdata	00000408 __malloc_av_
02805f5c g     F .text	00000004 __sinit_lock_release
0280a9e0 g     F .text	000003c4 __muldf3
02809128 g     F .text	00000060 __sread
0280f1a0 g     F .text	00000120 alt_find_file
0280e4e0 g     F .text	000000b4 alt_dev_llist_insert
0280c53c g     F .text	00000020 __malloc_lock
0280c778 g     F .text	000000bc sbrk
02805cc8 g     F .text	000001fc _fflush_r
028092bc g     F .text	000000c8 _calloc_r
02814c68 g       *ABS*	00000000 __bss_start
02807844 g     F .text	00000098 memset
02801e8c g     F .text	0000035c main
0280d114 g     F .text	00000044 alt_avalon_dma_rx_ioctl
02814cd0 g     O .bss	00000004 alt_envp
02814cbc g     O .bss	00000004 __malloc_max_total_mem
0280d7c0 g     F .text	00000058 altera_avalon_jtag_uart_write_fd
0280fe84 g     O .rwdata	000001e4 maze2
0280234c g     F .text	0000001c srand
0280903c g     F .text	00000008 __sclose
03000000 g       *ABS*	00000000 __alt_heap_limit
02809504 g     F .text	00000014 fclose
02814e28 g     O .bss	00000190 _atexit0
02804714 g     F .text	000015b4 _dtoa_r
02806ea0 g     F .text	00000740 _malloc_r
0281242c g     O .rwdata	00000004 y
02812460 g     O .rwdata	00000004 alt_errno
02806b90 g     F .text	000000b8 _fwalk
0280b684 g     F .text	00000060 __divsi3
02814c9c g     O .bss	00000004 d
0280fb54 g     O .rodata	00000014 __thenan_df
028061ec g     F .text	0000012c _malloc_trim_r
02814c70 g     O .bss	00000004 role
0280f79c g       *ABS*	00000000 __CTOR_END__
02814c68 g     O .bss	00000004 dir
02809188 g     F .text	000000bc strcmp
0280f79c g       *ABS*	00000000 __flash_rodata_start
0280f79c g       *ABS*	00000000 __DTOR_LIST__
0280b084 g     F .text	00000088 __nedf2
0280c9e8 g     F .text	00000034 alt_irq_init
0280c700 g     F .text	00000078 alt_release_fd
0280fb68 g     O .rodata	00000100 __clz_tab
02814cb0 g     O .bss	00000004 _PathLocale
0280f390 g     F .text	00000014 atexit
02809244 g     F .text	00000078 _write_r
02806cf0 g     F .text	0000001c setlocale
02812434 g     O .rwdata	00000004 _impure_ptr
02814cc8 g     O .bss	00000004 alt_argc
0280e7c8 g     F .text	00000064 _do_dtors
02814ca0 g     O .bss	00000004 sw
02800020 g       .exceptions	00000000 alt_irq_entry
02807a98 g     F .text	00000080 __ulp
02808f5c g     F .text	00000040 __isinfd
02806014 g     F .text	00000018 __fp_unlock_all
0281244c g     O .rwdata	00000008 alt_fs_list
02810068 g     O .rwdata	000001e4 maze3
02800020 g       *ABS*	00000000 __ram_exceptions_start
02806c5c g     F .text	00000010 localeconv
0280e8dc g     F .text	00000050 alt_ic_isr_register
02812484 g       *ABS*	00000000 _edata
02814fb8 g       *ABS*	00000000 _end
0281024c g     O .rwdata	000006e4 maze4
028001b4 g       *ABS*	00000000 __ram_exceptions_end
02800780 g     F .text	00000048 PIOISR
0280dcbc g     F .text	000000f4 altera_avalon_jtag_uart_ioctl
0280e9c8 g     F .text	000000a0 alt_ic_irq_disable
02814d04 g     O .bss	00000024 sPIO
028090ac g     F .text	0000007c __swrite
02812444 g     O .rwdata	00000004 __malloc_trim_threshold
0280f180 g     F .text	00000020 altera_nios2_qsys_irq_init
0280f3a4 g     F .text	00000038 exit
02814ca4 g     O .bss	00000004 a
02806ac8 g     F .text	000000c8 _fwalk_reent
02808094 g     F .text	0000018c __mdiff
0280b6e4 g     F .text	00000060 __modsi3
03000000 g       *ABS*	00000000 __alt_data_end
02800020 g     F .exceptions	00000000 alt_exception
02805f54 g     F .text	00000004 __sfp_lock_release
0280097c g     F .text	0000054c role_map3
0280f778 g     F .text	00000020 _exit
02808f9c g     F .text	00000030 __isnand
0280e214 g     F .text	00000154 alt_alarm_start
028096ec g     F .text	00000124 __muldi3
02806d0c g     F .text	00000194 __smakebuf_r
028023e0 g     F .text	00000074 strlen
0280edf0 g     F .text	0000018c open
0280b194 g     F .text	00000088 __gedf2
0280e8c0 g     F .text	0000001c alt_icache_flush_all
02812464 g     O .rwdata	00000004 alt_priority_mask
0280e92c g     F .text	0000009c alt_ic_irq_enable
02804370 g     F .text	00000024 __vfprintf_internal
0280d158 g     F .text	00000154 alt_avalon_dma_prepare
0280a8ec g     F .text	00000080 __subdf3
028006a4 g     F .text	00000058 DoDisablePIOInterrupt
0281246c g     O .rwdata	00000008 alt_dma_rxchan_list
028007c8 g     F .text	000001b4 he0
02807974 g     F .text	000000c4 __lo0bits
0281247c g     O .rwdata	00000008 alt_alarm_list
0280e764 g     F .text	00000064 _do_ctors
0280bce8 g     F .text	00000100 close
0280c290 g     F .text	00000080 alt_load
0280b7d4 g     F .text	00000314 __pack_d
0280d0d0 g     F .text	00000044 alt_avalon_dma_tx_ioctl
00000000  w      *UND*	00000000 free
02805f58 g     F .text	00000004 __sinit_lock_acquire
028085fc g     F .text	0000012c __multadd
028078dc g     F .text	00000028 _Bfree



Disassembly of section .entry:

02800000 <__reset>:
 * Jump to the _start entry point in the .text section if reset code
 * is allowed or if optimizing for RTL simulation.
 */
#if defined(ALT_ALLOW_CODE_AT_RESET) || defined(ALT_SIM_OPTIMIZE)
    /* Jump to the _start entry point in the .text section. */
    movhi r1, %hi(_start)
 2800000:	0040a034 	movhi	at,640
    ori r1, r1, %lo(_start)
 2800004:	08406d14 	ori	at,at,436
    jmp r1
 2800008:	0800683a 	jmp	at
	...

Disassembly of section .exceptions:

02800020 <alt_exception>:
         * Process an exception.  For all exceptions we must preserve all
         * caller saved registers on the stack (See the Nios2 ABI
         * documentation for details).
         */

        addi  sp, sp, -76
 2800020:	deffed04 	addi	sp,sp,-76

#endif

#endif

        stw   ra,  0(sp)
 2800024:	dfc00015 	stw	ra,0(sp)
        /*
         * Leave a gap in the stack frame at 4(sp) for the muldiv handler to
         * store zero into.
         */

        stw   r1,   8(sp)
 2800028:	d8400215 	stw	at,8(sp)
        stw   r2,  12(sp)
 280002c:	d8800315 	stw	r2,12(sp)
        stw   r3,  16(sp)
 2800030:	d8c00415 	stw	r3,16(sp)
        stw   r4,  20(sp)
 2800034:	d9000515 	stw	r4,20(sp)
        stw   r5,  24(sp)
 2800038:	d9400615 	stw	r5,24(sp)
        stw   r6,  28(sp)
 280003c:	d9800715 	stw	r6,28(sp)
        stw   r7,  32(sp)
 2800040:	d9c00815 	stw	r7,32(sp)

        rdctl r5, estatus
 2800044:	000b307a 	rdctl	r5,estatus

        stw   r8,  36(sp)
 2800048:	da000915 	stw	r8,36(sp)
        stw   r9,  40(sp)
 280004c:	da400a15 	stw	r9,40(sp)
        stw   r10, 44(sp)
 2800050:	da800b15 	stw	r10,44(sp)
        stw   r11, 48(sp)
 2800054:	dac00c15 	stw	r11,48(sp)
        stw   r12, 52(sp)
 2800058:	db000d15 	stw	r12,52(sp)
        stw   r13, 56(sp)
 280005c:	db400e15 	stw	r13,56(sp)
        stw   r14, 60(sp)
 2800060:	db800f15 	stw	r14,60(sp)
        stw   r15, 64(sp)
 2800064:	dbc01015 	stw	r15,64(sp)
        /*
         * ea-4 contains the address of the instruction being executed
         * when the exception occured. For interrupt exceptions, we will
         * will be re-issue the isntruction. Store it in 72(sp)
         */
        stw   r5,  68(sp)  /* estatus */
 2800068:	d9401115 	stw	r5,68(sp)
        addi  r15, ea, -4  /* instruction that caused exception */
 280006c:	ebffff04 	addi	r15,ea,-4
        stw   r15,  72(sp)
 2800070:	dbc01215 	stw	r15,72(sp)
#else
        /*
         * Test to see if the exception was a software exception or caused 
         * by an external interrupt, and vector accordingly.
         */
        rdctl r4, ipending
 2800074:	0009313a 	rdctl	r4,ipending
        andi  r2, r5, 1
 2800078:	2880004c 	andi	r2,r5,1
        beq   r2, zero, .Lnot_irq
 280007c:	10000326 	beq	r2,zero,280008c <alt_exception+0x6c>
        beq   r4, zero, .Lnot_irq
 2800080:	20000226 	beq	r4,zero,280008c <alt_exception+0x6c>
        /*
         * Now that all necessary registers have been preserved, call 
         * alt_irq_handler() to process the interrupts.
         */

        call alt_irq_handler
 2800084:	28000ec0 	call	28000ec <alt_irq_handler>

        .section .exceptions.irqreturn, "xa"

        br    .Lexception_exit
 2800088:	00000306 	br	2800098 <alt_exception+0x78>
         * upon completion, so we write ea (address of instruction *after*
         * the one where the exception occured) into 72(sp). The actual
         * instruction that caused the exception is written in r2, which these
         * handlers will utilize.
         */
        stw   ea,  72(sp)  /* Don't re-issue */
 280008c:	df401215 	stw	ea,72(sp)
        ldw   r2, -4(ea)   /* Instruction that caused exception */
 2800090:	e8bfff17 	ldw	r2,-4(ea)
#ifdef NIOS2_HAS_DEBUG_STUB
       /*
        *  Either tell the user now (if there is a debugger attached) or go into
        *  the debug monitor which will loop until a debugger is attached.
        */
        break
 2800094:	003da03a 	break	0
        /* 
         * Restore the saved registers, so that all general purpose registers 
         * have been restored to their state at the time the interrupt occured.
         */

        ldw   r5,  68(sp)
 2800098:	d9401117 	ldw	r5,68(sp)
        ldw   ea,  72(sp)  /* This becomes the PC once eret is executed */
 280009c:	df401217 	ldw	ea,72(sp)
        ldw   ra,   0(sp)
 28000a0:	dfc00017 	ldw	ra,0(sp)

        wrctl estatus, r5
 28000a4:	2801707a 	wrctl	estatus,r5

        ldw   r1,   8(sp)
 28000a8:	d8400217 	ldw	at,8(sp)
        ldw   r2,  12(sp)
 28000ac:	d8800317 	ldw	r2,12(sp)
        ldw   r3,  16(sp)
 28000b0:	d8c00417 	ldw	r3,16(sp)
        ldw   r4,  20(sp)
 28000b4:	d9000517 	ldw	r4,20(sp)
        ldw   r5,  24(sp)
 28000b8:	d9400617 	ldw	r5,24(sp)
        ldw   r6,  28(sp)
 28000bc:	d9800717 	ldw	r6,28(sp)
        ldw   r7,  32(sp)
 28000c0:	d9c00817 	ldw	r7,32(sp)
#ifdef ALT_STACK_CHECK
        ldw   et, %gprel(alt_exception_old_stack_limit)(gp)
#endif
#endif

        ldw   r8,  36(sp)
 28000c4:	da000917 	ldw	r8,36(sp)
        ldw   r9,  40(sp)
 28000c8:	da400a17 	ldw	r9,40(sp)
        ldw   r10, 44(sp)
 28000cc:	da800b17 	ldw	r10,44(sp)
        ldw   r11, 48(sp)
 28000d0:	dac00c17 	ldw	r11,48(sp)
        ldw   r12, 52(sp)
 28000d4:	db000d17 	ldw	r12,52(sp)
        ldw   r13, 56(sp)
 28000d8:	db400e17 	ldw	r13,56(sp)
        ldw   r14, 60(sp)
 28000dc:	db800f17 	ldw	r14,60(sp)
        ldw   r15, 64(sp)
 28000e0:	dbc01017 	ldw	r15,64(sp)
#endif

        ldw   sp,  76(sp)

#else
        addi  sp, sp, 76
 28000e4:	dec01304 	addi	sp,sp,76

        /*
         * Return to the interrupted instruction.
         */

        eret
 28000e8:	ef80083a 	eret

028000ec <alt_irq_handler>:
 * instruction is present if the macro ALT_CI_INTERRUPT_VECTOR defined.
 */

void alt_irq_handler (void) __attribute__ ((section (".exceptions")));
void alt_irq_handler (void)
{
 28000ec:	defff904 	addi	sp,sp,-28
 28000f0:	dfc00615 	stw	ra,24(sp)
 28000f4:	df000515 	stw	fp,20(sp)
 28000f8:	df000504 	addi	fp,sp,20
#ifndef NIOS2_EIC_PRESENT
static ALT_INLINE alt_u32 ALT_ALWAYS_INLINE alt_irq_pending (void)
{
  alt_u32 active;

  NIOS2_READ_IPENDING (active);
 28000fc:	0005313a 	rdctl	r2,ipending
 2800100:	e0bffc15 	stw	r2,-16(fp)

  return active;
 2800104:	e0bffc17 	ldw	r2,-16(fp)
   * Consider the case where the high priority interupt is asserted during
   * the interrupt entry sequence for a lower priority interrupt to see why
   * this is the case.
   */

  active = alt_irq_pending ();
 2800108:	e0bfff15 	stw	r2,-4(fp)

  do
  {
    i = 0;
 280010c:	e03ffd15 	stw	zero,-12(fp)
    mask = 1;
 2800110:	00800044 	movi	r2,1
 2800114:	e0bffe15 	stw	r2,-8(fp)
     * called to clear the interrupt condition.
     */

    do
    {
      if (active & mask)
 2800118:	e0ffff17 	ldw	r3,-4(fp)
 280011c:	e0bffe17 	ldw	r2,-8(fp)
 2800120:	1884703a 	and	r2,r3,r2
 2800124:	1005003a 	cmpeq	r2,r2,zero
 2800128:	1000161e 	bne	r2,zero,2800184 <alt_irq_handler+0x98>
      { 
#ifdef ALT_ENHANCED_INTERRUPT_API_PRESENT
        alt_irq[i].handler(alt_irq[i].context); 
 280012c:	e0bffd17 	ldw	r2,-12(fp)
 2800130:	00c0a074 	movhi	r3,641
 2800134:	18d34a04 	addi	r3,r3,19752
 2800138:	100490fa 	slli	r2,r2,3
 280013c:	10c5883a 	add	r2,r2,r3
 2800140:	11400017 	ldw	r5,0(r2)
 2800144:	e0bffd17 	ldw	r2,-12(fp)
 2800148:	00c0a074 	movhi	r3,641
 280014c:	18d34a04 	addi	r3,r3,19752
 2800150:	100490fa 	slli	r2,r2,3
 2800154:	10c5883a 	add	r2,r2,r3
 2800158:	10800104 	addi	r2,r2,4
 280015c:	11000017 	ldw	r4,0(r2)
 2800160:	283ee83a 	callr	r5
#ifndef NIOS2_EIC_PRESENT
static ALT_INLINE alt_u32 ALT_ALWAYS_INLINE alt_irq_pending (void)
{
  alt_u32 active;

  NIOS2_READ_IPENDING (active);
 2800164:	0005313a 	rdctl	r2,ipending
 2800168:	e0bffb15 	stw	r2,-20(fp)

  return active;
 280016c:	e0bffb17 	ldw	r2,-20(fp)
      mask <<= 1;
      i++;

    } while (1);

    active = alt_irq_pending ();
 2800170:	e0bfff15 	stw	r2,-4(fp)
    
  } while (active);
 2800174:	e0bfff17 	ldw	r2,-4(fp)
 2800178:	1004c03a 	cmpne	r2,r2,zero
 280017c:	103fe31e 	bne	r2,zero,280010c <alt_irq_handler+0x20>
 2800180:	00000706 	br	28001a0 <alt_irq_handler+0xb4>
#else
        alt_irq[i].handler(alt_irq[i].context, i); 
#endif
        break;
      }
      mask <<= 1;
 2800184:	e0bffe17 	ldw	r2,-8(fp)
 2800188:	1085883a 	add	r2,r2,r2
 280018c:	e0bffe15 	stw	r2,-8(fp)
      i++;
 2800190:	e0bffd17 	ldw	r2,-12(fp)
 2800194:	10800044 	addi	r2,r2,1
 2800198:	e0bffd15 	stw	r2,-12(fp)

    } while (1);
 280019c:	003fde06 	br	2800118 <alt_irq_handler+0x2c>
  /*
   * Notify the operating system that interrupt processing is complete.
   */ 

  ALT_OS_INT_EXIT();
}
 28001a0:	e037883a 	mov	sp,fp
 28001a4:	dfc00117 	ldw	ra,4(sp)
 28001a8:	df000017 	ldw	fp,0(sp)
 28001ac:	dec00204 	addi	sp,sp,8
 28001b0:	f800283a 	ret

Disassembly of section .text:

028001b4 <_start>:
#if (NIOS2_NUM_OF_SHADOW_REG_SETS == 0)    
    /*
     * Now that the caches are initialized, set up the stack pointer.
     * The value provided by the linker is assumed to be correctly aligned.
     */
    movhi sp, %hi(__alt_stack_pointer)
 28001b4:	06c0c034 	movhi	sp,768
    ori sp, sp, %lo(__alt_stack_pointer)
 28001b8:	dec00014 	ori	sp,sp,0

    /* Set up the global pointer. */
    movhi gp, %hi(_gp)
 28001bc:	0680a074 	movhi	gp,641
    ori gp, gp, %lo(_gp)
 28001c0:	d6a90a14 	ori	gp,gp,42024
 */
#ifndef ALT_SIM_OPTIMIZE
    /* Log that the BSS is about to be cleared. */
    ALT_LOG_PUTS(alt_log_msg_bss)

    movhi r2, %hi(__bss_start)
 28001c4:	0080a074 	movhi	r2,641
    ori r2, r2, %lo(__bss_start)
 28001c8:	10931a14 	ori	r2,r2,19560

    movhi r3, %hi(__bss_end)
 28001cc:	00c0a074 	movhi	r3,641
    ori r3, r3, %lo(__bss_end)
 28001d0:	18d3ee14 	ori	r3,r3,20408

    beq r2, r3, 1f
 28001d4:	10c00326 	beq	r2,r3,28001e4 <_start+0x30>

0:
    stw zero, (r2)
 28001d8:	10000015 	stw	zero,0(r2)
    addi r2, r2, 4
 28001dc:	10800104 	addi	r2,r2,4
    bltu r2, r3, 0b
 28001e0:	10fffd36 	bltu	r2,r3,28001d8 <_start+0x24>
     * section aren't defined until alt_load() has been called).
     */
    mov   et, zero
#endif

    call alt_load
 28001e4:	280c2900 	call	280c290 <alt_load>

    /* Log that alt_main is about to be called. */
    ALT_LOG_PUTS(alt_log_msg_alt_main)

    /* Call the C entry point. It should never return. */
    call alt_main
 28001e8:	280c4d00 	call	280c4d0 <alt_main>

028001ec <alt_after_alt_main>:

    /* Wait in infinite loop in case alt_main does return. */
alt_after_alt_main:
    br alt_after_alt_main
 28001ec:	003fff06 	br	28001ec <alt_after_alt_main>

028001f0 <star_display>:
void star_display(int i)
{
 28001f0:	defffa04 	addi	sp,sp,-24
 28001f4:	df000515 	stw	fp,20(sp)
 28001f8:	df000504 	addi	fp,sp,20
 28001fc:	e13fff15 	stw	r4,-4(fp)
	 int num0,num1,num2,num3;

		switch(i)
 2800200:	e0bfff17 	ldw	r2,-4(fp)
 2800204:	10800168 	cmpgeui	r2,r2,5
 2800208:	1000351e 	bne	r2,zero,28002e0 <star_display+0xf0>
 280020c:	e0bfff17 	ldw	r2,-4(fp)
 2800210:	1085883a 	add	r2,r2,r2
 2800214:	1087883a 	add	r3,r2,r2
 2800218:	0080a034 	movhi	r2,640
 280021c:	10808b04 	addi	r2,r2,556
 2800220:	1885883a 	add	r2,r3,r2
 2800224:	10800017 	ldw	r2,0(r2)
 2800228:	1000683a 	jmp	r2
 280022c:	02800240 	call	280024 <__alt_mem_sdram_ctrl-0x257ffdc>
 2800230:	02800264 	muli	r10,zero,9
 2800234:	02800284 	movi	r10,10
 2800238:	028002a4 	muli	r10,zero,10
 280023c:	028002c4 	movi	r10,11
		{
		case 0:
			num3=0x73;
 2800240:	00801cc4 	movi	r2,115
 2800244:	e0bffb15 	stw	r2,-20(fp)
			num2=0x38;
 2800248:	00800e04 	movi	r2,56
 280024c:	e0bffc15 	stw	r2,-16(fp)
			num1=0x77;
 2800250:	00801dc4 	movi	r2,119
 2800254:	e0bffd15 	stw	r2,-12(fp)
			num0=0x6E;
 2800258:	00801b84 	movi	r2,110
 280025c:	e0bffe15 	stw	r2,-8(fp)
			break;
 2800260:	00001f06 	br	28002e0 <star_display+0xf0>
		case 1:
			num3=0x38;
 2800264:	00800e04 	movi	r2,56
 2800268:	e0bffb15 	stw	r2,-20(fp)
			num2=0x77;
 280026c:	00801dc4 	movi	r2,119
 2800270:	e0bffc15 	stw	r2,-16(fp)
			num1=0x6E;
 2800274:	00801b84 	movi	r2,110
 2800278:	e0bffd15 	stw	r2,-12(fp)
			num0=0x0;
 280027c:	e03ffe15 	stw	zero,-8(fp)
			break;
 2800280:	00001706 	br	28002e0 <star_display+0xf0>
		case 2:
			num3=0x77;
 2800284:	00801dc4 	movi	r2,119
 2800288:	e0bffb15 	stw	r2,-20(fp)
			num2=0x6E;
 280028c:	00801b84 	movi	r2,110
 2800290:	e0bffc15 	stw	r2,-16(fp)
			num1=0x0;
 2800294:	e03ffd15 	stw	zero,-12(fp)
			num0=0x73;
 2800298:	00801cc4 	movi	r2,115
 280029c:	e0bffe15 	stw	r2,-8(fp)
			break;
 28002a0:	00000f06 	br	28002e0 <star_display+0xf0>
		case 3:
			num3=0x6E;
 28002a4:	00801b84 	movi	r2,110
 28002a8:	e0bffb15 	stw	r2,-20(fp)
			num2=0x0;
 28002ac:	e03ffc15 	stw	zero,-16(fp)
			num1=0x73;
 28002b0:	00801cc4 	movi	r2,115
 28002b4:	e0bffd15 	stw	r2,-12(fp)
			num0=0x38;
 28002b8:	00800e04 	movi	r2,56
 28002bc:	e0bffe15 	stw	r2,-8(fp)
			break;
 28002c0:	00000706 	br	28002e0 <star_display+0xf0>
		case 4:
			num3=0x0;
 28002c4:	e03ffb15 	stw	zero,-20(fp)
			num2=0x73;
 28002c8:	00801cc4 	movi	r2,115
 28002cc:	e0bffc15 	stw	r2,-16(fp)
			num1=0x38;
 28002d0:	00800e04 	movi	r2,56
 28002d4:	e0bffd15 	stw	r2,-12(fp)
			num0=0x77;
 28002d8:	00801dc4 	movi	r2,119
 28002dc:	e0bffe15 	stw	r2,-8(fp)
			break;
		}
		IOWR(HEX0_BASE,0,~num0);
 28002e0:	e0bffe17 	ldw	r2,-8(fp)
 28002e4:	0086303a 	nor	r3,zero,r2
 28002e8:	00804034 	movhi	r2,256
 28002ec:	10801c04 	addi	r2,r2,112
 28002f0:	10c00035 	stwio	r3,0(r2)
		IOWR(HEX1_BASE,0,~num1);
 28002f4:	e0bffd17 	ldw	r2,-12(fp)
 28002f8:	0086303a 	nor	r3,zero,r2
 28002fc:	00804034 	movhi	r2,256
 2800300:	10801804 	addi	r2,r2,96
 2800304:	10c00035 	stwio	r3,0(r2)
		IOWR(HEX2_BASE,0,~num2);
 2800308:	e0bffc17 	ldw	r2,-16(fp)
 280030c:	0086303a 	nor	r3,zero,r2
 2800310:	00804034 	movhi	r2,256
 2800314:	10801404 	addi	r2,r2,80
 2800318:	10c00035 	stwio	r3,0(r2)
		IOWR(HEX3_BASE,0,~num3);
 280031c:	e0bffb17 	ldw	r2,-20(fp)
 2800320:	0086303a 	nor	r3,zero,r2
 2800324:	00804034 	movhi	r2,256
 2800328:	10801004 	addi	r2,r2,64
 280032c:	10c00035 	stwio	r3,0(r2)

}
 2800330:	e037883a 	mov	sp,fp
 2800334:	df000017 	ldw	fp,0(sp)
 2800338:	dec00104 	addi	sp,sp,4
 280033c:	f800283a 	ret

02800340 <end_display>:
void end_display(int i)
{
 2800340:	defff904 	addi	sp,sp,-28
 2800344:	df000615 	stw	fp,24(sp)
 2800348:	df000604 	addi	fp,sp,24
 280034c:	e13fff15 	stw	r4,-4(fp)
	 int num0,num1,num2,num3,a;

		switch(i)
 2800350:	e0bfff17 	ldw	r2,-4(fp)
 2800354:	108005a8 	cmpgeui	r2,r2,22
 2800358:	10009a1e 	bne	r2,zero,28005c4 <end_display+0x284>
 280035c:	e0bfff17 	ldw	r2,-4(fp)
 2800360:	1085883a 	add	r2,r2,r2
 2800364:	1087883a 	add	r3,r2,r2
 2800368:	0080a034 	movhi	r2,640
 280036c:	1080df04 	addi	r2,r2,892
 2800370:	1885883a 	add	r2,r3,r2
 2800374:	10800017 	ldw	r2,0(r2)
 2800378:	1000683a 	jmp	r2
 280037c:	028003d4 	movui	r10,15
 2800380:	028003d4 	movui	r10,15
 2800384:	028003d4 	movui	r10,15
 2800388:	028003d4 	movui	r10,15
 280038c:	02800418 	cmpnei	r10,zero,16
 2800390:	02800430 	cmpltui	r10,zero,16
 2800394:	02800448 	cmpgei	r10,zero,17
 2800398:	02800448 	cmpgei	r10,zero,17
 280039c:	02800448 	cmpgei	r10,zero,17
 28003a0:	02800490 	cmplti	r10,zero,18
 28003a4:	028004a8 	cmpgeui	r10,zero,18
 28003a8:	028004c0 	call	28004c <__alt_mem_sdram_ctrl-0x257ffb4>
 28003ac:	028004d8 	cmpnei	r10,zero,19
 28003b0:	028004ec 	andhi	r10,zero,19
 28003b4:	02800504 	movi	r10,20
 28003b8:	0280051c 	xori	r10,zero,20
 28003bc:	02800534 	movhi	r10,20
 28003c0:	0280054c 	andi	r10,zero,21
 28003c4:	02800564 	muli	r10,zero,21
 28003c8:	0280057c 	xorhi	r10,zero,21
 28003cc:	02800594 	movui	r10,22
 28003d0:	028005ac 	andhi	r10,zero,22
		{
		case 0:
		case 1:
		case 2:
		case 3:
			num0=1;
 28003d4:	00800044 	movi	r2,1
 28003d8:	e0bffe15 	stw	r2,-8(fp)
			for(a=0;a<i;a++){
 28003dc:	e03ffa15 	stw	zero,-24(fp)
 28003e0:	00000606 	br	28003fc <end_display+0xbc>
				num0=num0<<1;
 28003e4:	e0bffe17 	ldw	r2,-8(fp)
 28003e8:	1085883a 	add	r2,r2,r2
 28003ec:	e0bffe15 	stw	r2,-8(fp)
		case 0:
		case 1:
		case 2:
		case 3:
			num0=1;
			for(a=0;a<i;a++){
 28003f0:	e0bffa17 	ldw	r2,-24(fp)
 28003f4:	10800044 	addi	r2,r2,1
 28003f8:	e0bffa15 	stw	r2,-24(fp)
 28003fc:	e0fffa17 	ldw	r3,-24(fp)
 2800400:	e0bfff17 	ldw	r2,-4(fp)
 2800404:	18bff716 	blt	r3,r2,28003e4 <end_display+0xa4>
				num0=num0<<1;
			}
			num1=0x0;
 2800408:	e03ffd15 	stw	zero,-12(fp)
			num2=0x0;
 280040c:	e03ffc15 	stw	zero,-16(fp)
			num3=0x0;
 2800410:	e03ffb15 	stw	zero,-20(fp)
			break;
 2800414:	00006f06 	br	28005d4 <end_display+0x294>
		case 4:
			num0=0x0;
 2800418:	e03ffe15 	stw	zero,-8(fp)
			num1=0x8;
 280041c:	00800204 	movi	r2,8
 2800420:	e0bffd15 	stw	r2,-12(fp)
			num2=0x0;
 2800424:	e03ffc15 	stw	zero,-16(fp)
			num3=0x0;
 2800428:	e03ffb15 	stw	zero,-20(fp)
			break;
 280042c:	00006906 	br	28005d4 <end_display+0x294>
		case 5:
			num0=0x0;
 2800430:	e03ffe15 	stw	zero,-8(fp)
			num1=0x0;
 2800434:	e03ffd15 	stw	zero,-12(fp)
			num2=0x8;
 2800438:	00800204 	movi	r2,8
 280043c:	e0bffc15 	stw	r2,-16(fp)
			num3=0x0;
 2800440:	e03ffb15 	stw	zero,-20(fp)
			break;
 2800444:	00006306 	br	28005d4 <end_display+0x294>
		case 6:
		case 7:
		case 8:
			num3=4;
 2800448:	00800104 	movi	r2,4
 280044c:	e0bffb15 	stw	r2,-20(fp)
			for(a=0;a<i-5;a++){
 2800450:	e03ffa15 	stw	zero,-24(fp)
 2800454:	00000606 	br	2800470 <end_display+0x130>
				num3=num3<<1;
 2800458:	e0bffb17 	ldw	r2,-20(fp)
 280045c:	1085883a 	add	r2,r2,r2
 2800460:	e0bffb15 	stw	r2,-20(fp)
			break;
		case 6:
		case 7:
		case 8:
			num3=4;
			for(a=0;a<i-5;a++){
 2800464:	e0bffa17 	ldw	r2,-24(fp)
 2800468:	10800044 	addi	r2,r2,1
 280046c:	e0bffa15 	stw	r2,-24(fp)
 2800470:	e0bfff17 	ldw	r2,-4(fp)
 2800474:	10fffec4 	addi	r3,r2,-5
 2800478:	e0bffa17 	ldw	r2,-24(fp)
 280047c:	10fff616 	blt	r2,r3,2800458 <end_display+0x118>
				num3=num3<<1;
			}
			num1=0x0;
 2800480:	e03ffd15 	stw	zero,-12(fp)
			num2=0x0;
 2800484:	e03ffc15 	stw	zero,-16(fp)
			num0=0x0;
 2800488:	e03ffe15 	stw	zero,-8(fp)
			break;
 280048c:	00005106 	br	28005d4 <end_display+0x294>
		case 9:
			num0=0x0;
 2800490:	e03ffe15 	stw	zero,-8(fp)
			num1=0x0;
 2800494:	e03ffd15 	stw	zero,-12(fp)
			num2=0x0;
 2800498:	e03ffc15 	stw	zero,-16(fp)
			num3=0x1;
 280049c:	00800044 	movi	r2,1
 28004a0:	e0bffb15 	stw	r2,-20(fp)
			break;
 28004a4:	00004b06 	br	28005d4 <end_display+0x294>
		case 10:
			num0=0x0;
 28004a8:	e03ffe15 	stw	zero,-8(fp)
			num1=0x0;
 28004ac:	e03ffd15 	stw	zero,-12(fp)
			num2=0x1;
 28004b0:	00800044 	movi	r2,1
 28004b4:	e0bffc15 	stw	r2,-16(fp)
			num3=0x0;
 28004b8:	e03ffb15 	stw	zero,-20(fp)
			break;
 28004bc:	00004506 	br	28005d4 <end_display+0x294>
		case 11:
			num0=0x0;
 28004c0:	e03ffe15 	stw	zero,-8(fp)
			num1=0x1;
 28004c4:	00800044 	movi	r2,1
 28004c8:	e0bffd15 	stw	r2,-12(fp)
			num2=0x0;
 28004cc:	e03ffc15 	stw	zero,-16(fp)
			num3=0x0;
 28004d0:	e03ffb15 	stw	zero,-20(fp)
			break;
 28004d4:	00003f06 	br	28005d4 <end_display+0x294>
		case 12:
			num0=0x1;
 28004d8:	00800044 	movi	r2,1
 28004dc:	e0bffe15 	stw	r2,-8(fp)
			num1=0x0;
 28004e0:	e03ffd15 	stw	zero,-12(fp)
			num2=0x0;
 28004e4:	e03ffc15 	stw	zero,-16(fp)
			num3=0x0;
 28004e8:	e03ffb15 	stw	zero,-20(fp)
		case 13:
			num0=0x2;
 28004ec:	00800084 	movi	r2,2
 28004f0:	e0bffe15 	stw	r2,-8(fp)
			num1=0x0;
 28004f4:	e03ffd15 	stw	zero,-12(fp)
			num2=0x0;
 28004f8:	e03ffc15 	stw	zero,-16(fp)
			num3=0x0;
 28004fc:	e03ffb15 	stw	zero,-20(fp)
			break;
 2800500:	00003406 	br	28005d4 <end_display+0x294>
		case 14:
			num0=0x40;
 2800504:	00801004 	movi	r2,64
 2800508:	e0bffe15 	stw	r2,-8(fp)
			num1=0x0;
 280050c:	e03ffd15 	stw	zero,-12(fp)
			num2=0x0;
 2800510:	e03ffc15 	stw	zero,-16(fp)
			num3=0x0;
 2800514:	e03ffb15 	stw	zero,-20(fp)
			break;
 2800518:	00002e06 	br	28005d4 <end_display+0x294>
		case 15:
			num0=0x0;
 280051c:	e03ffe15 	stw	zero,-8(fp)
			num1=0x40;
 2800520:	00801004 	movi	r2,64
 2800524:	e0bffd15 	stw	r2,-12(fp)
			num2=0x0;
 2800528:	e03ffc15 	stw	zero,-16(fp)
			num3=0x0;
 280052c:	e03ffb15 	stw	zero,-20(fp)
			break;
 2800530:	00002806 	br	28005d4 <end_display+0x294>
		case 16:
			num0=0x0;
 2800534:	e03ffe15 	stw	zero,-8(fp)
			num1=0x0;
 2800538:	e03ffd15 	stw	zero,-12(fp)
			num2=0x40;
 280053c:	00801004 	movi	r2,64
 2800540:	e0bffc15 	stw	r2,-16(fp)
			num3=0x0;
 2800544:	e03ffb15 	stw	zero,-20(fp)
			break;
 2800548:	00002206 	br	28005d4 <end_display+0x294>
		case 17:
			num0=0x0;
 280054c:	e03ffe15 	stw	zero,-8(fp)
			num1=0x0;
 2800550:	e03ffd15 	stw	zero,-12(fp)
			num2=0x0;
 2800554:	e03ffc15 	stw	zero,-16(fp)
			num3=0x40;
 2800558:	00801004 	movi	r2,64
 280055c:	e0bffb15 	stw	r2,-20(fp)
			break;
 2800560:	00001c06 	br	28005d4 <end_display+0x294>
		case 18:
			num0=0x0;
 2800564:	e03ffe15 	stw	zero,-8(fp)
			num1=0x0;
 2800568:	e03ffd15 	stw	zero,-12(fp)
			num2=0x0;
 280056c:	e03ffc15 	stw	zero,-16(fp)
			num3=0x20;
 2800570:	00800804 	movi	r2,32
 2800574:	e0bffb15 	stw	r2,-20(fp)
			break;
 2800578:	00001606 	br	28005d4 <end_display+0x294>
		case 19:
			num0=0x0;
 280057c:	e03ffe15 	stw	zero,-8(fp)
			num1=0x0;
 2800580:	e03ffd15 	stw	zero,-12(fp)
			num2=0x0;
 2800584:	e03ffc15 	stw	zero,-16(fp)
			num3=0x1;
 2800588:	00800044 	movi	r2,1
 280058c:	e0bffb15 	stw	r2,-20(fp)
			break;
 2800590:	00001006 	br	28005d4 <end_display+0x294>
		case 20:
			num0=0x0;
 2800594:	e03ffe15 	stw	zero,-8(fp)
			num1=0x0;
 2800598:	e03ffd15 	stw	zero,-12(fp)
			num2=0x1;
 280059c:	00800044 	movi	r2,1
 28005a0:	e0bffc15 	stw	r2,-16(fp)
			num3=0x0;
 28005a4:	e03ffb15 	stw	zero,-20(fp)
			break;
 28005a8:	00000a06 	br	28005d4 <end_display+0x294>
		case 21:
			num0=0x0;
 28005ac:	e03ffe15 	stw	zero,-8(fp)
			num1=0x1;
 28005b0:	00800044 	movi	r2,1
 28005b4:	e0bffd15 	stw	r2,-12(fp)
			num2=0x0;
 28005b8:	e03ffc15 	stw	zero,-16(fp)
			num3=0x0;
 28005bc:	e03ffb15 	stw	zero,-20(fp)
			break;
 28005c0:	00000406 	br	28005d4 <end_display+0x294>
		default:
			num0=0x0;
 28005c4:	e03ffe15 	stw	zero,-8(fp)
			num1=0x0;
 28005c8:	e03ffd15 	stw	zero,-12(fp)
			num2=0x0;
 28005cc:	e03ffc15 	stw	zero,-16(fp)
			num3=0x0;
 28005d0:	e03ffb15 	stw	zero,-20(fp)
			break;
		}
		IOWR(HEX0_BASE,0,~num0);
 28005d4:	e0bffe17 	ldw	r2,-8(fp)
 28005d8:	0086303a 	nor	r3,zero,r2
 28005dc:	00804034 	movhi	r2,256
 28005e0:	10801c04 	addi	r2,r2,112
 28005e4:	10c00035 	stwio	r3,0(r2)
		IOWR(HEX1_BASE,0,~num1);
 28005e8:	e0bffd17 	ldw	r2,-12(fp)
 28005ec:	0086303a 	nor	r3,zero,r2
 28005f0:	00804034 	movhi	r2,256
 28005f4:	10801804 	addi	r2,r2,96
 28005f8:	10c00035 	stwio	r3,0(r2)
		IOWR(HEX2_BASE,0,~num2);
 28005fc:	e0bffc17 	ldw	r2,-16(fp)
 2800600:	0086303a 	nor	r3,zero,r2
 2800604:	00804034 	movhi	r2,256
 2800608:	10801404 	addi	r2,r2,80
 280060c:	10c00035 	stwio	r3,0(r2)
		IOWR(HEX3_BASE,0,~num3);
 2800610:	e0bffb17 	ldw	r2,-20(fp)
 2800614:	0086303a 	nor	r3,zero,r2
 2800618:	00804034 	movhi	r2,256
 280061c:	10801004 	addi	r2,r2,64
 2800620:	10c00035 	stwio	r3,0(r2)

}
 2800624:	e037883a 	mov	sp,fp
 2800628:	df000017 	ldw	fp,0(sp)
 280062c:	dec00104 	addi	sp,sp,4
 2800630:	f800283a 	ret

02800634 <DoEnablePIOInterrupt>:
void PIOISRInitial(sPIO_s *spio ); /* initial pio ISR function */
void PIOISR(sPIO_s *spio, unsigned int id); /* pio ISR */

//Enable pio Interrupt Routine
void DoEnablePIOInterrupt(sPIO_s *spio)
{
 2800634:	defffc04 	addi	sp,sp,-16
 2800638:	dfc00315 	stw	ra,12(sp)
 280063c:	df000215 	stw	fp,8(sp)
 2800640:	df000204 	addi	fp,sp,8
 2800644:	e13fff15 	stw	r4,-4(fp)
    int i;
#ifdef BUTTON1_BASE
    //printf("[MSG][pio]Find BUTTON and start initial pio interrupt.\n");

    i = alt_irq_register( spio->uiIRQ,    /* register IRQ number */
 2800648:	e0bfff17 	ldw	r2,-4(fp)
 280064c:	11000117 	ldw	r4,4(r2)
 2800650:	e0bfff17 	ldw	r2,-4(fp)
 2800654:	10800717 	ldw	r2,28(r2)
 2800658:	100d883a 	mov	r6,r2
 280065c:	e17fff17 	ldw	r5,-4(fp)
 2800660:	280bfac0 	call	280bfac <alt_irq_register>
 2800664:	e0bffe15 	stw	r2,-8(fp)
                          spio,           /* pointer to any passed context */
                          spio->ISRFun_p);/* register ISR function */
    /* Setting pio interrupt register */
    IOWR(spio->uiBase, 2, 0x07); /* Set buttion[2:0] pio interrupt */
 2800668:	e0bfff17 	ldw	r2,-4(fp)
 280066c:	10800017 	ldw	r2,0(r2)
 2800670:	10800204 	addi	r2,r2,8
 2800674:	1007883a 	mov	r3,r2
 2800678:	008001c4 	movi	r2,7
 280067c:	18800035 	stwio	r2,0(r3)
    IOWR(spio->uiBase, 3, 0);  /* Clear edgecapture flag */
 2800680:	e0bfff17 	ldw	r2,-4(fp)
 2800684:	10800017 	ldw	r2,0(r2)
 2800688:	10800304 	addi	r2,r2,12
 280068c:	10000035 	stwio	zero,0(r2)
    //printf("[MSG][pio]pio interrupt is activated.\n");
#else
    printf("[MSG][pio]Can't find BUTTON pio peripheral. \n");
#endif
}
 2800690:	e037883a 	mov	sp,fp
 2800694:	dfc00117 	ldw	ra,4(sp)
 2800698:	df000017 	ldw	fp,0(sp)
 280069c:	dec00204 	addi	sp,sp,8
 28006a0:	f800283a 	ret

028006a4 <DoDisablePIOInterrupt>:

void DoDisablePIOInterrupt(sPIO_s *spio)/* disable pio interrupt */
{
 28006a4:	defffd04 	addi	sp,sp,-12
 28006a8:	dfc00215 	stw	ra,8(sp)
 28006ac:	df000115 	stw	fp,4(sp)
 28006b0:	df000104 	addi	fp,sp,4
 28006b4:	e13fff15 	stw	r4,-4(fp)
     alt_irq_register(spio->uiIRQ, 0, 0); /* disable pio */
 28006b8:	e0bfff17 	ldw	r2,-4(fp)
 28006bc:	11000117 	ldw	r4,4(r2)
 28006c0:	000b883a 	mov	r5,zero
 28006c4:	000d883a 	mov	r6,zero
 28006c8:	280bfac0 	call	280bfac <alt_irq_register>
     IOWR(spio->uiBase, 2, 0); /* Stop pio Interrupt */
 28006cc:	e0bfff17 	ldw	r2,-4(fp)
 28006d0:	10800017 	ldw	r2,0(r2)
 28006d4:	10800204 	addi	r2,r2,8
 28006d8:	10000035 	stwio	zero,0(r2)
     printf("[MSG][pio]pio interrupt is disabled.\n");
 28006dc:	0100a074 	movhi	r4,641
 28006e0:	213de704 	addi	r4,r4,-2148
 28006e4:	28023380 	call	2802338 <puts>
}
 28006e8:	e037883a 	mov	sp,fp
 28006ec:	dfc00117 	ldw	ra,4(sp)
 28006f0:	df000017 	ldw	fp,0(sp)
 28006f4:	dec00204 	addi	sp,sp,8
 28006f8:	f800283a 	ret

028006fc <PIOISRInitial>:


void PIOISRInitial(sPIO_s *spio ){
 28006fc:	defffd04 	addi	sp,sp,-12
 2800700:	dfc00215 	stw	ra,8(sp)
 2800704:	df000115 	stw	fp,4(sp)
 2800708:	df000104 	addi	fp,sp,4
 280070c:	e13fff15 	stw	r4,-4(fp)
    // initial pio
    #ifdef BUTTON1_BASE
       // printf("[MSG][pio]Find BTTON pio and start initial process.\n");
        spio->uiBase = BUTTON1_BASE;  /* store button base 	 	  */
 2800710:	e0ffff17 	ldw	r3,-4(fp)
 2800714:	00804034 	movhi	r2,256
 2800718:	10802404 	addi	r2,r2,144
 280071c:	18800015 	stw	r2,0(r3)
        spio->uiIRQ  = BUTTON1_IRQ;   /* store button IRQ number   */
 2800720:	e0ffff17 	ldw	r3,-4(fp)
 2800724:	00800104 	movi	r2,4
 2800728:	18800115 	stw	r2,4(r3)
        spio->uiData = 0;            /* set Data variable 		  */
 280072c:	e0bfff17 	ldw	r2,-4(fp)
 2800730:	10000215 	stw	zero,8(r2)
        spio->uiDirection= 0;        /* set Direction variable    */
 2800734:	e0bfff17 	ldw	r2,-4(fp)
 2800738:	10000315 	stw	zero,12(r2)
        spio->uiInterrupt = 0;       /* clear interrupt variable  */
 280073c:	e0bfff17 	ldw	r2,-4(fp)
 2800740:	10000415 	stw	zero,16(r2)
        spio->uiEdgeCapture = 0;     /* set edge capture variable */
 2800744:	e0bfff17 	ldw	r2,-4(fp)
 2800748:	10000515 	stw	zero,20(r2)
        spio->uiPressCnt = 0;     	 /* set edge capture variable */
 280074c:	e0bfff17 	ldw	r2,-4(fp)
 2800750:	10000615 	stw	zero,24(r2)
        spio->ISRFun_p = PIOISR;  	 /* set ISR function name 	  */
 2800754:	e0ffff17 	ldw	r3,-4(fp)
 2800758:	0080a034 	movhi	r2,640
 280075c:	1081e004 	addi	r2,r2,1920
 2800760:	18800715 	stw	r2,28(r3)
        DoEnablePIOInterrupt(spio);  /* Enable interrupt 		  */
 2800764:	e13fff17 	ldw	r4,-4(fp)
 2800768:	28006340 	call	2800634 <DoEnablePIOInterrupt>
    #else
        printf("[MSG][pio]Can't find BUTTON pio.\n");
    #endif
}
 280076c:	e037883a 	mov	sp,fp
 2800770:	dfc00117 	ldw	ra,4(sp)
 2800774:	df000017 	ldw	fp,0(sp)
 2800778:	dec00204 	addi	sp,sp,8
 280077c:	f800283a 	ret

02800780 <PIOISR>:

// adjust Freq base on phase
void PIOISR(sPIO_s *spio, unsigned int id) {
 2800780:	defffd04 	addi	sp,sp,-12
 2800784:	df000215 	stw	fp,8(sp)
 2800788:	df000204 	addi	fp,sp,8
 280078c:	e13ffe15 	stw	r4,-8(fp)
 2800790:	e17fff15 	stw	r5,-4(fp)
    IOWR(spio->uiBase, 3, 0);  /* Clear edgecapture flag */
 2800794:	e0bffe17 	ldw	r2,-8(fp)
 2800798:	10800017 	ldw	r2,0(r2)
 280079c:	10800304 	addi	r2,r2,12
 28007a0:	10000035 	stwio	zero,0(r2)
    spio->uiPressCnt++;        /* accumulate interrupt times */
 28007a4:	e0bffe17 	ldw	r2,-8(fp)
 28007a8:	10800617 	ldw	r2,24(r2)
 28007ac:	10c00044 	addi	r3,r2,1
 28007b0:	e0bffe17 	ldw	r2,-8(fp)
 28007b4:	10c00615 	stw	r3,24(r2)
}
 28007b8:	e037883a 	mov	sp,fp
 28007bc:	df000017 	ldw	fp,0(sp)
 28007c0:	dec00104 	addi	sp,sp,4
 28007c4:	f800283a 	ret

028007c8 <he0>:
int he0(int x);

int he0(int x)
{
 28007c8:	defffd04 	addi	sp,sp,-12
 28007cc:	df000215 	stw	fp,8(sp)
 28007d0:	df000204 	addi	fp,sp,8
 28007d4:	e13fff15 	stw	r4,-4(fp)
	int hex=0;
 28007d8:	e03ffe15 	stw	zero,-8(fp)
	switch(x)
 28007dc:	e0bfff17 	ldw	r2,-4(fp)
 28007e0:	108005a8 	cmpgeui	r2,r2,22
 28007e4:	10005f1e 	bne	r2,zero,2800964 <he0+0x19c>
 28007e8:	e0bfff17 	ldw	r2,-4(fp)
 28007ec:	1085883a 	add	r2,r2,r2
 28007f0:	1087883a 	add	r3,r2,r2
 28007f4:	0080a034 	movhi	r2,640
 28007f8:	10820204 	addi	r2,r2,2056
 28007fc:	1885883a 	add	r2,r3,r2
 2800800:	10800017 	ldw	r2,0(r2)
 2800804:	1000683a 	jmp	r2
 2800808:	02800860 	cmpeqi	r10,zero,33
 280080c:	0280086c 	andhi	r10,zero,33
 2800810:	02800878 	rdprs	r10,zero,33
 2800814:	02800884 	movi	r10,34
 2800818:	02800890 	cmplti	r10,zero,34
 280081c:	0280089c 	xori	r10,zero,34
 2800820:	028008a8 	cmpgeui	r10,zero,34
 2800824:	028008b4 	movhi	r10,34
 2800828:	028008c0 	call	28008c <__alt_mem_sdram_ctrl-0x257ff74>
 280082c:	028008cc 	andi	r10,zero,35
 2800830:	028008d8 	cmpnei	r10,zero,35
 2800834:	028008e4 	muli	r10,zero,35
 2800838:	028008f0 	cmpltui	r10,zero,35
 280083c:	028008fc 	xorhi	r10,zero,35
 2800840:	02800908 	cmpgei	r10,zero,36
 2800844:	02800914 	movui	r10,36
 2800848:	02800920 	cmpeqi	r10,zero,36
 280084c:	0280092c 	andhi	r10,zero,36
 2800850:	02800938 	rdprs	r10,zero,36
 2800854:	02800944 	movi	r10,37
 2800858:	02800950 	cmplti	r10,zero,37
 280085c:	0280095c 	xori	r10,zero,37
	{
		case 0:
			hex=0x3F;
 2800860:	00800fc4 	movi	r2,63
 2800864:	e0bffe15 	stw	r2,-8(fp)
			break;
 2800868:	00003e06 	br	2800964 <he0+0x19c>
		case 1:
			hex=0x06;
 280086c:	00800184 	movi	r2,6
 2800870:	e0bffe15 	stw	r2,-8(fp)
			break;
 2800874:	00003b06 	br	2800964 <he0+0x19c>
		case 2:
			hex=0x5B;
 2800878:	008016c4 	movi	r2,91
 280087c:	e0bffe15 	stw	r2,-8(fp)
			break;
 2800880:	00003806 	br	2800964 <he0+0x19c>
		case 3:
			hex=0x4F;
 2800884:	008013c4 	movi	r2,79
 2800888:	e0bffe15 	stw	r2,-8(fp)
			break;
 280088c:	00003506 	br	2800964 <he0+0x19c>
		case 4:
			hex=0x66;
 2800890:	00801984 	movi	r2,102
 2800894:	e0bffe15 	stw	r2,-8(fp)
			break;
 2800898:	00003206 	br	2800964 <he0+0x19c>
		case 5:
			hex=0x6D;
 280089c:	00801b44 	movi	r2,109
 28008a0:	e0bffe15 	stw	r2,-8(fp)
			break;
 28008a4:	00002f06 	br	2800964 <he0+0x19c>
		case 6:
			hex=0x7D;
 28008a8:	00801f44 	movi	r2,125
 28008ac:	e0bffe15 	stw	r2,-8(fp)
			break;
 28008b0:	00002c06 	br	2800964 <he0+0x19c>
		case 7:
			hex=0x07;
 28008b4:	008001c4 	movi	r2,7
 28008b8:	e0bffe15 	stw	r2,-8(fp)
			break;
 28008bc:	00002906 	br	2800964 <he0+0x19c>
		case 8:
			hex=0x7F;
 28008c0:	00801fc4 	movi	r2,127
 28008c4:	e0bffe15 	stw	r2,-8(fp)
			break;
 28008c8:	00002606 	br	2800964 <he0+0x19c>
		case 9:
			hex=0x6F;
 28008cc:	00801bc4 	movi	r2,111
 28008d0:	e0bffe15 	stw	r2,-8(fp)
			break;
 28008d4:	00002306 	br	2800964 <he0+0x19c>
		case 10:
			hex=0x77;
 28008d8:	00801dc4 	movi	r2,119
 28008dc:	e0bffe15 	stw	r2,-8(fp)
			break;
 28008e0:	00002006 	br	2800964 <he0+0x19c>
		case 11:
			hex=0xF7;
 28008e4:	00803dc4 	movi	r2,247
 28008e8:	e0bffe15 	stw	r2,-8(fp)
			break;
 28008ec:	00001d06 	br	2800964 <he0+0x19c>
		case 12:
			hex=0xFC;
 28008f0:	00803f04 	movi	r2,252
 28008f4:	e0bffe15 	stw	r2,-8(fp)
			break;
 28008f8:	00001a06 	br	2800964 <he0+0x19c>
		case 13:
			hex=0xB9;
 28008fc:	00802e44 	movi	r2,185
 2800900:	e0bffe15 	stw	r2,-8(fp)
			break;
 2800904:	00001706 	br	2800964 <he0+0x19c>
		case 14:
			hex=0xDE;
 2800908:	00803784 	movi	r2,222
 280090c:	e0bffe15 	stw	r2,-8(fp)
			break;
 2800910:	00001406 	br	2800964 <he0+0x19c>
		case 15:
			hex=0xF9;
 2800914:	00803e44 	movi	r2,249
 2800918:	e0bffe15 	stw	r2,-8(fp)
			break;
 280091c:	00001106 	br	2800964 <he0+0x19c>
		case 16:
			hex=0xF1;
 2800920:	00803c44 	movi	r2,241
 2800924:	e0bffe15 	stw	r2,-8(fp)
			break;
 2800928:	00000e06 	br	2800964 <he0+0x19c>
		case 17:
			hex=0xEF;
 280092c:	00803bc4 	movi	r2,239
 2800930:	e0bffe15 	stw	r2,-8(fp)
			break;
 2800934:	00000b06 	br	2800964 <he0+0x19c>
		case 18:
			hex=0xF6;
 2800938:	00803d84 	movi	r2,246
 280093c:	e0bffe15 	stw	r2,-8(fp)
			break;
 2800940:	00000806 	br	2800964 <he0+0x19c>
		case 19:
			hex=0x86;
 2800944:	00802184 	movi	r2,134
 2800948:	e0bffe15 	stw	r2,-8(fp)
			break;
 280094c:	00000506 	br	2800964 <he0+0x19c>
		case 20:
			hex=0x8D;
 2800950:	00802344 	movi	r2,141
 2800954:	e0bffe15 	stw	r2,-8(fp)
			break;
 2800958:	00000206 	br	2800964 <he0+0x19c>
		case 21:
			hex=0xB8;
 280095c:	00802e04 	movi	r2,184
 2800960:	e0bffe15 	stw	r2,-8(fp)
			break;
	}
	return ~hex;
 2800964:	e0bffe17 	ldw	r2,-8(fp)
 2800968:	0084303a 	nor	r2,zero,r2
}
 280096c:	e037883a 	mov	sp,fp
 2800970:	df000017 	ldw	fp,0(sp)
 2800974:	dec00104 	addi	sp,sp,4
 2800978:	f800283a 	ret

0280097c <role_map3>:
		{1,0,0,1,0,0,0,0,0,1,0,1,0,0,0,1,2,1,0,0,1},
		{1,1,0,0,1,1,0,1,0,0,0,1,0,1,1,1,0,1,0,0,1},
		{1,1,1,0,0,0,0,1,1,1,0,0,0,0,0,1,0,0,0,1,1},
		{1,1,1,1,1,1,1,1,1,1,1,1,1,1,1,1,1,1,1,1,1}
};
void role_map3(tmp){
 280097c:	defff804 	addi	sp,sp,-32
 2800980:	dfc00715 	stw	ra,28(sp)
 2800984:	df000615 	stw	fp,24(sp)
 2800988:	dc400515 	stw	r17,20(sp)
 280098c:	dc000415 	stw	r16,16(sp)
 2800990:	df000404 	addi	fp,sp,16
 2800994:	e13ffc15 	stw	r4,-16(fp)
	tmp = sPIO.uiPressCnt;
 2800998:	0080a074 	movhi	r2,641
 280099c:	10934104 	addi	r2,r2,19716
 28009a0:	10800617 	ldw	r2,24(r2)
 28009a4:	e0bffc15 	stw	r2,-16(fp)
	while(1){
		bt2=IORD(BUTTON2_BASE,0);
 28009a8:	00804034 	movhi	r2,256
 28009ac:	10802004 	addi	r2,r2,128
 28009b0:	10800037 	ldwio	r2,0(r2)
 28009b4:	d0aa1a15 	stw	r2,-22424(gp)
		role=maze3[y][x];
 28009b8:	d1200117 	ldw	r4,-32764(gp)
 28009bc:	d4200017 	ldw	r16,-32768(gp)
 28009c0:	0440a074 	movhi	r17,641
 28009c4:	8c401a04 	addi	r17,r17,104
 28009c8:	014002c4 	movi	r5,11
 28009cc:	28021e80 	call	28021e8 <__mulsi3>
 28009d0:	1405883a 	add	r2,r2,r16
 28009d4:	1085883a 	add	r2,r2,r2
 28009d8:	1085883a 	add	r2,r2,r2
 28009dc:	1445883a 	add	r2,r2,r17
 28009e0:	10800017 	ldw	r2,0(r2)
 28009e4:	d0aa1215 	stw	r2,-22456(gp)
		up=maze3[y-1][x];
 28009e8:	d0a00117 	ldw	r2,-32764(gp)
 28009ec:	113fffc4 	addi	r4,r2,-1
 28009f0:	d4200017 	ldw	r16,-32768(gp)
 28009f4:	0440a074 	movhi	r17,641
 28009f8:	8c401a04 	addi	r17,r17,104
 28009fc:	014002c4 	movi	r5,11
 2800a00:	28021e80 	call	28021e8 <__mulsi3>
 2800a04:	1405883a 	add	r2,r2,r16
 2800a08:	1085883a 	add	r2,r2,r2
 2800a0c:	1085883a 	add	r2,r2,r2
 2800a10:	1445883a 	add	r2,r2,r17
 2800a14:	10800017 	ldw	r2,0(r2)
 2800a18:	d0aa1315 	stw	r2,-22452(gp)
		down=maze3[y+1][x];
 2800a1c:	d0a00117 	ldw	r2,-32764(gp)
 2800a20:	11000044 	addi	r4,r2,1
 2800a24:	d4200017 	ldw	r16,-32768(gp)
 2800a28:	0440a074 	movhi	r17,641
 2800a2c:	8c401a04 	addi	r17,r17,104
 2800a30:	014002c4 	movi	r5,11
 2800a34:	28021e80 	call	28021e8 <__mulsi3>
 2800a38:	1405883a 	add	r2,r2,r16
 2800a3c:	1085883a 	add	r2,r2,r2
 2800a40:	1085883a 	add	r2,r2,r2
 2800a44:	1445883a 	add	r2,r2,r17
 2800a48:	10800017 	ldw	r2,0(r2)
 2800a4c:	d0aa1415 	stw	r2,-22448(gp)
		lift=maze3[y][x-1];
 2800a50:	d1200117 	ldw	r4,-32764(gp)
 2800a54:	d0a00017 	ldw	r2,-32768(gp)
 2800a58:	143fffc4 	addi	r16,r2,-1
 2800a5c:	0440a074 	movhi	r17,641
 2800a60:	8c401a04 	addi	r17,r17,104
 2800a64:	014002c4 	movi	r5,11
 2800a68:	28021e80 	call	28021e8 <__mulsi3>
 2800a6c:	1405883a 	add	r2,r2,r16
 2800a70:	1085883a 	add	r2,r2,r2
 2800a74:	1085883a 	add	r2,r2,r2
 2800a78:	1445883a 	add	r2,r2,r17
 2800a7c:	10800017 	ldw	r2,0(r2)
 2800a80:	d0aa1515 	stw	r2,-22444(gp)
		right=maze3[y][x+1];
 2800a84:	d1200117 	ldw	r4,-32764(gp)
 2800a88:	d0a00017 	ldw	r2,-32768(gp)
 2800a8c:	14000044 	addi	r16,r2,1
 2800a90:	0440a074 	movhi	r17,641
 2800a94:	8c401a04 	addi	r17,r17,104
 2800a98:	014002c4 	movi	r5,11
 2800a9c:	28021e80 	call	28021e8 <__mulsi3>
 2800aa0:	1405883a 	add	r2,r2,r16
 2800aa4:	1085883a 	add	r2,r2,r2
 2800aa8:	1085883a 	add	r2,r2,r2
 2800aac:	1445883a 	add	r2,r2,r17
 2800ab0:	10800017 	ldw	r2,0(r2)
 2800ab4:	d0aa1615 	stw	r2,-22440(gp)
		if(tmp != sPIO.uiPressCnt){
 2800ab8:	e0fffc17 	ldw	r3,-16(fp)
 2800abc:	0080a074 	movhi	r2,641
 2800ac0:	10934104 	addi	r2,r2,19716
 2800ac4:	10800617 	ldw	r2,24(r2)
 2800ac8:	18804d26 	beq	r3,r2,2800c00 <role_map3+0x284>
			  tmp = sPIO.uiPressCnt;
 2800acc:	0080a074 	movhi	r2,641
 2800ad0:	10934104 	addi	r2,r2,19716
 2800ad4:	10800617 	ldw	r2,24(r2)
 2800ad8:	e0bffc15 	stw	r2,-16(fp)
			if(tmp%2==0){
 2800adc:	e0bffc17 	ldw	r2,-16(fp)
 2800ae0:	1080004c 	andi	r2,r2,1
 2800ae4:	1004c03a 	cmpne	r2,r2,zero
 2800ae8:	1000041e 	bne	r2,zero,2800afc <role_map3+0x180>
			  printf("\n start game \n");
 2800aec:	0100a074 	movhi	r4,641
 2800af0:	213df104 	addi	r4,r4,-2108
 2800af4:	28023380 	call	2802338 <puts>
 2800af8:	00004106 	br	2800c00 <role_map3+0x284>
			}else if(tmp%2==1){
 2800afc:	e0bffc17 	ldw	r2,-16(fp)
 2800b00:	00e00034 	movhi	r3,32768
 2800b04:	18c00044 	addi	r3,r3,1
 2800b08:	10c4703a 	and	r2,r2,r3
 2800b0c:	e0bffe15 	stw	r2,-8(fp)
 2800b10:	e0fffe17 	ldw	r3,-8(fp)
 2800b14:	1804403a 	cmpge	r2,r3,zero
 2800b18:	10000a1e 	bne	r2,zero,2800b44 <role_map3+0x1c8>
 2800b1c:	e13ffe17 	ldw	r4,-8(fp)
 2800b20:	213fffc4 	addi	r4,r4,-1
 2800b24:	e13ffe15 	stw	r4,-8(fp)
 2800b28:	00bfff84 	movi	r2,-2
 2800b2c:	e0fffe17 	ldw	r3,-8(fp)
 2800b30:	1886b03a 	or	r3,r3,r2
 2800b34:	e0fffe15 	stw	r3,-8(fp)
 2800b38:	e13ffe17 	ldw	r4,-8(fp)
 2800b3c:	21000044 	addi	r4,r4,1
 2800b40:	e13ffe15 	stw	r4,-8(fp)
 2800b44:	e0bffe17 	ldw	r2,-8(fp)
 2800b48:	10800058 	cmpnei	r2,r2,1
 2800b4c:	10002c1e 	bne	r2,zero,2800c00 <role_map3+0x284>
			  printf("pause game \n");
 2800b50:	0100a074 	movhi	r4,641
 2800b54:	213df504 	addi	r4,r4,-2092
 2800b58:	28023380 	call	2802338 <puts>
			  printf("show the map \n");
 2800b5c:	0100a074 	movhi	r4,641
 2800b60:	213df804 	addi	r4,r4,-2080
 2800b64:	28023380 	call	2802338 <puts>
			  printf("%d\n",tmp);
 2800b68:	0100a074 	movhi	r4,641
 2800b6c:	213dfc04 	addi	r4,r4,-2064
 2800b70:	e17ffc17 	ldw	r5,-16(fp)
 2800b74:	28022200 	call	2802220 <printf>
			  for(i=0;i<11;i++){
 2800b78:	d02a1b15 	stw	zero,-22420(gp)
 2800b7c:	00001d06 	br	2800bf4 <role_map3+0x278>
				  printf("\n(%2d)B ",i);
 2800b80:	d16a1b17 	ldw	r5,-22420(gp)
 2800b84:	0100a074 	movhi	r4,641
 2800b88:	213dfd04 	addi	r4,r4,-2060
 2800b8c:	28022200 	call	2802220 <printf>
				  for(j=0;j<11;j++){
 2800b90:	d02a1915 	stw	zero,-22428(gp)
 2800b94:	00001106 	br	2800bdc <role_map3+0x260>
					  printf("%d ",maze3[i][j]);
 2800b98:	d12a1b17 	ldw	r4,-22420(gp)
 2800b9c:	d42a1917 	ldw	r16,-22428(gp)
 2800ba0:	0440a074 	movhi	r17,641
 2800ba4:	8c401a04 	addi	r17,r17,104
 2800ba8:	014002c4 	movi	r5,11
 2800bac:	28021e80 	call	28021e8 <__mulsi3>
 2800bb0:	1405883a 	add	r2,r2,r16
 2800bb4:	1085883a 	add	r2,r2,r2
 2800bb8:	1085883a 	add	r2,r2,r2
 2800bbc:	1445883a 	add	r2,r2,r17
 2800bc0:	11400017 	ldw	r5,0(r2)
 2800bc4:	0100a074 	movhi	r4,641
 2800bc8:	213e0004 	addi	r4,r4,-2048
 2800bcc:	28022200 	call	2802220 <printf>
			  printf("pause game \n");
			  printf("show the map \n");
			  printf("%d\n",tmp);
			  for(i=0;i<11;i++){
				  printf("\n(%2d)B ",i);
				  for(j=0;j<11;j++){
 2800bd0:	d0aa1917 	ldw	r2,-22428(gp)
 2800bd4:	10800044 	addi	r2,r2,1
 2800bd8:	d0aa1915 	stw	r2,-22428(gp)
 2800bdc:	d0aa1917 	ldw	r2,-22428(gp)
 2800be0:	108002d0 	cmplti	r2,r2,11
 2800be4:	103fec1e 	bne	r2,zero,2800b98 <role_map3+0x21c>
			  printf("\n start game \n");
			}else if(tmp%2==1){
			  printf("pause game \n");
			  printf("show the map \n");
			  printf("%d\n",tmp);
			  for(i=0;i<11;i++){
 2800be8:	d0aa1b17 	ldw	r2,-22420(gp)
 2800bec:	10800044 	addi	r2,r2,1
 2800bf0:	d0aa1b15 	stw	r2,-22420(gp)
 2800bf4:	d0aa1b17 	ldw	r2,-22420(gp)
 2800bf8:	108002d0 	cmplti	r2,r2,11
 2800bfc:	103fe01e 	bne	r2,zero,2800b80 <role_map3+0x204>
					  printf("%d ",maze3[i][j]);
				  }
			  }
			  }
			}
		if(tmp%2==0){
 2800c00:	e0bffc17 	ldw	r2,-16(fp)
 2800c04:	1080004c 	andi	r2,r2,1
 2800c08:	1004c03a 	cmpne	r2,r2,zero
 2800c0c:	1000471e 	bne	r2,zero,2800d2c <role_map3+0x3b0>
		if(bt2==0)
 2800c10:	d0aa1a17 	ldw	r2,-22424(gp)
 2800c14:	1004c03a 	cmpne	r2,r2,zero
 2800c18:	1000641e 	bne	r2,zero,2800dac <role_map3+0x430>
		{

			while(IORD(BUTTON2_BASE,0)==bt2);
 2800c1c:	00804034 	movhi	r2,256
 2800c20:	10802004 	addi	r2,r2,128
 2800c24:	10c00037 	ldwio	r3,0(r2)
 2800c28:	d0aa1a17 	ldw	r2,-22424(gp)
 2800c2c:	18bffb26 	beq	r3,r2,2800c1c <role_map3+0x2a0>
			sw=IORD(SW_BASE,0);
 2800c30:	00804034 	movhi	r2,256
 2800c34:	10802c04 	addi	r2,r2,176
 2800c38:	10800037 	ldwio	r2,0(r2)
 2800c3c:	d0aa1e15 	stw	r2,-22408(gp)
			switch(sw)
 2800c40:	d0aa1e17 	ldw	r2,-22408(gp)
 2800c44:	e0bffd15 	stw	r2,-12(fp)
 2800c48:	e0fffd17 	ldw	r3,-12(fp)
 2800c4c:	18800268 	cmpgeui	r2,r3,9
 2800c50:	1000321e 	bne	r2,zero,2800d1c <role_map3+0x3a0>
 2800c54:	e13ffd17 	ldw	r4,-12(fp)
 2800c58:	e13ffd17 	ldw	r4,-12(fp)
 2800c5c:	2105883a 	add	r2,r4,r4
 2800c60:	1087883a 	add	r3,r2,r2
 2800c64:	0080a034 	movhi	r2,640
 2800c68:	10831e04 	addi	r2,r2,3192
 2800c6c:	1885883a 	add	r2,r3,r2
 2800c70:	10800017 	ldw	r2,0(r2)
 2800c74:	1000683a 	jmp	r2
 2800c78:	02800d0c 	andi	r10,zero,52
 2800c7c:	02800cf0 	cmpltui	r10,zero,51
 2800c80:	02800cd4 	movui	r10,51
 2800c84:	02800d1c 	xori	r10,zero,52
 2800c88:	02800cb8 	rdprs	r10,zero,50
 2800c8c:	02800d1c 	xori	r10,zero,52
 2800c90:	02800d1c 	xori	r10,zero,52
 2800c94:	02800d1c 	xori	r10,zero,52
 2800c98:	02800c9c 	xori	r10,zero,50
			{
				case 0X08:
					if(up!=1)
 2800c9c:	d0aa1317 	ldw	r2,-22452(gp)
 2800ca0:	10800060 	cmpeqi	r2,r2,1
 2800ca4:	1000411e 	bne	r2,zero,2800dac <role_map3+0x430>
					{
						y--;
 2800ca8:	d0a00117 	ldw	r2,-32764(gp)
 2800cac:	10bfffc4 	addi	r2,r2,-1
 2800cb0:	d0a00115 	stw	r2,-32764(gp)
					}
					break;
 2800cb4:	00003d06 	br	2800dac <role_map3+0x430>

				case 0X04:
					if(down!=1)
 2800cb8:	d0aa1417 	ldw	r2,-22448(gp)
 2800cbc:	10800060 	cmpeqi	r2,r2,1
 2800cc0:	10003a1e 	bne	r2,zero,2800dac <role_map3+0x430>
					{
						y++;
 2800cc4:	d0a00117 	ldw	r2,-32764(gp)
 2800cc8:	10800044 	addi	r2,r2,1
 2800ccc:	d0a00115 	stw	r2,-32764(gp)
					}
					break;
 2800cd0:	00003606 	br	2800dac <role_map3+0x430>

				case 0X02:
					if(lift!=1)
 2800cd4:	d0aa1517 	ldw	r2,-22444(gp)
 2800cd8:	10800060 	cmpeqi	r2,r2,1
 2800cdc:	1000331e 	bne	r2,zero,2800dac <role_map3+0x430>
					{
						x--;
 2800ce0:	d0a00017 	ldw	r2,-32768(gp)
 2800ce4:	10bfffc4 	addi	r2,r2,-1
 2800ce8:	d0a00015 	stw	r2,-32768(gp)
					}
					break;
 2800cec:	00002f06 	br	2800dac <role_map3+0x430>

				case 0x1:
					if(right!=1)
 2800cf0:	d0aa1617 	ldw	r2,-22440(gp)
 2800cf4:	10800060 	cmpeqi	r2,r2,1
 2800cf8:	10002c1e 	bne	r2,zero,2800dac <role_map3+0x430>
					{
						x++;
 2800cfc:	d0a00017 	ldw	r2,-32768(gp)
 2800d00:	10800044 	addi	r2,r2,1
 2800d04:	d0a00015 	stw	r2,-32768(gp)
					}
					break;
 2800d08:	00002806 	br	2800dac <role_map3+0x430>

			    case 0x00:
			    	printf("!!!!\n");
 2800d0c:	0100a074 	movhi	r4,641
 2800d10:	213e0104 	addi	r4,r4,-2044
 2800d14:	28023380 	call	2802338 <puts>
			    	break;
 2800d18:	00002406 	br	2800dac <role_map3+0x430>
				default:
					printf("\n");
 2800d1c:	0100a074 	movhi	r4,641
 2800d20:	213e0604 	addi	r4,r4,-2024
 2800d24:	28023380 	call	2802338 <puts>
 2800d28:	00002006 	br	2800dac <role_map3+0x430>
					break;
				}
			}
	}else if(bt2==0){
 2800d2c:	d0aa1a17 	ldw	r2,-22424(gp)
 2800d30:	1004c03a 	cmpne	r2,r2,zero
 2800d34:	10001d1e 	bne	r2,zero,2800dac <role_map3+0x430>
		if(tmp%2==1){
 2800d38:	e0bffc17 	ldw	r2,-16(fp)
 2800d3c:	00e00034 	movhi	r3,32768
 2800d40:	18c00044 	addi	r3,r3,1
 2800d44:	10c4703a 	and	r2,r2,r3
 2800d48:	e0bfff15 	stw	r2,-4(fp)
 2800d4c:	e0ffff17 	ldw	r3,-4(fp)
 2800d50:	1804403a 	cmpge	r2,r3,zero
 2800d54:	10000a1e 	bne	r2,zero,2800d80 <role_map3+0x404>
 2800d58:	e13fff17 	ldw	r4,-4(fp)
 2800d5c:	213fffc4 	addi	r4,r4,-1
 2800d60:	e13fff15 	stw	r4,-4(fp)
 2800d64:	00bfff84 	movi	r2,-2
 2800d68:	e0ffff17 	ldw	r3,-4(fp)
 2800d6c:	1886b03a 	or	r3,r3,r2
 2800d70:	e0ffff15 	stw	r3,-4(fp)
 2800d74:	e13fff17 	ldw	r4,-4(fp)
 2800d78:	21000044 	addi	r4,r4,1
 2800d7c:	e13fff15 	stw	r4,-4(fp)
 2800d80:	e0bfff17 	ldw	r2,-4(fp)
 2800d84:	10800058 	cmpnei	r2,r2,1
 2800d88:	1000081e 	bne	r2,zero,2800dac <role_map3+0x430>
			while(IORD(BUTTON2_BASE,0)==bt2);
 2800d8c:	00804034 	movhi	r2,256
 2800d90:	10802004 	addi	r2,r2,128
 2800d94:	10c00037 	ldwio	r3,0(r2)
 2800d98:	d0aa1a17 	ldw	r2,-22424(gp)
 2800d9c:	18bffb26 	beq	r3,r2,2800d8c <role_map3+0x410>
			printf("\n AU}lC\n");
 2800da0:	0100a074 	movhi	r4,641
 2800da4:	213e0a04 	addi	r4,r4,-2008
 2800da8:	28023380 	call	2802338 <puts>
		}
	}
		if(up!=1){
 2800dac:	d0aa1317 	ldw	r2,-22452(gp)
 2800db0:	10800060 	cmpeqi	r2,r2,1
 2800db4:	1000021e 	bne	r2,zero,2800dc0 <role_map3+0x444>
			a=0x0;
 2800db8:	d02a1f15 	stw	zero,-22404(gp)
 2800dbc:	00000206 	br	2800dc8 <role_map3+0x44c>
			}else{
				a=0x01;
 2800dc0:	00800044 	movi	r2,1
 2800dc4:	d0aa1f15 	stw	r2,-22404(gp)
				}
		if(down!=1){
 2800dc8:	d0aa1417 	ldw	r2,-22448(gp)
 2800dcc:	10800060 	cmpeqi	r2,r2,1
 2800dd0:	1000021e 	bne	r2,zero,2800ddc <role_map3+0x460>
					b=0x0;
 2800dd4:	d02a1815 	stw	zero,-22432(gp)
 2800dd8:	00000206 	br	2800de4 <role_map3+0x468>
				}else{
					b=0x08;
 2800ddc:	00800204 	movi	r2,8
 2800de0:	d0aa1815 	stw	r2,-22432(gp)
				}
		if(right!=1){
 2800de4:	d0aa1617 	ldw	r2,-22440(gp)
 2800de8:	10800060 	cmpeqi	r2,r2,1
 2800dec:	1000021e 	bne	r2,zero,2800df8 <role_map3+0x47c>
					c=0x0;
 2800df0:	d02a1c15 	stw	zero,-22416(gp)
 2800df4:	00000206 	br	2800e00 <role_map3+0x484>
				}else{
					c=0x06;
 2800df8:	00800184 	movi	r2,6
 2800dfc:	d0aa1c15 	stw	r2,-22416(gp)
				}
		if(lift!=1){
 2800e00:	d0aa1517 	ldw	r2,-22444(gp)
 2800e04:	10800060 	cmpeqi	r2,r2,1
 2800e08:	1000021e 	bne	r2,zero,2800e14 <role_map3+0x498>
					d=0x0;
 2800e0c:	d02a1d15 	stw	zero,-22412(gp)
 2800e10:	00000206 	br	2800e1c <role_map3+0x4a0>
				}else{
					d=0x30;
 2800e14:	00800c04 	movi	r2,48
 2800e18:	d0aa1d15 	stw	r2,-22412(gp)
				}
		dir=a+b+c+d+0x40;
 2800e1c:	d0ea1f17 	ldw	r3,-22404(gp)
 2800e20:	d0aa1817 	ldw	r2,-22432(gp)
 2800e24:	1887883a 	add	r3,r3,r2
 2800e28:	d0aa1c17 	ldw	r2,-22416(gp)
 2800e2c:	1887883a 	add	r3,r3,r2
 2800e30:	d0aa1d17 	ldw	r2,-22412(gp)
 2800e34:	1885883a 	add	r2,r3,r2
 2800e38:	10801004 	addi	r2,r2,64
 2800e3c:	d0aa1015 	stw	r2,-22464(gp)
		IOWR(HEX3_BASE,0,~dir);
 2800e40:	d0aa1017 	ldw	r2,-22464(gp)
 2800e44:	0086303a 	nor	r3,zero,r2
 2800e48:	00804034 	movhi	r2,256
 2800e4c:	10801004 	addi	r2,r2,64
 2800e50:	10c00035 	stwio	r3,0(r2)
		IOWR(HEX2_BASE,0,he0(x));
 2800e54:	d1200017 	ldw	r4,-32768(gp)
 2800e58:	28007c80 	call	28007c8 <he0>
 2800e5c:	1007883a 	mov	r3,r2
 2800e60:	00804034 	movhi	r2,256
 2800e64:	10801404 	addi	r2,r2,80
 2800e68:	10c00035 	stwio	r3,0(r2)
		IOWR(HEX1_BASE,0,~0x40);
 2800e6c:	00c04034 	movhi	r3,256
 2800e70:	18c01804 	addi	r3,r3,96
 2800e74:	00bfefc4 	movi	r2,-65
 2800e78:	18800035 	stwio	r2,0(r3)
		IOWR(HEX0_BASE,0,he0(y));
 2800e7c:	d1200117 	ldw	r4,-32764(gp)
 2800e80:	28007c80 	call	28007c8 <he0>
 2800e84:	1007883a 	mov	r3,r2
 2800e88:	00804034 	movhi	r2,256
 2800e8c:	10801c04 	addi	r2,r2,112
 2800e90:	10c00035 	stwio	r3,0(r2)
		if(role==2)
 2800e94:	d0aa1217 	ldw	r2,-22456(gp)
 2800e98:	108000a0 	cmpeqi	r2,r2,2
 2800e9c:	1000031e 	bne	r2,zero,2800eac <role_map3+0x530>
		{
		break;
		}
		usleep(10000);
 2800ea0:	0109c404 	movi	r4,10000
 2800ea4:	280c8340 	call	280c834 <usleep>
		}
 2800ea8:	003ebf06 	br	28009a8 <role_map3+0x2c>
}
 2800eac:	e037883a 	mov	sp,fp
 2800eb0:	dfc00317 	ldw	ra,12(sp)
 2800eb4:	df000217 	ldw	fp,8(sp)
 2800eb8:	dc400117 	ldw	r17,4(sp)
 2800ebc:	dc000017 	ldw	r16,0(sp)
 2800ec0:	dec00404 	addi	sp,sp,16
 2800ec4:	f800283a 	ret

02800ec8 <role_map2>:


void role_map2(tmp){
 2800ec8:	defff804 	addi	sp,sp,-32
 2800ecc:	dfc00715 	stw	ra,28(sp)
 2800ed0:	df000615 	stw	fp,24(sp)
 2800ed4:	dc400515 	stw	r17,20(sp)
 2800ed8:	dc000415 	stw	r16,16(sp)
 2800edc:	df000404 	addi	fp,sp,16
 2800ee0:	e13ffc15 	stw	r4,-16(fp)
	tmp = sPIO.uiPressCnt;
 2800ee4:	0080a074 	movhi	r2,641
 2800ee8:	10934104 	addi	r2,r2,19716
 2800eec:	10800617 	ldw	r2,24(r2)
 2800ef0:	e0bffc15 	stw	r2,-16(fp)
	while(1){
		bt2=IORD(BUTTON2_BASE,0);
 2800ef4:	00804034 	movhi	r2,256
 2800ef8:	10802004 	addi	r2,r2,128
 2800efc:	10800037 	ldwio	r2,0(r2)
 2800f00:	d0aa1a15 	stw	r2,-22424(gp)
		role=maze2[y][x];
 2800f04:	d1200117 	ldw	r4,-32764(gp)
 2800f08:	d4200017 	ldw	r16,-32768(gp)
 2800f0c:	0440a074 	movhi	r17,641
 2800f10:	8c7fa104 	addi	r17,r17,-380
 2800f14:	014002c4 	movi	r5,11
 2800f18:	28021e80 	call	28021e8 <__mulsi3>
 2800f1c:	1405883a 	add	r2,r2,r16
 2800f20:	1085883a 	add	r2,r2,r2
 2800f24:	1085883a 	add	r2,r2,r2
 2800f28:	1445883a 	add	r2,r2,r17
 2800f2c:	10800017 	ldw	r2,0(r2)
 2800f30:	d0aa1215 	stw	r2,-22456(gp)
		up=maze2[y-1][x];
 2800f34:	d0a00117 	ldw	r2,-32764(gp)
 2800f38:	113fffc4 	addi	r4,r2,-1
 2800f3c:	d4200017 	ldw	r16,-32768(gp)
 2800f40:	0440a074 	movhi	r17,641
 2800f44:	8c7fa104 	addi	r17,r17,-380
 2800f48:	014002c4 	movi	r5,11
 2800f4c:	28021e80 	call	28021e8 <__mulsi3>
 2800f50:	1405883a 	add	r2,r2,r16
 2800f54:	1085883a 	add	r2,r2,r2
 2800f58:	1085883a 	add	r2,r2,r2
 2800f5c:	1445883a 	add	r2,r2,r17
 2800f60:	10800017 	ldw	r2,0(r2)
 2800f64:	d0aa1315 	stw	r2,-22452(gp)
		down=maze2[y+1][x];
 2800f68:	d0a00117 	ldw	r2,-32764(gp)
 2800f6c:	11000044 	addi	r4,r2,1
 2800f70:	d4200017 	ldw	r16,-32768(gp)
 2800f74:	0440a074 	movhi	r17,641
 2800f78:	8c7fa104 	addi	r17,r17,-380
 2800f7c:	014002c4 	movi	r5,11
 2800f80:	28021e80 	call	28021e8 <__mulsi3>
 2800f84:	1405883a 	add	r2,r2,r16
 2800f88:	1085883a 	add	r2,r2,r2
 2800f8c:	1085883a 	add	r2,r2,r2
 2800f90:	1445883a 	add	r2,r2,r17
 2800f94:	10800017 	ldw	r2,0(r2)
 2800f98:	d0aa1415 	stw	r2,-22448(gp)
		lift=maze2[y][x-1];
 2800f9c:	d1200117 	ldw	r4,-32764(gp)
 2800fa0:	d0a00017 	ldw	r2,-32768(gp)
 2800fa4:	143fffc4 	addi	r16,r2,-1
 2800fa8:	0440a074 	movhi	r17,641
 2800fac:	8c7fa104 	addi	r17,r17,-380
 2800fb0:	014002c4 	movi	r5,11
 2800fb4:	28021e80 	call	28021e8 <__mulsi3>
 2800fb8:	1405883a 	add	r2,r2,r16
 2800fbc:	1085883a 	add	r2,r2,r2
 2800fc0:	1085883a 	add	r2,r2,r2
 2800fc4:	1445883a 	add	r2,r2,r17
 2800fc8:	10800017 	ldw	r2,0(r2)
 2800fcc:	d0aa1515 	stw	r2,-22444(gp)
		right=maze2[y][x+1];
 2800fd0:	d1200117 	ldw	r4,-32764(gp)
 2800fd4:	d0a00017 	ldw	r2,-32768(gp)
 2800fd8:	14000044 	addi	r16,r2,1
 2800fdc:	0440a074 	movhi	r17,641
 2800fe0:	8c7fa104 	addi	r17,r17,-380
 2800fe4:	014002c4 	movi	r5,11
 2800fe8:	28021e80 	call	28021e8 <__mulsi3>
 2800fec:	1405883a 	add	r2,r2,r16
 2800ff0:	1085883a 	add	r2,r2,r2
 2800ff4:	1085883a 	add	r2,r2,r2
 2800ff8:	1445883a 	add	r2,r2,r17
 2800ffc:	10800017 	ldw	r2,0(r2)
 2801000:	d0aa1615 	stw	r2,-22440(gp)
		if(tmp != sPIO.uiPressCnt){
 2801004:	e0fffc17 	ldw	r3,-16(fp)
 2801008:	0080a074 	movhi	r2,641
 280100c:	10934104 	addi	r2,r2,19716
 2801010:	10800617 	ldw	r2,24(r2)
 2801014:	18804926 	beq	r3,r2,280113c <role_map2+0x274>
			  tmp = sPIO.uiPressCnt;
 2801018:	0080a074 	movhi	r2,641
 280101c:	10934104 	addi	r2,r2,19716
 2801020:	10800617 	ldw	r2,24(r2)
 2801024:	e0bffc15 	stw	r2,-16(fp)
			if(tmp%2==0){
 2801028:	e0bffc17 	ldw	r2,-16(fp)
 280102c:	1080004c 	andi	r2,r2,1
 2801030:	1004c03a 	cmpne	r2,r2,zero
 2801034:	1000041e 	bne	r2,zero,2801048 <role_map2+0x180>
			  printf("\n start game \n");
 2801038:	0100a074 	movhi	r4,641
 280103c:	213df104 	addi	r4,r4,-2108
 2801040:	28023380 	call	2802338 <puts>
 2801044:	00003d06 	br	280113c <role_map2+0x274>
			}else if(tmp%2==1){
 2801048:	e0bffc17 	ldw	r2,-16(fp)
 280104c:	00e00034 	movhi	r3,32768
 2801050:	18c00044 	addi	r3,r3,1
 2801054:	10c4703a 	and	r2,r2,r3
 2801058:	e0bffe15 	stw	r2,-8(fp)
 280105c:	e0fffe17 	ldw	r3,-8(fp)
 2801060:	1804403a 	cmpge	r2,r3,zero
 2801064:	10000a1e 	bne	r2,zero,2801090 <role_map2+0x1c8>
 2801068:	e13ffe17 	ldw	r4,-8(fp)
 280106c:	213fffc4 	addi	r4,r4,-1
 2801070:	e13ffe15 	stw	r4,-8(fp)
 2801074:	00bfff84 	movi	r2,-2
 2801078:	e0fffe17 	ldw	r3,-8(fp)
 280107c:	1886b03a 	or	r3,r3,r2
 2801080:	e0fffe15 	stw	r3,-8(fp)
 2801084:	e13ffe17 	ldw	r4,-8(fp)
 2801088:	21000044 	addi	r4,r4,1
 280108c:	e13ffe15 	stw	r4,-8(fp)
 2801090:	e0bffe17 	ldw	r2,-8(fp)
 2801094:	10800058 	cmpnei	r2,r2,1
 2801098:	1000281e 	bne	r2,zero,280113c <role_map2+0x274>
			  printf("pause game \n");
 280109c:	0100a074 	movhi	r4,641
 28010a0:	213df504 	addi	r4,r4,-2092
 28010a4:	28023380 	call	2802338 <puts>
			  printf("show the map \n");
 28010a8:	0100a074 	movhi	r4,641
 28010ac:	213df804 	addi	r4,r4,-2080
 28010b0:	28023380 	call	2802338 <puts>
			  for(i=0;i<11;i++){
 28010b4:	d02a1b15 	stw	zero,-22420(gp)
 28010b8:	00001d06 	br	2801130 <role_map2+0x268>
				  printf("\n(%2d)B ",i);
 28010bc:	d16a1b17 	ldw	r5,-22420(gp)
 28010c0:	0100a074 	movhi	r4,641
 28010c4:	213dfd04 	addi	r4,r4,-2060
 28010c8:	28022200 	call	2802220 <printf>
				  for(j=0;j<11;j++){
 28010cc:	d02a1915 	stw	zero,-22428(gp)
 28010d0:	00001106 	br	2801118 <role_map2+0x250>
					  printf("%d ",maze2[i][j]);
 28010d4:	d12a1b17 	ldw	r4,-22420(gp)
 28010d8:	d42a1917 	ldw	r16,-22428(gp)
 28010dc:	0440a074 	movhi	r17,641
 28010e0:	8c7fa104 	addi	r17,r17,-380
 28010e4:	014002c4 	movi	r5,11
 28010e8:	28021e80 	call	28021e8 <__mulsi3>
 28010ec:	1405883a 	add	r2,r2,r16
 28010f0:	1085883a 	add	r2,r2,r2
 28010f4:	1085883a 	add	r2,r2,r2
 28010f8:	1445883a 	add	r2,r2,r17
 28010fc:	11400017 	ldw	r5,0(r2)
 2801100:	0100a074 	movhi	r4,641
 2801104:	213e0004 	addi	r4,r4,-2048
 2801108:	28022200 	call	2802220 <printf>
			}else if(tmp%2==1){
			  printf("pause game \n");
			  printf("show the map \n");
			  for(i=0;i<11;i++){
				  printf("\n(%2d)B ",i);
				  for(j=0;j<11;j++){
 280110c:	d0aa1917 	ldw	r2,-22428(gp)
 2801110:	10800044 	addi	r2,r2,1
 2801114:	d0aa1915 	stw	r2,-22428(gp)
 2801118:	d0aa1917 	ldw	r2,-22428(gp)
 280111c:	108002d0 	cmplti	r2,r2,11
 2801120:	103fec1e 	bne	r2,zero,28010d4 <role_map2+0x20c>
			if(tmp%2==0){
			  printf("\n start game \n");
			}else if(tmp%2==1){
			  printf("pause game \n");
			  printf("show the map \n");
			  for(i=0;i<11;i++){
 2801124:	d0aa1b17 	ldw	r2,-22420(gp)
 2801128:	10800044 	addi	r2,r2,1
 280112c:	d0aa1b15 	stw	r2,-22420(gp)
 2801130:	d0aa1b17 	ldw	r2,-22420(gp)
 2801134:	108002d0 	cmplti	r2,r2,11
 2801138:	103fe01e 	bne	r2,zero,28010bc <role_map2+0x1f4>
					  printf("%d ",maze2[i][j]);
				  }
			}
			}
			}
		if(tmp%2==0){
 280113c:	e0bffc17 	ldw	r2,-16(fp)
 2801140:	1080004c 	andi	r2,r2,1
 2801144:	1004c03a 	cmpne	r2,r2,zero
 2801148:	1000471e 	bne	r2,zero,2801268 <role_map2+0x3a0>
		if(bt2==0)
 280114c:	d0aa1a17 	ldw	r2,-22424(gp)
 2801150:	1004c03a 	cmpne	r2,r2,zero
 2801154:	1000641e 	bne	r2,zero,28012e8 <role_map2+0x420>
		{

			while(IORD(BUTTON2_BASE,0)==bt2);
 2801158:	00804034 	movhi	r2,256
 280115c:	10802004 	addi	r2,r2,128
 2801160:	10c00037 	ldwio	r3,0(r2)
 2801164:	d0aa1a17 	ldw	r2,-22424(gp)
 2801168:	18bffb26 	beq	r3,r2,2801158 <role_map2+0x290>
			sw=IORD(SW_BASE,0);
 280116c:	00804034 	movhi	r2,256
 2801170:	10802c04 	addi	r2,r2,176
 2801174:	10800037 	ldwio	r2,0(r2)
 2801178:	d0aa1e15 	stw	r2,-22408(gp)
			switch(sw)
 280117c:	d0aa1e17 	ldw	r2,-22408(gp)
 2801180:	e0bffd15 	stw	r2,-12(fp)
 2801184:	e0fffd17 	ldw	r3,-12(fp)
 2801188:	18800268 	cmpgeui	r2,r3,9
 280118c:	1000321e 	bne	r2,zero,2801258 <role_map2+0x390>
 2801190:	e13ffd17 	ldw	r4,-12(fp)
 2801194:	e13ffd17 	ldw	r4,-12(fp)
 2801198:	2105883a 	add	r2,r4,r4
 280119c:	1087883a 	add	r3,r2,r2
 28011a0:	0080a034 	movhi	r2,640
 28011a4:	10846d04 	addi	r2,r2,4532
 28011a8:	1885883a 	add	r2,r3,r2
 28011ac:	10800017 	ldw	r2,0(r2)
 28011b0:	1000683a 	jmp	r2
 28011b4:	02801248 	cmpgei	r10,zero,73
 28011b8:	0280122c 	andhi	r10,zero,72
 28011bc:	02801210 	cmplti	r10,zero,72
 28011c0:	02801258 	cmpnei	r10,zero,73
 28011c4:	028011f4 	movhi	r10,71
 28011c8:	02801258 	cmpnei	r10,zero,73
 28011cc:	02801258 	cmpnei	r10,zero,73
 28011d0:	02801258 	cmpnei	r10,zero,73
 28011d4:	028011d8 	cmpnei	r10,zero,71
			{
				case 0X08:
					if(up!=1)
 28011d8:	d0aa1317 	ldw	r2,-22452(gp)
 28011dc:	10800060 	cmpeqi	r2,r2,1
 28011e0:	1000411e 	bne	r2,zero,28012e8 <role_map2+0x420>
					{
						y--;
 28011e4:	d0a00117 	ldw	r2,-32764(gp)
 28011e8:	10bfffc4 	addi	r2,r2,-1
 28011ec:	d0a00115 	stw	r2,-32764(gp)
					}
					break;
 28011f0:	00003d06 	br	28012e8 <role_map2+0x420>

				case 0X04:
					if(down!=1)
 28011f4:	d0aa1417 	ldw	r2,-22448(gp)
 28011f8:	10800060 	cmpeqi	r2,r2,1
 28011fc:	10003a1e 	bne	r2,zero,28012e8 <role_map2+0x420>
					{
						y++;
 2801200:	d0a00117 	ldw	r2,-32764(gp)
 2801204:	10800044 	addi	r2,r2,1
 2801208:	d0a00115 	stw	r2,-32764(gp)
					}
					break;
 280120c:	00003606 	br	28012e8 <role_map2+0x420>

				case 0X02:
					if(lift!=1)
 2801210:	d0aa1517 	ldw	r2,-22444(gp)
 2801214:	10800060 	cmpeqi	r2,r2,1
 2801218:	1000331e 	bne	r2,zero,28012e8 <role_map2+0x420>
					{
						x--;
 280121c:	d0a00017 	ldw	r2,-32768(gp)
 2801220:	10bfffc4 	addi	r2,r2,-1
 2801224:	d0a00015 	stw	r2,-32768(gp)
					}
					break;
 2801228:	00002f06 	br	28012e8 <role_map2+0x420>

				case 0x1:
					if(right!=1)
 280122c:	d0aa1617 	ldw	r2,-22440(gp)
 2801230:	10800060 	cmpeqi	r2,r2,1
 2801234:	10002c1e 	bne	r2,zero,28012e8 <role_map2+0x420>
					{
						x++;
 2801238:	d0a00017 	ldw	r2,-32768(gp)
 280123c:	10800044 	addi	r2,r2,1
 2801240:	d0a00015 	stw	r2,-32768(gp)
					}
					break;
 2801244:	00002806 	br	28012e8 <role_map2+0x420>

			    case 0x00:
			    	printf("!!!!\n");
 2801248:	0100a074 	movhi	r4,641
 280124c:	213e0104 	addi	r4,r4,-2044
 2801250:	28023380 	call	2802338 <puts>
			    	break;
 2801254:	00002406 	br	28012e8 <role_map2+0x420>
				default:
					printf("\n");
 2801258:	0100a074 	movhi	r4,641
 280125c:	213e0604 	addi	r4,r4,-2024
 2801260:	28023380 	call	2802338 <puts>
 2801264:	00002006 	br	28012e8 <role_map2+0x420>
					break;
				}
			}
		}else if(bt2==0){
 2801268:	d0aa1a17 	ldw	r2,-22424(gp)
 280126c:	1004c03a 	cmpne	r2,r2,zero
 2801270:	10001d1e 	bne	r2,zero,28012e8 <role_map2+0x420>
			if(tmp%2==1){
 2801274:	e0bffc17 	ldw	r2,-16(fp)
 2801278:	00e00034 	movhi	r3,32768
 280127c:	18c00044 	addi	r3,r3,1
 2801280:	10c4703a 	and	r2,r2,r3
 2801284:	e0bfff15 	stw	r2,-4(fp)
 2801288:	e0ffff17 	ldw	r3,-4(fp)
 280128c:	1804403a 	cmpge	r2,r3,zero
 2801290:	10000a1e 	bne	r2,zero,28012bc <role_map2+0x3f4>
 2801294:	e13fff17 	ldw	r4,-4(fp)
 2801298:	213fffc4 	addi	r4,r4,-1
 280129c:	e13fff15 	stw	r4,-4(fp)
 28012a0:	00bfff84 	movi	r2,-2
 28012a4:	e0ffff17 	ldw	r3,-4(fp)
 28012a8:	1886b03a 	or	r3,r3,r2
 28012ac:	e0ffff15 	stw	r3,-4(fp)
 28012b0:	e13fff17 	ldw	r4,-4(fp)
 28012b4:	21000044 	addi	r4,r4,1
 28012b8:	e13fff15 	stw	r4,-4(fp)
 28012bc:	e0bfff17 	ldw	r2,-4(fp)
 28012c0:	10800058 	cmpnei	r2,r2,1
 28012c4:	1000081e 	bne	r2,zero,28012e8 <role_map2+0x420>
				while(IORD(BUTTON2_BASE,0)==bt2);
 28012c8:	00804034 	movhi	r2,256
 28012cc:	10802004 	addi	r2,r2,128
 28012d0:	10c00037 	ldwio	r3,0(r2)
 28012d4:	d0aa1a17 	ldw	r2,-22424(gp)
 28012d8:	18bffb26 	beq	r3,r2,28012c8 <role_map2+0x400>
				printf("\n AU}lC\n");
 28012dc:	0100a074 	movhi	r4,641
 28012e0:	213e0a04 	addi	r4,r4,-2008
 28012e4:	28023380 	call	2802338 <puts>
			}
		}
		if(up!=1){
 28012e8:	d0aa1317 	ldw	r2,-22452(gp)
 28012ec:	10800060 	cmpeqi	r2,r2,1
 28012f0:	1000021e 	bne	r2,zero,28012fc <role_map2+0x434>
			a=0x0;
 28012f4:	d02a1f15 	stw	zero,-22404(gp)
 28012f8:	00000206 	br	2801304 <role_map2+0x43c>
			}else{
				a=0x01;
 28012fc:	00800044 	movi	r2,1
 2801300:	d0aa1f15 	stw	r2,-22404(gp)
				}
		if(down!=1){
 2801304:	d0aa1417 	ldw	r2,-22448(gp)
 2801308:	10800060 	cmpeqi	r2,r2,1
 280130c:	1000021e 	bne	r2,zero,2801318 <role_map2+0x450>
					b=0x0;
 2801310:	d02a1815 	stw	zero,-22432(gp)
 2801314:	00000206 	br	2801320 <role_map2+0x458>
				}else{
					b=0x08;
 2801318:	00800204 	movi	r2,8
 280131c:	d0aa1815 	stw	r2,-22432(gp)
				}
		if(right!=1){
 2801320:	d0aa1617 	ldw	r2,-22440(gp)
 2801324:	10800060 	cmpeqi	r2,r2,1
 2801328:	1000021e 	bne	r2,zero,2801334 <role_map2+0x46c>
					c=0x0;
 280132c:	d02a1c15 	stw	zero,-22416(gp)
 2801330:	00000206 	br	280133c <role_map2+0x474>
				}else{
					c=0x06;
 2801334:	00800184 	movi	r2,6
 2801338:	d0aa1c15 	stw	r2,-22416(gp)
				}
		if(lift!=1){
 280133c:	d0aa1517 	ldw	r2,-22444(gp)
 2801340:	10800060 	cmpeqi	r2,r2,1
 2801344:	1000021e 	bne	r2,zero,2801350 <role_map2+0x488>
					d=0x0;
 2801348:	d02a1d15 	stw	zero,-22412(gp)
 280134c:	00000206 	br	2801358 <role_map2+0x490>
				}else{
					d=0x30;
 2801350:	00800c04 	movi	r2,48
 2801354:	d0aa1d15 	stw	r2,-22412(gp)
				}
		dir=a+b+c+d+0x40;
 2801358:	d0ea1f17 	ldw	r3,-22404(gp)
 280135c:	d0aa1817 	ldw	r2,-22432(gp)
 2801360:	1887883a 	add	r3,r3,r2
 2801364:	d0aa1c17 	ldw	r2,-22416(gp)
 2801368:	1887883a 	add	r3,r3,r2
 280136c:	d0aa1d17 	ldw	r2,-22412(gp)
 2801370:	1885883a 	add	r2,r3,r2
 2801374:	10801004 	addi	r2,r2,64
 2801378:	d0aa1015 	stw	r2,-22464(gp)
		IOWR(HEX3_BASE,0,~dir);
 280137c:	d0aa1017 	ldw	r2,-22464(gp)
 2801380:	0086303a 	nor	r3,zero,r2
 2801384:	00804034 	movhi	r2,256
 2801388:	10801004 	addi	r2,r2,64
 280138c:	10c00035 	stwio	r3,0(r2)
		IOWR(HEX2_BASE,0,he0(x));
 2801390:	d1200017 	ldw	r4,-32768(gp)
 2801394:	28007c80 	call	28007c8 <he0>
 2801398:	1007883a 	mov	r3,r2
 280139c:	00804034 	movhi	r2,256
 28013a0:	10801404 	addi	r2,r2,80
 28013a4:	10c00035 	stwio	r3,0(r2)
		IOWR(HEX1_BASE,0,~0x40);
 28013a8:	00c04034 	movhi	r3,256
 28013ac:	18c01804 	addi	r3,r3,96
 28013b0:	00bfefc4 	movi	r2,-65
 28013b4:	18800035 	stwio	r2,0(r3)
		IOWR(HEX0_BASE,0,he0(y));
 28013b8:	d1200117 	ldw	r4,-32764(gp)
 28013bc:	28007c80 	call	28007c8 <he0>
 28013c0:	1007883a 	mov	r3,r2
 28013c4:	00804034 	movhi	r2,256
 28013c8:	10801c04 	addi	r2,r2,112
 28013cc:	10c00035 	stwio	r3,0(r2)
		if(role==2)
 28013d0:	d0aa1217 	ldw	r2,-22456(gp)
 28013d4:	108000a0 	cmpeqi	r2,r2,2
 28013d8:	1000031e 	bne	r2,zero,28013e8 <role_map2+0x520>
		{
		break;
		}
		usleep(10000);
 28013dc:	0109c404 	movi	r4,10000
 28013e0:	280c8340 	call	280c834 <usleep>
		}
 28013e4:	003ec306 	br	2800ef4 <role_map2+0x2c>
}
 28013e8:	e037883a 	mov	sp,fp
 28013ec:	dfc00317 	ldw	ra,12(sp)
 28013f0:	df000217 	ldw	fp,8(sp)
 28013f4:	dc400117 	ldw	r17,4(sp)
 28013f8:	dc000017 	ldw	r16,0(sp)
 28013fc:	dec00404 	addi	sp,sp,16
 2801400:	f800283a 	ret

02801404 <role_map1>:


void role_map1(tmp){
 2801404:	defff804 	addi	sp,sp,-32
 2801408:	dfc00715 	stw	ra,28(sp)
 280140c:	df000615 	stw	fp,24(sp)
 2801410:	dc400515 	stw	r17,20(sp)
 2801414:	dc000415 	stw	r16,16(sp)
 2801418:	df000404 	addi	fp,sp,16
 280141c:	e13ffc15 	stw	r4,-16(fp)
	tmp = sPIO.uiPressCnt;
 2801420:	0080a074 	movhi	r2,641
 2801424:	10934104 	addi	r2,r2,19716
 2801428:	10800617 	ldw	r2,24(r2)
 280142c:	e0bffc15 	stw	r2,-16(fp)
	while(1){
		bt2=IORD(BUTTON2_BASE,0);
 2801430:	00804034 	movhi	r2,256
 2801434:	10802004 	addi	r2,r2,128
 2801438:	10800037 	ldwio	r2,0(r2)
 280143c:	d0aa1a15 	stw	r2,-22424(gp)
		role=maze1[y][x];
 2801440:	d1200117 	ldw	r4,-32764(gp)
 2801444:	d4200017 	ldw	r16,-32768(gp)
 2801448:	0440a074 	movhi	r17,641
 280144c:	8c7f2804 	addi	r17,r17,-864
 2801450:	014002c4 	movi	r5,11
 2801454:	28021e80 	call	28021e8 <__mulsi3>
 2801458:	1405883a 	add	r2,r2,r16
 280145c:	1085883a 	add	r2,r2,r2
 2801460:	1085883a 	add	r2,r2,r2
 2801464:	1445883a 	add	r2,r2,r17
 2801468:	10800017 	ldw	r2,0(r2)
 280146c:	d0aa1215 	stw	r2,-22456(gp)
		up=maze1[y-1][x];
 2801470:	d0a00117 	ldw	r2,-32764(gp)
 2801474:	113fffc4 	addi	r4,r2,-1
 2801478:	d4200017 	ldw	r16,-32768(gp)
 280147c:	0440a074 	movhi	r17,641
 2801480:	8c7f2804 	addi	r17,r17,-864
 2801484:	014002c4 	movi	r5,11
 2801488:	28021e80 	call	28021e8 <__mulsi3>
 280148c:	1405883a 	add	r2,r2,r16
 2801490:	1085883a 	add	r2,r2,r2
 2801494:	1085883a 	add	r2,r2,r2
 2801498:	1445883a 	add	r2,r2,r17
 280149c:	10800017 	ldw	r2,0(r2)
 28014a0:	d0aa1315 	stw	r2,-22452(gp)
		down=maze1[y+1][x];
 28014a4:	d0a00117 	ldw	r2,-32764(gp)
 28014a8:	11000044 	addi	r4,r2,1
 28014ac:	d4200017 	ldw	r16,-32768(gp)
 28014b0:	0440a074 	movhi	r17,641
 28014b4:	8c7f2804 	addi	r17,r17,-864
 28014b8:	014002c4 	movi	r5,11
 28014bc:	28021e80 	call	28021e8 <__mulsi3>
 28014c0:	1405883a 	add	r2,r2,r16
 28014c4:	1085883a 	add	r2,r2,r2
 28014c8:	1085883a 	add	r2,r2,r2
 28014cc:	1445883a 	add	r2,r2,r17
 28014d0:	10800017 	ldw	r2,0(r2)
 28014d4:	d0aa1415 	stw	r2,-22448(gp)
		lift=maze1[y][x-1];
 28014d8:	d1200117 	ldw	r4,-32764(gp)
 28014dc:	d0a00017 	ldw	r2,-32768(gp)
 28014e0:	143fffc4 	addi	r16,r2,-1
 28014e4:	0440a074 	movhi	r17,641
 28014e8:	8c7f2804 	addi	r17,r17,-864
 28014ec:	014002c4 	movi	r5,11
 28014f0:	28021e80 	call	28021e8 <__mulsi3>
 28014f4:	1405883a 	add	r2,r2,r16
 28014f8:	1085883a 	add	r2,r2,r2
 28014fc:	1085883a 	add	r2,r2,r2
 2801500:	1445883a 	add	r2,r2,r17
 2801504:	10800017 	ldw	r2,0(r2)
 2801508:	d0aa1515 	stw	r2,-22444(gp)
		right=maze1[y][x+1];
 280150c:	d1200117 	ldw	r4,-32764(gp)
 2801510:	d0a00017 	ldw	r2,-32768(gp)
 2801514:	14000044 	addi	r16,r2,1
 2801518:	0440a074 	movhi	r17,641
 280151c:	8c7f2804 	addi	r17,r17,-864
 2801520:	014002c4 	movi	r5,11
 2801524:	28021e80 	call	28021e8 <__mulsi3>
 2801528:	1405883a 	add	r2,r2,r16
 280152c:	1085883a 	add	r2,r2,r2
 2801530:	1085883a 	add	r2,r2,r2
 2801534:	1445883a 	add	r2,r2,r17
 2801538:	10800017 	ldw	r2,0(r2)
 280153c:	d0aa1615 	stw	r2,-22440(gp)
		if(tmp != sPIO.uiPressCnt){
 2801540:	e0fffc17 	ldw	r3,-16(fp)
 2801544:	0080a074 	movhi	r2,641
 2801548:	10934104 	addi	r2,r2,19716
 280154c:	10800617 	ldw	r2,24(r2)
 2801550:	18804926 	beq	r3,r2,2801678 <role_map1+0x274>
			  tmp = sPIO.uiPressCnt;
 2801554:	0080a074 	movhi	r2,641
 2801558:	10934104 	addi	r2,r2,19716
 280155c:	10800617 	ldw	r2,24(r2)
 2801560:	e0bffc15 	stw	r2,-16(fp)
			if(tmp%2==0){
 2801564:	e0bffc17 	ldw	r2,-16(fp)
 2801568:	1080004c 	andi	r2,r2,1
 280156c:	1004c03a 	cmpne	r2,r2,zero
 2801570:	1000041e 	bne	r2,zero,2801584 <role_map1+0x180>
			  printf("\n start game \n");
 2801574:	0100a074 	movhi	r4,641
 2801578:	213df104 	addi	r4,r4,-2108
 280157c:	28023380 	call	2802338 <puts>
 2801580:	00003d06 	br	2801678 <role_map1+0x274>
			}else if(tmp%2==1){
 2801584:	e0bffc17 	ldw	r2,-16(fp)
 2801588:	00e00034 	movhi	r3,32768
 280158c:	18c00044 	addi	r3,r3,1
 2801590:	10c4703a 	and	r2,r2,r3
 2801594:	e0bffe15 	stw	r2,-8(fp)
 2801598:	e0fffe17 	ldw	r3,-8(fp)
 280159c:	1804403a 	cmpge	r2,r3,zero
 28015a0:	10000a1e 	bne	r2,zero,28015cc <role_map1+0x1c8>
 28015a4:	e13ffe17 	ldw	r4,-8(fp)
 28015a8:	213fffc4 	addi	r4,r4,-1
 28015ac:	e13ffe15 	stw	r4,-8(fp)
 28015b0:	00bfff84 	movi	r2,-2
 28015b4:	e0fffe17 	ldw	r3,-8(fp)
 28015b8:	1886b03a 	or	r3,r3,r2
 28015bc:	e0fffe15 	stw	r3,-8(fp)
 28015c0:	e13ffe17 	ldw	r4,-8(fp)
 28015c4:	21000044 	addi	r4,r4,1
 28015c8:	e13ffe15 	stw	r4,-8(fp)
 28015cc:	e0bffe17 	ldw	r2,-8(fp)
 28015d0:	10800058 	cmpnei	r2,r2,1
 28015d4:	1000281e 	bne	r2,zero,2801678 <role_map1+0x274>
			  printf("pause game \n");
 28015d8:	0100a074 	movhi	r4,641
 28015dc:	213df504 	addi	r4,r4,-2092
 28015e0:	28023380 	call	2802338 <puts>
			  printf("show the map \n");
 28015e4:	0100a074 	movhi	r4,641
 28015e8:	213df804 	addi	r4,r4,-2080
 28015ec:	28023380 	call	2802338 <puts>
			  for(i=0;i<11;i++){
 28015f0:	d02a1b15 	stw	zero,-22420(gp)
 28015f4:	00001d06 	br	280166c <role_map1+0x268>
				  printf("\n(%2d)B ",i);
 28015f8:	d16a1b17 	ldw	r5,-22420(gp)
 28015fc:	0100a074 	movhi	r4,641
 2801600:	213dfd04 	addi	r4,r4,-2060
 2801604:	28022200 	call	2802220 <printf>
				  for(j=0;j<11;j++){
 2801608:	d02a1915 	stw	zero,-22428(gp)
 280160c:	00001106 	br	2801654 <role_map1+0x250>
					  printf("%d ",maze1[i][j]);
 2801610:	d12a1b17 	ldw	r4,-22420(gp)
 2801614:	d42a1917 	ldw	r16,-22428(gp)
 2801618:	0440a074 	movhi	r17,641
 280161c:	8c7f2804 	addi	r17,r17,-864
 2801620:	014002c4 	movi	r5,11
 2801624:	28021e80 	call	28021e8 <__mulsi3>
 2801628:	1405883a 	add	r2,r2,r16
 280162c:	1085883a 	add	r2,r2,r2
 2801630:	1085883a 	add	r2,r2,r2
 2801634:	1445883a 	add	r2,r2,r17
 2801638:	11400017 	ldw	r5,0(r2)
 280163c:	0100a074 	movhi	r4,641
 2801640:	213e0004 	addi	r4,r4,-2048
 2801644:	28022200 	call	2802220 <printf>
			}else if(tmp%2==1){
			  printf("pause game \n");
			  printf("show the map \n");
			  for(i=0;i<11;i++){
				  printf("\n(%2d)B ",i);
				  for(j=0;j<11;j++){
 2801648:	d0aa1917 	ldw	r2,-22428(gp)
 280164c:	10800044 	addi	r2,r2,1
 2801650:	d0aa1915 	stw	r2,-22428(gp)
 2801654:	d0aa1917 	ldw	r2,-22428(gp)
 2801658:	108002d0 	cmplti	r2,r2,11
 280165c:	103fec1e 	bne	r2,zero,2801610 <role_map1+0x20c>
			if(tmp%2==0){
			  printf("\n start game \n");
			}else if(tmp%2==1){
			  printf("pause game \n");
			  printf("show the map \n");
			  for(i=0;i<11;i++){
 2801660:	d0aa1b17 	ldw	r2,-22420(gp)
 2801664:	10800044 	addi	r2,r2,1
 2801668:	d0aa1b15 	stw	r2,-22420(gp)
 280166c:	d0aa1b17 	ldw	r2,-22420(gp)
 2801670:	108002d0 	cmplti	r2,r2,11
 2801674:	103fe01e 	bne	r2,zero,28015f8 <role_map1+0x1f4>
					  printf("%d ",maze1[i][j]);
				  }
				}
			}
			}
		if(tmp%2==0){
 2801678:	e0bffc17 	ldw	r2,-16(fp)
 280167c:	1080004c 	andi	r2,r2,1
 2801680:	1004c03a 	cmpne	r2,r2,zero
 2801684:	1000471e 	bne	r2,zero,28017a4 <role_map1+0x3a0>
		if(bt2==0)
 2801688:	d0aa1a17 	ldw	r2,-22424(gp)
 280168c:	1004c03a 	cmpne	r2,r2,zero
 2801690:	1000641e 	bne	r2,zero,2801824 <role_map1+0x420>
		{

			while(IORD(BUTTON2_BASE,0)==bt2);
 2801694:	00804034 	movhi	r2,256
 2801698:	10802004 	addi	r2,r2,128
 280169c:	10c00037 	ldwio	r3,0(r2)
 28016a0:	d0aa1a17 	ldw	r2,-22424(gp)
 28016a4:	18bffb26 	beq	r3,r2,2801694 <role_map1+0x290>
			sw=IORD(SW_BASE,0);
 28016a8:	00804034 	movhi	r2,256
 28016ac:	10802c04 	addi	r2,r2,176
 28016b0:	10800037 	ldwio	r2,0(r2)
 28016b4:	d0aa1e15 	stw	r2,-22408(gp)
			switch(sw)
 28016b8:	d0aa1e17 	ldw	r2,-22408(gp)
 28016bc:	e0bffd15 	stw	r2,-12(fp)
 28016c0:	e0fffd17 	ldw	r3,-12(fp)
 28016c4:	18800268 	cmpgeui	r2,r3,9
 28016c8:	1000321e 	bne	r2,zero,2801794 <role_map1+0x390>
 28016cc:	e13ffd17 	ldw	r4,-12(fp)
 28016d0:	e13ffd17 	ldw	r4,-12(fp)
 28016d4:	2105883a 	add	r2,r4,r4
 28016d8:	1087883a 	add	r3,r2,r2
 28016dc:	0080a034 	movhi	r2,640
 28016e0:	1085bc04 	addi	r2,r2,5872
 28016e4:	1885883a 	add	r2,r3,r2
 28016e8:	10800017 	ldw	r2,0(r2)
 28016ec:	1000683a 	jmp	r2
 28016f0:	02801784 	movi	r10,94
 28016f4:	02801768 	cmpgeui	r10,zero,93
 28016f8:	0280174c 	andi	r10,zero,93
 28016fc:	02801794 	movui	r10,94
 2801700:	02801730 	cmpltui	r10,zero,92
 2801704:	02801794 	movui	r10,94
 2801708:	02801794 	movui	r10,94
 280170c:	02801794 	movui	r10,94
 2801710:	02801714 	movui	r10,92
			{
				case 0X08:
					if(up!=1)
 2801714:	d0aa1317 	ldw	r2,-22452(gp)
 2801718:	10800060 	cmpeqi	r2,r2,1
 280171c:	1000411e 	bne	r2,zero,2801824 <role_map1+0x420>
					{
						y--;
 2801720:	d0a00117 	ldw	r2,-32764(gp)
 2801724:	10bfffc4 	addi	r2,r2,-1
 2801728:	d0a00115 	stw	r2,-32764(gp)
					}
					break;
 280172c:	00003d06 	br	2801824 <role_map1+0x420>

				case 0X04:
					if(down!=1)
 2801730:	d0aa1417 	ldw	r2,-22448(gp)
 2801734:	10800060 	cmpeqi	r2,r2,1
 2801738:	10003a1e 	bne	r2,zero,2801824 <role_map1+0x420>
					{
						y++;
 280173c:	d0a00117 	ldw	r2,-32764(gp)
 2801740:	10800044 	addi	r2,r2,1
 2801744:	d0a00115 	stw	r2,-32764(gp)
					}
					break;
 2801748:	00003606 	br	2801824 <role_map1+0x420>

				case 0X02:
					if(lift!=1)
 280174c:	d0aa1517 	ldw	r2,-22444(gp)
 2801750:	10800060 	cmpeqi	r2,r2,1
 2801754:	1000331e 	bne	r2,zero,2801824 <role_map1+0x420>
					{
						x--;
 2801758:	d0a00017 	ldw	r2,-32768(gp)
 280175c:	10bfffc4 	addi	r2,r2,-1
 2801760:	d0a00015 	stw	r2,-32768(gp)
					}
					break;
 2801764:	00002f06 	br	2801824 <role_map1+0x420>

				case 0x1:
					if(right!=1)
 2801768:	d0aa1617 	ldw	r2,-22440(gp)
 280176c:	10800060 	cmpeqi	r2,r2,1
 2801770:	10002c1e 	bne	r2,zero,2801824 <role_map1+0x420>
					{
						x++;
 2801774:	d0a00017 	ldw	r2,-32768(gp)
 2801778:	10800044 	addi	r2,r2,1
 280177c:	d0a00015 	stw	r2,-32768(gp)
					}
					break;
 2801780:	00002806 	br	2801824 <role_map1+0x420>

			    case 0x00:
			    	printf("!!!!\n");
 2801784:	0100a074 	movhi	r4,641
 2801788:	213e0104 	addi	r4,r4,-2044
 280178c:	28023380 	call	2802338 <puts>
			    	break;
 2801790:	00002406 	br	2801824 <role_map1+0x420>
				default:
					printf("\n");
 2801794:	0100a074 	movhi	r4,641
 2801798:	213e0604 	addi	r4,r4,-2024
 280179c:	28023380 	call	2802338 <puts>
 28017a0:	00002006 	br	2801824 <role_map1+0x420>
					break;
				}
		}
			}else if(bt2==0){
 28017a4:	d0aa1a17 	ldw	r2,-22424(gp)
 28017a8:	1004c03a 	cmpne	r2,r2,zero
 28017ac:	10001d1e 	bne	r2,zero,2801824 <role_map1+0x420>
				if(tmp%2==1){
 28017b0:	e0bffc17 	ldw	r2,-16(fp)
 28017b4:	00e00034 	movhi	r3,32768
 28017b8:	18c00044 	addi	r3,r3,1
 28017bc:	10c4703a 	and	r2,r2,r3
 28017c0:	e0bfff15 	stw	r2,-4(fp)
 28017c4:	e0ffff17 	ldw	r3,-4(fp)
 28017c8:	1804403a 	cmpge	r2,r3,zero
 28017cc:	10000a1e 	bne	r2,zero,28017f8 <role_map1+0x3f4>
 28017d0:	e13fff17 	ldw	r4,-4(fp)
 28017d4:	213fffc4 	addi	r4,r4,-1
 28017d8:	e13fff15 	stw	r4,-4(fp)
 28017dc:	00bfff84 	movi	r2,-2
 28017e0:	e0ffff17 	ldw	r3,-4(fp)
 28017e4:	1886b03a 	or	r3,r3,r2
 28017e8:	e0ffff15 	stw	r3,-4(fp)
 28017ec:	e13fff17 	ldw	r4,-4(fp)
 28017f0:	21000044 	addi	r4,r4,1
 28017f4:	e13fff15 	stw	r4,-4(fp)
 28017f8:	e0bfff17 	ldw	r2,-4(fp)
 28017fc:	10800058 	cmpnei	r2,r2,1
 2801800:	1000081e 	bne	r2,zero,2801824 <role_map1+0x420>
					while(IORD(BUTTON2_BASE,0)==bt2);
 2801804:	00804034 	movhi	r2,256
 2801808:	10802004 	addi	r2,r2,128
 280180c:	10c00037 	ldwio	r3,0(r2)
 2801810:	d0aa1a17 	ldw	r2,-22424(gp)
 2801814:	18bffb26 	beq	r3,r2,2801804 <role_map1+0x400>
					printf("\n AU}lC\n");
 2801818:	0100a074 	movhi	r4,641
 280181c:	213e0a04 	addi	r4,r4,-2008
 2801820:	28023380 	call	2802338 <puts>
				}
			}
		if(up!=1){
 2801824:	d0aa1317 	ldw	r2,-22452(gp)
 2801828:	10800060 	cmpeqi	r2,r2,1
 280182c:	1000021e 	bne	r2,zero,2801838 <role_map1+0x434>
			a=0x0;
 2801830:	d02a1f15 	stw	zero,-22404(gp)
 2801834:	00000206 	br	2801840 <role_map1+0x43c>
			}else{
				a=0x01;
 2801838:	00800044 	movi	r2,1
 280183c:	d0aa1f15 	stw	r2,-22404(gp)
				}
		if(down!=1){
 2801840:	d0aa1417 	ldw	r2,-22448(gp)
 2801844:	10800060 	cmpeqi	r2,r2,1
 2801848:	1000021e 	bne	r2,zero,2801854 <role_map1+0x450>
					b=0x0;
 280184c:	d02a1815 	stw	zero,-22432(gp)
 2801850:	00000206 	br	280185c <role_map1+0x458>
				}else{
					b=0x08;
 2801854:	00800204 	movi	r2,8
 2801858:	d0aa1815 	stw	r2,-22432(gp)
				}
		if(right!=1){
 280185c:	d0aa1617 	ldw	r2,-22440(gp)
 2801860:	10800060 	cmpeqi	r2,r2,1
 2801864:	1000021e 	bne	r2,zero,2801870 <role_map1+0x46c>
					c=0x0;
 2801868:	d02a1c15 	stw	zero,-22416(gp)
 280186c:	00000206 	br	2801878 <role_map1+0x474>
				}else{
					c=0x06;
 2801870:	00800184 	movi	r2,6
 2801874:	d0aa1c15 	stw	r2,-22416(gp)
				}
		if(lift!=1){
 2801878:	d0aa1517 	ldw	r2,-22444(gp)
 280187c:	10800060 	cmpeqi	r2,r2,1
 2801880:	1000021e 	bne	r2,zero,280188c <role_map1+0x488>
					d=0x0;
 2801884:	d02a1d15 	stw	zero,-22412(gp)
 2801888:	00000206 	br	2801894 <role_map1+0x490>
				}else{
					d=0x30;
 280188c:	00800c04 	movi	r2,48
 2801890:	d0aa1d15 	stw	r2,-22412(gp)
				}
		dir=a+b+c+d+0x40;
 2801894:	d0ea1f17 	ldw	r3,-22404(gp)
 2801898:	d0aa1817 	ldw	r2,-22432(gp)
 280189c:	1887883a 	add	r3,r3,r2
 28018a0:	d0aa1c17 	ldw	r2,-22416(gp)
 28018a4:	1887883a 	add	r3,r3,r2
 28018a8:	d0aa1d17 	ldw	r2,-22412(gp)
 28018ac:	1885883a 	add	r2,r3,r2
 28018b0:	10801004 	addi	r2,r2,64
 28018b4:	d0aa1015 	stw	r2,-22464(gp)
		IOWR(HEX3_BASE,0,~dir);
 28018b8:	d0aa1017 	ldw	r2,-22464(gp)
 28018bc:	0086303a 	nor	r3,zero,r2
 28018c0:	00804034 	movhi	r2,256
 28018c4:	10801004 	addi	r2,r2,64
 28018c8:	10c00035 	stwio	r3,0(r2)
		IOWR(HEX2_BASE,0,he0(x));
 28018cc:	d1200017 	ldw	r4,-32768(gp)
 28018d0:	28007c80 	call	28007c8 <he0>
 28018d4:	1007883a 	mov	r3,r2
 28018d8:	00804034 	movhi	r2,256
 28018dc:	10801404 	addi	r2,r2,80
 28018e0:	10c00035 	stwio	r3,0(r2)
		IOWR(HEX1_BASE,0,~0x40);
 28018e4:	00c04034 	movhi	r3,256
 28018e8:	18c01804 	addi	r3,r3,96
 28018ec:	00bfefc4 	movi	r2,-65
 28018f0:	18800035 	stwio	r2,0(r3)
		IOWR(HEX0_BASE,0,he0(y));
 28018f4:	d1200117 	ldw	r4,-32764(gp)
 28018f8:	28007c80 	call	28007c8 <he0>
 28018fc:	1007883a 	mov	r3,r2
 2801900:	00804034 	movhi	r2,256
 2801904:	10801c04 	addi	r2,r2,112
 2801908:	10c00035 	stwio	r3,0(r2)
		if(role==2)
 280190c:	d0aa1217 	ldw	r2,-22456(gp)
 2801910:	108000a0 	cmpeqi	r2,r2,2
 2801914:	1000031e 	bne	r2,zero,2801924 <role_map1+0x520>
		{
		break;
		}
		usleep(10000);
 2801918:	0109c404 	movi	r4,10000
 280191c:	280c8340 	call	280c834 <usleep>
		}
 2801920:	003ec306 	br	2801430 <role_map1+0x2c>
}
 2801924:	e037883a 	mov	sp,fp
 2801928:	dfc00317 	ldw	ra,12(sp)
 280192c:	df000217 	ldw	fp,8(sp)
 2801930:	dc400117 	ldw	r17,4(sp)
 2801934:	dc000017 	ldw	r16,0(sp)
 2801938:	dec00404 	addi	sp,sp,16
 280193c:	f800283a 	ret

02801940 <role_map4>:


void role_map4(tmp){
 2801940:	defff804 	addi	sp,sp,-32
 2801944:	dfc00715 	stw	ra,28(sp)
 2801948:	df000615 	stw	fp,24(sp)
 280194c:	dc400515 	stw	r17,20(sp)
 2801950:	dc000415 	stw	r16,16(sp)
 2801954:	df000404 	addi	fp,sp,16
 2801958:	e13ffc15 	stw	r4,-16(fp)
	x=10;
 280195c:	00800284 	movi	r2,10
 2801960:	d0a00015 	stw	r2,-32768(gp)
	y=10;
 2801964:	00800284 	movi	r2,10
 2801968:	d0a00115 	stw	r2,-32764(gp)
	tmp = sPIO.uiPressCnt;
 280196c:	0080a074 	movhi	r2,641
 2801970:	10934104 	addi	r2,r2,19716
 2801974:	10800617 	ldw	r2,24(r2)
 2801978:	e0bffc15 	stw	r2,-16(fp)
	while(1){
		bt2=IORD(BUTTON2_BASE,0);
 280197c:	00804034 	movhi	r2,256
 2801980:	10802004 	addi	r2,r2,128
 2801984:	10800037 	ldwio	r2,0(r2)
 2801988:	d0aa1a15 	stw	r2,-22424(gp)
		role=maze4[y][x];
 280198c:	d1200117 	ldw	r4,-32764(gp)
 2801990:	d4200017 	ldw	r16,-32768(gp)
 2801994:	0440a074 	movhi	r17,641
 2801998:	8c409304 	addi	r17,r17,588
 280199c:	01400544 	movi	r5,21
 28019a0:	28021e80 	call	28021e8 <__mulsi3>
 28019a4:	1405883a 	add	r2,r2,r16
 28019a8:	1085883a 	add	r2,r2,r2
 28019ac:	1085883a 	add	r2,r2,r2
 28019b0:	1445883a 	add	r2,r2,r17
 28019b4:	10800017 	ldw	r2,0(r2)
 28019b8:	d0aa1215 	stw	r2,-22456(gp)
		up=maze4[y-1][x];
 28019bc:	d0a00117 	ldw	r2,-32764(gp)
 28019c0:	113fffc4 	addi	r4,r2,-1
 28019c4:	d4200017 	ldw	r16,-32768(gp)
 28019c8:	0440a074 	movhi	r17,641
 28019cc:	8c409304 	addi	r17,r17,588
 28019d0:	01400544 	movi	r5,21
 28019d4:	28021e80 	call	28021e8 <__mulsi3>
 28019d8:	1405883a 	add	r2,r2,r16
 28019dc:	1085883a 	add	r2,r2,r2
 28019e0:	1085883a 	add	r2,r2,r2
 28019e4:	1445883a 	add	r2,r2,r17
 28019e8:	10800017 	ldw	r2,0(r2)
 28019ec:	d0aa1315 	stw	r2,-22452(gp)
		down=maze4[y+1][x];
 28019f0:	d0a00117 	ldw	r2,-32764(gp)
 28019f4:	11000044 	addi	r4,r2,1
 28019f8:	d4200017 	ldw	r16,-32768(gp)
 28019fc:	0440a074 	movhi	r17,641
 2801a00:	8c409304 	addi	r17,r17,588
 2801a04:	01400544 	movi	r5,21
 2801a08:	28021e80 	call	28021e8 <__mulsi3>
 2801a0c:	1405883a 	add	r2,r2,r16
 2801a10:	1085883a 	add	r2,r2,r2
 2801a14:	1085883a 	add	r2,r2,r2
 2801a18:	1445883a 	add	r2,r2,r17
 2801a1c:	10800017 	ldw	r2,0(r2)
 2801a20:	d0aa1415 	stw	r2,-22448(gp)
		lift=maze4[y][x-1];
 2801a24:	d1200117 	ldw	r4,-32764(gp)
 2801a28:	d0a00017 	ldw	r2,-32768(gp)
 2801a2c:	143fffc4 	addi	r16,r2,-1
 2801a30:	0440a074 	movhi	r17,641
 2801a34:	8c409304 	addi	r17,r17,588
 2801a38:	01400544 	movi	r5,21
 2801a3c:	28021e80 	call	28021e8 <__mulsi3>
 2801a40:	1405883a 	add	r2,r2,r16
 2801a44:	1085883a 	add	r2,r2,r2
 2801a48:	1085883a 	add	r2,r2,r2
 2801a4c:	1445883a 	add	r2,r2,r17
 2801a50:	10800017 	ldw	r2,0(r2)
 2801a54:	d0aa1515 	stw	r2,-22444(gp)
		right=maze4[y][x+1];
 2801a58:	d1200117 	ldw	r4,-32764(gp)
 2801a5c:	d0a00017 	ldw	r2,-32768(gp)
 2801a60:	14000044 	addi	r16,r2,1
 2801a64:	0440a074 	movhi	r17,641
 2801a68:	8c409304 	addi	r17,r17,588
 2801a6c:	01400544 	movi	r5,21
 2801a70:	28021e80 	call	28021e8 <__mulsi3>
 2801a74:	1405883a 	add	r2,r2,r16
 2801a78:	1085883a 	add	r2,r2,r2
 2801a7c:	1085883a 	add	r2,r2,r2
 2801a80:	1445883a 	add	r2,r2,r17
 2801a84:	10800017 	ldw	r2,0(r2)
 2801a88:	d0aa1615 	stw	r2,-22440(gp)
		if(tmp != sPIO.uiPressCnt){
 2801a8c:	e0fffc17 	ldw	r3,-16(fp)
 2801a90:	0080a074 	movhi	r2,641
 2801a94:	10934104 	addi	r2,r2,19716
 2801a98:	10800617 	ldw	r2,24(r2)
 2801a9c:	18804926 	beq	r3,r2,2801bc4 <role_map4+0x284>
			  tmp = sPIO.uiPressCnt;
 2801aa0:	0080a074 	movhi	r2,641
 2801aa4:	10934104 	addi	r2,r2,19716
 2801aa8:	10800617 	ldw	r2,24(r2)
 2801aac:	e0bffc15 	stw	r2,-16(fp)
			if(tmp%2==0){
 2801ab0:	e0bffc17 	ldw	r2,-16(fp)
 2801ab4:	1080004c 	andi	r2,r2,1
 2801ab8:	1004c03a 	cmpne	r2,r2,zero
 2801abc:	1000041e 	bne	r2,zero,2801ad0 <role_map4+0x190>
			  printf("\n start game \n");
 2801ac0:	0100a074 	movhi	r4,641
 2801ac4:	213df104 	addi	r4,r4,-2108
 2801ac8:	28023380 	call	2802338 <puts>
 2801acc:	00003d06 	br	2801bc4 <role_map4+0x284>
			}else if(tmp%2==1){
 2801ad0:	e0bffc17 	ldw	r2,-16(fp)
 2801ad4:	00e00034 	movhi	r3,32768
 2801ad8:	18c00044 	addi	r3,r3,1
 2801adc:	10c4703a 	and	r2,r2,r3
 2801ae0:	e0bffe15 	stw	r2,-8(fp)
 2801ae4:	e0fffe17 	ldw	r3,-8(fp)
 2801ae8:	1804403a 	cmpge	r2,r3,zero
 2801aec:	10000a1e 	bne	r2,zero,2801b18 <role_map4+0x1d8>
 2801af0:	e13ffe17 	ldw	r4,-8(fp)
 2801af4:	213fffc4 	addi	r4,r4,-1
 2801af8:	e13ffe15 	stw	r4,-8(fp)
 2801afc:	00bfff84 	movi	r2,-2
 2801b00:	e0fffe17 	ldw	r3,-8(fp)
 2801b04:	1886b03a 	or	r3,r3,r2
 2801b08:	e0fffe15 	stw	r3,-8(fp)
 2801b0c:	e13ffe17 	ldw	r4,-8(fp)
 2801b10:	21000044 	addi	r4,r4,1
 2801b14:	e13ffe15 	stw	r4,-8(fp)
 2801b18:	e0bffe17 	ldw	r2,-8(fp)
 2801b1c:	10800058 	cmpnei	r2,r2,1
 2801b20:	1000281e 	bne	r2,zero,2801bc4 <role_map4+0x284>
			  printf("pause game \n");
 2801b24:	0100a074 	movhi	r4,641
 2801b28:	213df504 	addi	r4,r4,-2092
 2801b2c:	28023380 	call	2802338 <puts>
			  printf("show the map \n");
 2801b30:	0100a074 	movhi	r4,641
 2801b34:	213df804 	addi	r4,r4,-2080
 2801b38:	28023380 	call	2802338 <puts>
			  for(i=0;i<21;i++){
 2801b3c:	d02a1b15 	stw	zero,-22420(gp)
 2801b40:	00001d06 	br	2801bb8 <role_map4+0x278>
				  printf("\n(%2d)B ",i);
 2801b44:	d16a1b17 	ldw	r5,-22420(gp)
 2801b48:	0100a074 	movhi	r4,641
 2801b4c:	213dfd04 	addi	r4,r4,-2060
 2801b50:	28022200 	call	2802220 <printf>
				  for(j=0;j<21;j++){
 2801b54:	d02a1915 	stw	zero,-22428(gp)
 2801b58:	00001106 	br	2801ba0 <role_map4+0x260>
					  printf("%d ",maze4[i][j]);
 2801b5c:	d12a1b17 	ldw	r4,-22420(gp)
 2801b60:	d42a1917 	ldw	r16,-22428(gp)
 2801b64:	0440a074 	movhi	r17,641
 2801b68:	8c409304 	addi	r17,r17,588
 2801b6c:	01400544 	movi	r5,21
 2801b70:	28021e80 	call	28021e8 <__mulsi3>
 2801b74:	1405883a 	add	r2,r2,r16
 2801b78:	1085883a 	add	r2,r2,r2
 2801b7c:	1085883a 	add	r2,r2,r2
 2801b80:	1445883a 	add	r2,r2,r17
 2801b84:	11400017 	ldw	r5,0(r2)
 2801b88:	0100a074 	movhi	r4,641
 2801b8c:	213e0004 	addi	r4,r4,-2048
 2801b90:	28022200 	call	2802220 <printf>
			}else if(tmp%2==1){
			  printf("pause game \n");
			  printf("show the map \n");
			  for(i=0;i<21;i++){
				  printf("\n(%2d)B ",i);
				  for(j=0;j<21;j++){
 2801b94:	d0aa1917 	ldw	r2,-22428(gp)
 2801b98:	10800044 	addi	r2,r2,1
 2801b9c:	d0aa1915 	stw	r2,-22428(gp)
 2801ba0:	d0aa1917 	ldw	r2,-22428(gp)
 2801ba4:	10800550 	cmplti	r2,r2,21
 2801ba8:	103fec1e 	bne	r2,zero,2801b5c <role_map4+0x21c>
			if(tmp%2==0){
			  printf("\n start game \n");
			}else if(tmp%2==1){
			  printf("pause game \n");
			  printf("show the map \n");
			  for(i=0;i<21;i++){
 2801bac:	d0aa1b17 	ldw	r2,-22420(gp)
 2801bb0:	10800044 	addi	r2,r2,1
 2801bb4:	d0aa1b15 	stw	r2,-22420(gp)
 2801bb8:	d0aa1b17 	ldw	r2,-22420(gp)
 2801bbc:	10800550 	cmplti	r2,r2,21
 2801bc0:	103fe01e 	bne	r2,zero,2801b44 <role_map4+0x204>
					  printf("%d ",maze4[i][j]);
				  }
				}
			}
			}
	if(tmp%2==0){
 2801bc4:	e0bffc17 	ldw	r2,-16(fp)
 2801bc8:	1080004c 	andi	r2,r2,1
 2801bcc:	1004c03a 	cmpne	r2,r2,zero
 2801bd0:	1000471e 	bne	r2,zero,2801cf0 <role_map4+0x3b0>
		if(bt2==0)
 2801bd4:	d0aa1a17 	ldw	r2,-22424(gp)
 2801bd8:	1004c03a 	cmpne	r2,r2,zero
 2801bdc:	1000641e 	bne	r2,zero,2801d70 <role_map4+0x430>
		{

			while(IORD(BUTTON2_BASE,0)==bt2);
 2801be0:	00804034 	movhi	r2,256
 2801be4:	10802004 	addi	r2,r2,128
 2801be8:	10c00037 	ldwio	r3,0(r2)
 2801bec:	d0aa1a17 	ldw	r2,-22424(gp)
 2801bf0:	18bffb26 	beq	r3,r2,2801be0 <role_map4+0x2a0>
			sw=IORD(SW_BASE,0);
 2801bf4:	00804034 	movhi	r2,256
 2801bf8:	10802c04 	addi	r2,r2,176
 2801bfc:	10800037 	ldwio	r2,0(r2)
 2801c00:	d0aa1e15 	stw	r2,-22408(gp)
			switch(sw)
 2801c04:	d0aa1e17 	ldw	r2,-22408(gp)
 2801c08:	e0bffd15 	stw	r2,-12(fp)
 2801c0c:	e0fffd17 	ldw	r3,-12(fp)
 2801c10:	18800268 	cmpgeui	r2,r3,9
 2801c14:	1000321e 	bne	r2,zero,2801ce0 <role_map4+0x3a0>
 2801c18:	e13ffd17 	ldw	r4,-12(fp)
 2801c1c:	e13ffd17 	ldw	r4,-12(fp)
 2801c20:	2105883a 	add	r2,r4,r4
 2801c24:	1087883a 	add	r3,r2,r2
 2801c28:	0080a034 	movhi	r2,640
 2801c2c:	10870f04 	addi	r2,r2,7228
 2801c30:	1885883a 	add	r2,r3,r2
 2801c34:	10800017 	ldw	r2,0(r2)
 2801c38:	1000683a 	jmp	r2
 2801c3c:	02801cd0 	cmplti	r10,zero,115
 2801c40:	02801cb4 	movhi	r10,114
 2801c44:	02801c98 	cmpnei	r10,zero,114
 2801c48:	02801ce0 	cmpeqi	r10,zero,115
 2801c4c:	02801c7c 	xorhi	r10,zero,113
 2801c50:	02801ce0 	cmpeqi	r10,zero,115
 2801c54:	02801ce0 	cmpeqi	r10,zero,115
 2801c58:	02801ce0 	cmpeqi	r10,zero,115
 2801c5c:	02801c60 	cmpeqi	r10,zero,113
			{
				case 0X08:
					if(up!=1)
 2801c60:	d0aa1317 	ldw	r2,-22452(gp)
 2801c64:	10800060 	cmpeqi	r2,r2,1
 2801c68:	1000411e 	bne	r2,zero,2801d70 <role_map4+0x430>
					{
						y--;
 2801c6c:	d0a00117 	ldw	r2,-32764(gp)
 2801c70:	10bfffc4 	addi	r2,r2,-1
 2801c74:	d0a00115 	stw	r2,-32764(gp)
					}
					break;
 2801c78:	00003d06 	br	2801d70 <role_map4+0x430>

				case 0X04:
					if(down!=1)
 2801c7c:	d0aa1417 	ldw	r2,-22448(gp)
 2801c80:	10800060 	cmpeqi	r2,r2,1
 2801c84:	10003a1e 	bne	r2,zero,2801d70 <role_map4+0x430>
					{
						y++;
 2801c88:	d0a00117 	ldw	r2,-32764(gp)
 2801c8c:	10800044 	addi	r2,r2,1
 2801c90:	d0a00115 	stw	r2,-32764(gp)
					}
					break;
 2801c94:	00003606 	br	2801d70 <role_map4+0x430>

				case 0X02:
					if(lift!=1)
 2801c98:	d0aa1517 	ldw	r2,-22444(gp)
 2801c9c:	10800060 	cmpeqi	r2,r2,1
 2801ca0:	1000331e 	bne	r2,zero,2801d70 <role_map4+0x430>
					{
						x--;
 2801ca4:	d0a00017 	ldw	r2,-32768(gp)
 2801ca8:	10bfffc4 	addi	r2,r2,-1
 2801cac:	d0a00015 	stw	r2,-32768(gp)
					}
					break;
 2801cb0:	00002f06 	br	2801d70 <role_map4+0x430>

				case 0x1:
					if(right!=1)
 2801cb4:	d0aa1617 	ldw	r2,-22440(gp)
 2801cb8:	10800060 	cmpeqi	r2,r2,1
 2801cbc:	10002c1e 	bne	r2,zero,2801d70 <role_map4+0x430>
					{
						x++;
 2801cc0:	d0a00017 	ldw	r2,-32768(gp)
 2801cc4:	10800044 	addi	r2,r2,1
 2801cc8:	d0a00015 	stw	r2,-32768(gp)
					}
					break;
 2801ccc:	00002806 	br	2801d70 <role_map4+0x430>

			    case 0x00:
			    	printf("!!!!\n");
 2801cd0:	0100a074 	movhi	r4,641
 2801cd4:	213e0104 	addi	r4,r4,-2044
 2801cd8:	28023380 	call	2802338 <puts>
			    	break;
 2801cdc:	00002406 	br	2801d70 <role_map4+0x430>
				default:
					printf("\n");
 2801ce0:	0100a074 	movhi	r4,641
 2801ce4:	213e0604 	addi	r4,r4,-2024
 2801ce8:	28023380 	call	2802338 <puts>
 2801cec:	00002006 	br	2801d70 <role_map4+0x430>
					break;
				}
			}
			}else if(bt2==0){
 2801cf0:	d0aa1a17 	ldw	r2,-22424(gp)
 2801cf4:	1004c03a 	cmpne	r2,r2,zero
 2801cf8:	10001d1e 	bne	r2,zero,2801d70 <role_map4+0x430>
				if(tmp%2==1){
 2801cfc:	e0bffc17 	ldw	r2,-16(fp)
 2801d00:	00e00034 	movhi	r3,32768
 2801d04:	18c00044 	addi	r3,r3,1
 2801d08:	10c4703a 	and	r2,r2,r3
 2801d0c:	e0bfff15 	stw	r2,-4(fp)
 2801d10:	e0ffff17 	ldw	r3,-4(fp)
 2801d14:	1804403a 	cmpge	r2,r3,zero
 2801d18:	10000a1e 	bne	r2,zero,2801d44 <role_map4+0x404>
 2801d1c:	e13fff17 	ldw	r4,-4(fp)
 2801d20:	213fffc4 	addi	r4,r4,-1
 2801d24:	e13fff15 	stw	r4,-4(fp)
 2801d28:	00bfff84 	movi	r2,-2
 2801d2c:	e0ffff17 	ldw	r3,-4(fp)
 2801d30:	1886b03a 	or	r3,r3,r2
 2801d34:	e0ffff15 	stw	r3,-4(fp)
 2801d38:	e13fff17 	ldw	r4,-4(fp)
 2801d3c:	21000044 	addi	r4,r4,1
 2801d40:	e13fff15 	stw	r4,-4(fp)
 2801d44:	e0bfff17 	ldw	r2,-4(fp)
 2801d48:	10800058 	cmpnei	r2,r2,1
 2801d4c:	1000081e 	bne	r2,zero,2801d70 <role_map4+0x430>
				while(IORD(BUTTON2_BASE,0)==bt2);
 2801d50:	00804034 	movhi	r2,256
 2801d54:	10802004 	addi	r2,r2,128
 2801d58:	10c00037 	ldwio	r3,0(r2)
 2801d5c:	d0aa1a17 	ldw	r2,-22424(gp)
 2801d60:	18bffb26 	beq	r3,r2,2801d50 <role_map4+0x410>
				printf("\n AU}lC\n");
 2801d64:	0100a074 	movhi	r4,641
 2801d68:	213e0a04 	addi	r4,r4,-2008
 2801d6c:	28023380 	call	2802338 <puts>

				}
			}
			if(up!=1){
 2801d70:	d0aa1317 	ldw	r2,-22452(gp)
 2801d74:	10800060 	cmpeqi	r2,r2,1
 2801d78:	1000021e 	bne	r2,zero,2801d84 <role_map4+0x444>
			a=0x0;
 2801d7c:	d02a1f15 	stw	zero,-22404(gp)
 2801d80:	00000206 	br	2801d8c <role_map4+0x44c>
			}else{
				a=0x01;
 2801d84:	00800044 	movi	r2,1
 2801d88:	d0aa1f15 	stw	r2,-22404(gp)
				}
		if(down!=1){
 2801d8c:	d0aa1417 	ldw	r2,-22448(gp)
 2801d90:	10800060 	cmpeqi	r2,r2,1
 2801d94:	1000021e 	bne	r2,zero,2801da0 <role_map4+0x460>
					b=0x0;
 2801d98:	d02a1815 	stw	zero,-22432(gp)
 2801d9c:	00000206 	br	2801da8 <role_map4+0x468>
				}else{
					b=0x08;
 2801da0:	00800204 	movi	r2,8
 2801da4:	d0aa1815 	stw	r2,-22432(gp)
				}
		if(right!=1){
 2801da8:	d0aa1617 	ldw	r2,-22440(gp)
 2801dac:	10800060 	cmpeqi	r2,r2,1
 2801db0:	1000021e 	bne	r2,zero,2801dbc <role_map4+0x47c>
					c=0x0;
 2801db4:	d02a1c15 	stw	zero,-22416(gp)
 2801db8:	00000206 	br	2801dc4 <role_map4+0x484>
				}else{
					c=0x06;
 2801dbc:	00800184 	movi	r2,6
 2801dc0:	d0aa1c15 	stw	r2,-22416(gp)
				}
		if(lift!=1){
 2801dc4:	d0aa1517 	ldw	r2,-22444(gp)
 2801dc8:	10800060 	cmpeqi	r2,r2,1
 2801dcc:	1000021e 	bne	r2,zero,2801dd8 <role_map4+0x498>
					d=0x0;
 2801dd0:	d02a1d15 	stw	zero,-22412(gp)
 2801dd4:	00000206 	br	2801de0 <role_map4+0x4a0>
				}else{
					d=0x30;
 2801dd8:	00800c04 	movi	r2,48
 2801ddc:	d0aa1d15 	stw	r2,-22412(gp)
				}
		dir=a+b+c+d+0x40;
 2801de0:	d0ea1f17 	ldw	r3,-22404(gp)
 2801de4:	d0aa1817 	ldw	r2,-22432(gp)
 2801de8:	1887883a 	add	r3,r3,r2
 2801dec:	d0aa1c17 	ldw	r2,-22416(gp)
 2801df0:	1887883a 	add	r3,r3,r2
 2801df4:	d0aa1d17 	ldw	r2,-22412(gp)
 2801df8:	1885883a 	add	r2,r3,r2
 2801dfc:	10801004 	addi	r2,r2,64
 2801e00:	d0aa1015 	stw	r2,-22464(gp)
		IOWR(HEX3_BASE,0,~dir);
 2801e04:	d0aa1017 	ldw	r2,-22464(gp)
 2801e08:	0086303a 	nor	r3,zero,r2
 2801e0c:	00804034 	movhi	r2,256
 2801e10:	10801004 	addi	r2,r2,64
 2801e14:	10c00035 	stwio	r3,0(r2)
		IOWR(HEX2_BASE,0,he0(x));
 2801e18:	d1200017 	ldw	r4,-32768(gp)
 2801e1c:	28007c80 	call	28007c8 <he0>
 2801e20:	1007883a 	mov	r3,r2
 2801e24:	00804034 	movhi	r2,256
 2801e28:	10801404 	addi	r2,r2,80
 2801e2c:	10c00035 	stwio	r3,0(r2)
		IOWR(HEX1_BASE,0,~0x40);
 2801e30:	00c04034 	movhi	r3,256
 2801e34:	18c01804 	addi	r3,r3,96
 2801e38:	00bfefc4 	movi	r2,-65
 2801e3c:	18800035 	stwio	r2,0(r3)
		IOWR(HEX0_BASE,0,he0(y));
 2801e40:	d1200117 	ldw	r4,-32764(gp)
 2801e44:	28007c80 	call	28007c8 <he0>
 2801e48:	1007883a 	mov	r3,r2
 2801e4c:	00804034 	movhi	r2,256
 2801e50:	10801c04 	addi	r2,r2,112
 2801e54:	10c00035 	stwio	r3,0(r2)
		if(role==2)
 2801e58:	d0aa1217 	ldw	r2,-22456(gp)
 2801e5c:	108000a0 	cmpeqi	r2,r2,2
 2801e60:	1000031e 	bne	r2,zero,2801e70 <role_map4+0x530>
		{
		break;
		}
		usleep(10000);
 2801e64:	0109c404 	movi	r4,10000
 2801e68:	280c8340 	call	280c834 <usleep>
		}
 2801e6c:	003ec306 	br	280197c <role_map4+0x3c>
}
 2801e70:	e037883a 	mov	sp,fp
 2801e74:	dfc00317 	ldw	ra,12(sp)
 2801e78:	df000217 	ldw	fp,8(sp)
 2801e7c:	dc400117 	ldw	r17,4(sp)
 2801e80:	dc000017 	ldw	r16,0(sp)
 2801e84:	dec00404 	addi	sp,sp,16
 2801e88:	f800283a 	ret

02801e8c <main>:

unsigned int tmp;

sPIO_s sPIO;

int main(){
 2801e8c:	defff604 	addi	sp,sp,-40
 2801e90:	dfc00915 	stw	ra,36(sp)
 2801e94:	df000815 	stw	fp,32(sp)
 2801e98:	df000804 	addi	fp,sp,32
	int i=0,bt2=0,time=0,a,f;
 2801e9c:	e03ffd15 	stw	zero,-12(fp)
 2801ea0:	e03ffc15 	stw	zero,-16(fp)
 2801ea4:	e03ffb15 	stw	zero,-20(fp)
	int led=1;
 2801ea8:	00800044 	movi	r2,1
 2801eac:	e0bff815 	stw	r2,-32(fp)
    printf("CWh:\n}`@|(sw3:0)qjpOHWUknAw}Ubutton2YiHVwVei\n");
 2801eb0:	0100a074 	movhi	r4,641
 2801eb4:	213e1104 	addi	r4,r4,-1980
 2801eb8:	28023380 	call	2802338 <puts>
    printf("niHUbutton1CCa\nAUbutton1Yi^C\n");
 2801ebc:	0100a074 	movhi	r4,641
 2801ec0:	213e2e04 	addi	r4,r4,-1864
 2801ec4:	28023380 	call	2802338 <puts>
    printf("ps:aOLFO");
 2801ec8:	0100a074 	movhi	r4,641
 2801ecc:	213e4204 	addi	r4,r4,-1784
 2801ed0:	28022200 	call	2802220 <printf>
	IOWR(HEX0_BASE,0,~0x0);
 2801ed4:	00c04034 	movhi	r3,256
 2801ed8:	18c01c04 	addi	r3,r3,112
 2801edc:	00bfffc4 	movi	r2,-1
 2801ee0:	18800035 	stwio	r2,0(r3)
	IOWR(HEX1_BASE,0,~0x0);
 2801ee4:	00c04034 	movhi	r3,256
 2801ee8:	18c01804 	addi	r3,r3,96
 2801eec:	00bfffc4 	movi	r2,-1
 2801ef0:	18800035 	stwio	r2,0(r3)
	IOWR(HEX2_BASE,0,~0x0);
 2801ef4:	00c04034 	movhi	r3,256
 2801ef8:	18c01404 	addi	r3,r3,80
 2801efc:	00bfffc4 	movi	r2,-1
 2801f00:	18800035 	stwio	r2,0(r3)
	IOWR(HEX3_BASE,0,~0x0);
 2801f04:	00c04034 	movhi	r3,256
 2801f08:	18c01004 	addi	r3,r3,64
 2801f0c:	00bfffc4 	movi	r2,-1
 2801f10:	18800035 	stwio	r2,0(r3)
	IOWR(LED_BASE,0,0x0);
 2801f14:	00804034 	movhi	r2,256
 2801f18:	10802804 	addi	r2,r2,160
 2801f1c:	10000035 	stwio	zero,0(r2)
	while(1){
		if(i>4){
 2801f20:	e0bffd17 	ldw	r2,-12(fp)
 2801f24:	10800150 	cmplti	r2,r2,5
 2801f28:	1000011e 	bne	r2,zero,2801f30 <main+0xa4>
			i=0;
 2801f2c:	e03ffd15 	stw	zero,-12(fp)
		}
		if(time>200){
 2801f30:	e0bffb17 	ldw	r2,-20(fp)
 2801f34:	10803250 	cmplti	r2,r2,201
 2801f38:	1000041e 	bne	r2,zero,2801f4c <main+0xc0>
				i++;
 2801f3c:	e0bffd17 	ldw	r2,-12(fp)
 2801f40:	10800044 	addi	r2,r2,1
 2801f44:	e0bffd15 	stw	r2,-12(fp)
				time=0;
 2801f48:	e03ffb15 	stw	zero,-20(fp)
		}
		star_display(i);
 2801f4c:	e13ffd17 	ldw	r4,-12(fp)
 2801f50:	28001f00 	call	28001f0 <star_display>
		usleep(1000);
 2801f54:	0100fa04 	movi	r4,1000
 2801f58:	280c8340 	call	280c834 <usleep>
		time++;
 2801f5c:	e0bffb17 	ldw	r2,-20(fp)
 2801f60:	10800044 	addi	r2,r2,1
 2801f64:	e0bffb15 	stw	r2,-20(fp)
		bt2=IORD(BUTTON2_BASE,0);
 2801f68:	00804034 	movhi	r2,256
 2801f6c:	10802004 	addi	r2,r2,128
 2801f70:	10800037 	ldwio	r2,0(r2)
 2801f74:	e0bffc15 	stw	r2,-16(fp)
		if(bt2==0)
 2801f78:	e0bffc17 	ldw	r2,-16(fp)
 2801f7c:	1004c03a 	cmpne	r2,r2,zero
 2801f80:	103fe71e 	bne	r2,zero,2801f20 <main+0x94>
		  {
			   IOWR(HEX0_BASE,0,~0x0);
 2801f84:	00c04034 	movhi	r3,256
 2801f88:	18c01c04 	addi	r3,r3,112
 2801f8c:	00bfffc4 	movi	r2,-1
 2801f90:	18800035 	stwio	r2,0(r3)
			   IOWR(HEX1_BASE,0,~0x0);
 2801f94:	00c04034 	movhi	r3,256
 2801f98:	18c01804 	addi	r3,r3,96
 2801f9c:	00bfffc4 	movi	r2,-1
 2801fa0:	18800035 	stwio	r2,0(r3)
			   IOWR(HEX2_BASE,0,~0x0);
 2801fa4:	00c04034 	movhi	r3,256
 2801fa8:	18c01404 	addi	r3,r3,80
 2801fac:	00bfffc4 	movi	r2,-1
 2801fb0:	18800035 	stwio	r2,0(r3)
			   IOWR(HEX3_BASE,0,~0x0);
 2801fb4:	00c04034 	movhi	r3,256
 2801fb8:	18c01004 	addi	r3,r3,64
 2801fbc:	00bfffc4 	movi	r2,-1
 2801fc0:	18800035 	stwio	r2,0(r3)
			   while(IORD(BUTTON2_BASE,0)==bt2);
 2801fc4:	00804034 	movhi	r2,256
 2801fc8:	10802004 	addi	r2,r2,128
 2801fcc:	10c00037 	ldwio	r3,0(r2)
 2801fd0:	e0bffc17 	ldw	r2,-16(fp)
 2801fd4:	18bffb26 	beq	r3,r2,2801fc4 <main+0x138>
				printf("\nC}l\n");
 2801fd8:	0100a074 	movhi	r4,641
 2801fdc:	213e4a04 	addi	r4,r4,-1752
 2801fe0:	28023380 	call	2802338 <puts>
			   PIOISRInitial(&sPIO); /* lISR */
 2801fe4:	0100a074 	movhi	r4,641
 2801fe8:	21134104 	addi	r4,r4,19716
 2801fec:	28006fc0 	call	28006fc <PIOISRInitial>
			   	tmp = sPIO.uiPressCnt;
 2801ff0:	0080a074 	movhi	r2,641
 2801ff4:	10934104 	addi	r2,r2,19716
 2801ff8:	10800617 	ldw	r2,24(r2)
 2801ffc:	d0aa1715 	stw	r2,-22436(gp)
			   	srand(time);
 2802000:	e13ffb17 	ldw	r4,-20(fp)
 2802004:	280234c0 	call	280234c <srand>
			   	f= (rand()%4);
 2802008:	28023680 	call	2802368 <rand>
 280200c:	1007883a 	mov	r3,r2
 2802010:	00a00034 	movhi	r2,32768
 2802014:	108000c4 	addi	r2,r2,3
 2802018:	1886703a 	and	r3,r3,r2
 280201c:	e0fffe15 	stw	r3,-8(fp)
 2802020:	e0fffe17 	ldw	r3,-8(fp)
 2802024:	1804403a 	cmpge	r2,r3,zero
 2802028:	10000a1e 	bne	r2,zero,2802054 <main+0x1c8>
 280202c:	e0bffe17 	ldw	r2,-8(fp)
 2802030:	10bfffc4 	addi	r2,r2,-1
 2802034:	e0bffe15 	stw	r2,-8(fp)
 2802038:	00bfff04 	movi	r2,-4
 280203c:	e0fffe17 	ldw	r3,-8(fp)
 2802040:	1886b03a 	or	r3,r3,r2
 2802044:	e0fffe15 	stw	r3,-8(fp)
 2802048:	e0bffe17 	ldw	r2,-8(fp)
 280204c:	10800044 	addi	r2,r2,1
 2802050:	e0bffe15 	stw	r2,-8(fp)
 2802054:	e0fffe17 	ldw	r3,-8(fp)
 2802058:	e0fff915 	stw	r3,-28(fp)
			   	printf("\nHHa%d\n",f+1);
 280205c:	e0bff917 	ldw	r2,-28(fp)
 2802060:	11400044 	addi	r5,r2,1
 2802064:	0100a074 	movhi	r4,641
 2802068:	213e4d04 	addi	r4,r4,-1740
 280206c:	28022200 	call	2802220 <printf>
			   	IOWR(HEX0_BASE,0,he0(f+1));
 2802070:	e0bff917 	ldw	r2,-28(fp)
 2802074:	11000044 	addi	r4,r2,1
 2802078:	28007c80 	call	28007c8 <he0>
 280207c:	1007883a 	mov	r3,r2
 2802080:	00804034 	movhi	r2,256
 2802084:	10801c04 	addi	r2,r2,112
 2802088:	10c00035 	stwio	r3,0(r2)
			   	usleep(300000);
 280208c:	01000174 	movhi	r4,5
 2802090:	2124f804 	addi	r4,r4,-27680
 2802094:	280c8340 	call	280c834 <usleep>
				IOWR(HEX0_BASE,0,~0x0);
 2802098:	00c04034 	movhi	r3,256
 280209c:	18c01c04 	addi	r3,r3,112
 28020a0:	00bfffc4 	movi	r2,-1
 28020a4:	18800035 	stwio	r2,0(r3)
			   	switch(f){
 28020a8:	e0bff917 	ldw	r2,-28(fp)
 28020ac:	e0bfff15 	stw	r2,-4(fp)
 28020b0:	e0ffff17 	ldw	r3,-4(fp)
 28020b4:	18800060 	cmpeqi	r2,r3,1
 28020b8:	1000121e 	bne	r2,zero,2802104 <main+0x278>
 28020bc:	e0ffff17 	ldw	r3,-4(fp)
 28020c0:	18800088 	cmpgei	r2,r3,2
 28020c4:	1000041e 	bne	r2,zero,28020d8 <main+0x24c>
 28020c8:	e0ffff17 	ldw	r3,-4(fp)
 28020cc:	1805003a 	cmpeq	r2,r3,zero
 28020d0:	1000081e 	bne	r2,zero,28020f4 <main+0x268>
 28020d4:	00001606 	br	2802130 <main+0x2a4>
 28020d8:	e0ffff17 	ldw	r3,-4(fp)
 28020dc:	188000a0 	cmpeqi	r2,r3,2
 28020e0:	10000c1e 	bne	r2,zero,2802114 <main+0x288>
 28020e4:	e0ffff17 	ldw	r3,-4(fp)
 28020e8:	188000e0 	cmpeqi	r2,r3,3
 28020ec:	10000d1e 	bne	r2,zero,2802124 <main+0x298>
 28020f0:	00000f06 	br	2802130 <main+0x2a4>
			   	case 0:
			   		role_map1(tmp);
 28020f4:	d0aa1717 	ldw	r2,-22436(gp)
 28020f8:	1009883a 	mov	r4,r2
 28020fc:	28014040 	call	2801404 <role_map1>
			   		break;
 2802100:	00000e06 	br	280213c <main+0x2b0>
			   	case 1:
			   		role_map2(tmp);
 2802104:	d0aa1717 	ldw	r2,-22436(gp)
 2802108:	1009883a 	mov	r4,r2
 280210c:	2800ec80 	call	2800ec8 <role_map2>
			   		break;
 2802110:	00000a06 	br	280213c <main+0x2b0>
			   	case 2:
			   		role_map3(tmp);
 2802114:	d0aa1717 	ldw	r2,-22436(gp)
 2802118:	1009883a 	mov	r4,r2
 280211c:	280097c0 	call	280097c <role_map3>
			   		break;
 2802120:	00000606 	br	280213c <main+0x2b0>
			   	case 3:
			   		role_map4(tmp);
 2802124:	d12a1717 	ldw	r4,-22436(gp)
 2802128:	28019400 	call	2801940 <role_map4>
			   		break;
 280212c:	00000306 	br	280213c <main+0x2b0>
			   	default:
			   		printf("error");
 2802130:	0100a074 	movhi	r4,641
 2802134:	213e5204 	addi	r4,r4,-1720
 2802138:	28022200 	call	2802220 <printf>
			   		break;
			   	}
			   break;
		  }
	}
	i=0;
 280213c:	e03ffd15 	stw	zero,-12(fp)
	printf("you win");
 2802140:	0100a074 	movhi	r4,641
 2802144:	213e5404 	addi	r4,r4,-1712
 2802148:	28022200 	call	2802220 <printf>
	while(1){
		if( a==0){
 280214c:	e0bffa17 	ldw	r2,-24(fp)
 2802150:	1004c03a 	cmpne	r2,r2,zero
 2802154:	1000041e 	bne	r2,zero,2802168 <main+0x2dc>
		led=led<<1;
 2802158:	e0bff817 	ldw	r2,-32(fp)
 280215c:	1085883a 	add	r2,r2,r2
 2802160:	e0bff815 	stw	r2,-32(fp)
 2802164:	00000606 	br	2802180 <main+0x2f4>
		}else if(a==1){
 2802168:	e0bffa17 	ldw	r2,-24(fp)
 280216c:	10800058 	cmpnei	r2,r2,1
 2802170:	1000031e 	bne	r2,zero,2802180 <main+0x2f4>
		led=led>>1;
 2802174:	e0bff817 	ldw	r2,-32(fp)
 2802178:	1005d07a 	srai	r2,r2,1
 280217c:	e0bff815 	stw	r2,-32(fp)
		}
		if(led>=0x200){
 2802180:	e0bff817 	ldw	r2,-32(fp)
 2802184:	10808010 	cmplti	r2,r2,512
 2802188:	1000031e 	bne	r2,zero,2802198 <main+0x30c>
			a=1;
 280218c:	00800044 	movi	r2,1
 2802190:	e0bffa15 	stw	r2,-24(fp)
 2802194:	00000406 	br	28021a8 <main+0x31c>
		}else if(led==1){
 2802198:	e0bff817 	ldw	r2,-32(fp)
 280219c:	10800058 	cmpnei	r2,r2,1
 28021a0:	1000011e 	bne	r2,zero,28021a8 <main+0x31c>
			a=0;
 28021a4:	e03ffa15 	stw	zero,-24(fp)
		}
		if(i>=22){
 28021a8:	e0bffd17 	ldw	r2,-12(fp)
 28021ac:	10800590 	cmplti	r2,r2,22
 28021b0:	1000011e 	bne	r2,zero,28021b8 <main+0x32c>
			i=0;
 28021b4:	e03ffd15 	stw	zero,-12(fp)
		}
		end_display(i);
 28021b8:	e13ffd17 	ldw	r4,-12(fp)
 28021bc:	28003400 	call	2800340 <end_display>
		i++;
 28021c0:	e0bffd17 	ldw	r2,-12(fp)
 28021c4:	10800044 	addi	r2,r2,1
 28021c8:	e0bffd15 	stw	r2,-12(fp)
		IOWR(LED_BASE,0,led);
 28021cc:	00c04034 	movhi	r3,256
 28021d0:	18c02804 	addi	r3,r3,160
 28021d4:	e0bff817 	ldw	r2,-32(fp)
 28021d8:	18800035 	stwio	r2,0(r3)
		usleep(50000);
 28021dc:	0130d414 	movui	r4,50000
 28021e0:	280c8340 	call	280c834 <usleep>
	}
 28021e4:	003fd906 	br	280214c <main+0x2c0>

028021e8 <__mulsi3>:
 28021e8:	20000a26 	beq	r4,zero,2802214 <__mulsi3+0x2c>
 28021ec:	0007883a 	mov	r3,zero
 28021f0:	2080004c 	andi	r2,r4,1
 28021f4:	1005003a 	cmpeq	r2,r2,zero
 28021f8:	2008d07a 	srli	r4,r4,1
 28021fc:	1000011e 	bne	r2,zero,2802204 <__mulsi3+0x1c>
 2802200:	1947883a 	add	r3,r3,r5
 2802204:	294b883a 	add	r5,r5,r5
 2802208:	203ff91e 	bne	r4,zero,28021f0 <__mulsi3+0x8>
 280220c:	1805883a 	mov	r2,r3
 2802210:	f800283a 	ret
 2802214:	0007883a 	mov	r3,zero
 2802218:	1805883a 	mov	r2,r3
 280221c:	f800283a 	ret

02802220 <printf>:
 2802220:	defffb04 	addi	sp,sp,-20
 2802224:	dfc00115 	stw	ra,4(sp)
 2802228:	d9400215 	stw	r5,8(sp)
 280222c:	d9800315 	stw	r6,12(sp)
 2802230:	d9c00415 	stw	r7,16(sp)
 2802234:	0080a074 	movhi	r2,641
 2802238:	10890d04 	addi	r2,r2,9268
 280223c:	10c00017 	ldw	r3,0(r2)
 2802240:	200b883a 	mov	r5,r4
 2802244:	d8800204 	addi	r2,sp,8
 2802248:	19000217 	ldw	r4,8(r3)
 280224c:	100d883a 	mov	r6,r2
 2802250:	d8800015 	stw	r2,0(sp)
 2802254:	28043700 	call	2804370 <__vfprintf_internal>
 2802258:	dfc00117 	ldw	ra,4(sp)
 280225c:	dec00504 	addi	sp,sp,20
 2802260:	f800283a 	ret

02802264 <_printf_r>:
 2802264:	defffc04 	addi	sp,sp,-16
 2802268:	dfc00115 	stw	ra,4(sp)
 280226c:	d9800215 	stw	r6,8(sp)
 2802270:	d9c00315 	stw	r7,12(sp)
 2802274:	280d883a 	mov	r6,r5
 2802278:	21400217 	ldw	r5,8(r4)
 280227c:	d8c00204 	addi	r3,sp,8
 2802280:	180f883a 	mov	r7,r3
 2802284:	d8c00015 	stw	r3,0(sp)
 2802288:	28024ac0 	call	28024ac <___vfprintf_internal_r>
 280228c:	dfc00117 	ldw	ra,4(sp)
 2802290:	dec00404 	addi	sp,sp,16
 2802294:	f800283a 	ret

02802298 <_puts_r>:
 2802298:	defff604 	addi	sp,sp,-40
 280229c:	dc400715 	stw	r17,28(sp)
 28022a0:	2023883a 	mov	r17,r4
 28022a4:	2809883a 	mov	r4,r5
 28022a8:	dfc00915 	stw	ra,36(sp)
 28022ac:	dcc00815 	stw	r19,32(sp)
 28022b0:	2827883a 	mov	r19,r5
 28022b4:	28023e00 	call	28023e0 <strlen>
 28022b8:	89400217 	ldw	r5,8(r17)
 28022bc:	00c0a074 	movhi	r3,641
 28022c0:	18fe5604 	addi	r3,r3,-1704
 28022c4:	01c00044 	movi	r7,1
 28022c8:	12000044 	addi	r8,r2,1
 28022cc:	d8c00515 	stw	r3,20(sp)
 28022d0:	d9c00615 	stw	r7,24(sp)
 28022d4:	d8c00304 	addi	r3,sp,12
 28022d8:	01c00084 	movi	r7,2
 28022dc:	8809883a 	mov	r4,r17
 28022e0:	d80d883a 	mov	r6,sp
 28022e4:	d8c00015 	stw	r3,0(sp)
 28022e8:	dcc00315 	stw	r19,12(sp)
 28022ec:	da000215 	stw	r8,8(sp)
 28022f0:	d9c00115 	stw	r7,4(sp)
 28022f4:	d8800415 	stw	r2,16(sp)
 28022f8:	280662c0 	call	280662c <__sfvwrite_r>
 28022fc:	00ffffc4 	movi	r3,-1
 2802300:	10000626 	beq	r2,zero,280231c <_puts_r+0x84>
 2802304:	1805883a 	mov	r2,r3
 2802308:	dfc00917 	ldw	ra,36(sp)
 280230c:	dcc00817 	ldw	r19,32(sp)
 2802310:	dc400717 	ldw	r17,28(sp)
 2802314:	dec00a04 	addi	sp,sp,40
 2802318:	f800283a 	ret
 280231c:	00c00284 	movi	r3,10
 2802320:	1805883a 	mov	r2,r3
 2802324:	dfc00917 	ldw	ra,36(sp)
 2802328:	dcc00817 	ldw	r19,32(sp)
 280232c:	dc400717 	ldw	r17,28(sp)
 2802330:	dec00a04 	addi	sp,sp,40
 2802334:	f800283a 	ret

02802338 <puts>:
 2802338:	0080a074 	movhi	r2,641
 280233c:	10890d04 	addi	r2,r2,9268
 2802340:	200b883a 	mov	r5,r4
 2802344:	11000017 	ldw	r4,0(r2)
 2802348:	28022981 	jmpi	2802298 <_puts_r>

0280234c <srand>:
 280234c:	0080a074 	movhi	r2,641
 2802350:	10890d04 	addi	r2,r2,9268
 2802354:	11400017 	ldw	r5,0(r2)
 2802358:	0007883a 	mov	r3,zero
 280235c:	28c02a15 	stw	r3,168(r5)
 2802360:	29002915 	stw	r4,164(r5)
 2802364:	f800283a 	ret

02802368 <rand>:
 2802368:	defffe04 	addi	sp,sp,-8
 280236c:	0080a074 	movhi	r2,641
 2802370:	10890d04 	addi	r2,r2,9268
 2802374:	dc000015 	stw	r16,0(sp)
 2802378:	14000017 	ldw	r16,0(r2)
 280237c:	dfc00115 	stw	ra,4(sp)
 2802380:	00932574 	movhi	r2,19605
 2802384:	109fcb44 	addi	r2,r2,32557
 2802388:	82002917 	ldw	r8,164(r16)
 280238c:	82402a17 	ldw	r9,168(r16)
 2802390:	00d614b4 	movhi	r3,22610
 2802394:	18fd0b44 	addi	r3,r3,-3027
 2802398:	4009883a 	mov	r4,r8
 280239c:	180f883a 	mov	r7,r3
 28023a0:	100d883a 	mov	r6,r2
 28023a4:	480b883a 	mov	r5,r9
 28023a8:	28096ec0 	call	28096ec <__muldi3>
 28023ac:	02000044 	movi	r8,1
 28023b0:	1209883a 	add	r4,r2,r8
 28023b4:	2095803a 	cmpltu	r10,r4,r2
 28023b8:	50d5883a 	add	r10,r10,r3
 28023bc:	81002915 	stw	r4,164(r16)
 28023c0:	01200034 	movhi	r4,32768
 28023c4:	213fffc4 	addi	r4,r4,-1
 28023c8:	2284703a 	and	r2,r4,r10
 28023cc:	82802a15 	stw	r10,168(r16)
 28023d0:	dfc00117 	ldw	ra,4(sp)
 28023d4:	dc000017 	ldw	r16,0(sp)
 28023d8:	dec00204 	addi	sp,sp,8
 28023dc:	f800283a 	ret

028023e0 <strlen>:
 28023e0:	208000cc 	andi	r2,r4,3
 28023e4:	2011883a 	mov	r8,r4
 28023e8:	1000161e 	bne	r2,zero,2802444 <strlen+0x64>
 28023ec:	20c00017 	ldw	r3,0(r4)
 28023f0:	017fbff4 	movhi	r5,65279
 28023f4:	297fbfc4 	addi	r5,r5,-257
 28023f8:	01e02074 	movhi	r7,32897
 28023fc:	39e02004 	addi	r7,r7,-32640
 2802400:	1945883a 	add	r2,r3,r5
 2802404:	11c4703a 	and	r2,r2,r7
 2802408:	00c6303a 	nor	r3,zero,r3
 280240c:	1886703a 	and	r3,r3,r2
 2802410:	18000c1e 	bne	r3,zero,2802444 <strlen+0x64>
 2802414:	280d883a 	mov	r6,r5
 2802418:	380b883a 	mov	r5,r7
 280241c:	21000104 	addi	r4,r4,4
 2802420:	20800017 	ldw	r2,0(r4)
 2802424:	1187883a 	add	r3,r2,r6
 2802428:	1946703a 	and	r3,r3,r5
 280242c:	0084303a 	nor	r2,zero,r2
 2802430:	10c4703a 	and	r2,r2,r3
 2802434:	103ff926 	beq	r2,zero,280241c <strlen+0x3c>
 2802438:	20800007 	ldb	r2,0(r4)
 280243c:	10000326 	beq	r2,zero,280244c <strlen+0x6c>
 2802440:	21000044 	addi	r4,r4,1
 2802444:	20800007 	ldb	r2,0(r4)
 2802448:	103ffd1e 	bne	r2,zero,2802440 <strlen+0x60>
 280244c:	2205c83a 	sub	r2,r4,r8
 2802450:	f800283a 	ret

02802454 <__sprint_r>:
 2802454:	30800217 	ldw	r2,8(r6)
 2802458:	defffe04 	addi	sp,sp,-8
 280245c:	dc000015 	stw	r16,0(sp)
 2802460:	dfc00115 	stw	ra,4(sp)
 2802464:	3021883a 	mov	r16,r6
 2802468:	0007883a 	mov	r3,zero
 280246c:	1000061e 	bne	r2,zero,2802488 <__sprint_r+0x34>
 2802470:	1805883a 	mov	r2,r3
 2802474:	30000115 	stw	zero,4(r6)
 2802478:	dfc00117 	ldw	ra,4(sp)
 280247c:	dc000017 	ldw	r16,0(sp)
 2802480:	dec00204 	addi	sp,sp,8
 2802484:	f800283a 	ret
 2802488:	280662c0 	call	280662c <__sfvwrite_r>
 280248c:	1007883a 	mov	r3,r2
 2802490:	1805883a 	mov	r2,r3
 2802494:	80000115 	stw	zero,4(r16)
 2802498:	80000215 	stw	zero,8(r16)
 280249c:	dfc00117 	ldw	ra,4(sp)
 28024a0:	dc000017 	ldw	r16,0(sp)
 28024a4:	dec00204 	addi	sp,sp,8
 28024a8:	f800283a 	ret

028024ac <___vfprintf_internal_r>:
 28024ac:	defea404 	addi	sp,sp,-1392
 28024b0:	dd815815 	stw	r22,1376(sp)
 28024b4:	dc015215 	stw	r16,1352(sp)
 28024b8:	d9c15115 	stw	r7,1348(sp)
 28024bc:	dfc15b15 	stw	ra,1388(sp)
 28024c0:	df015a15 	stw	fp,1384(sp)
 28024c4:	ddc15915 	stw	r23,1380(sp)
 28024c8:	dd415715 	stw	r21,1372(sp)
 28024cc:	dd015615 	stw	r20,1368(sp)
 28024d0:	dcc15515 	stw	r19,1364(sp)
 28024d4:	dc815415 	stw	r18,1360(sp)
 28024d8:	dc415315 	stw	r17,1356(sp)
 28024dc:	282d883a 	mov	r22,r5
 28024e0:	3021883a 	mov	r16,r6
 28024e4:	d9014f15 	stw	r4,1340(sp)
 28024e8:	2806c500 	call	2806c50 <_localeconv_r>
 28024ec:	10800017 	ldw	r2,0(r2)
 28024f0:	d9c15117 	ldw	r7,1348(sp)
 28024f4:	d8814915 	stw	r2,1316(sp)
 28024f8:	d8814f17 	ldw	r2,1340(sp)
 28024fc:	10000226 	beq	r2,zero,2802508 <___vfprintf_internal_r+0x5c>
 2802500:	10800e17 	ldw	r2,56(r2)
 2802504:	10020d26 	beq	r2,zero,2802d3c <___vfprintf_internal_r+0x890>
 2802508:	b080030b 	ldhu	r2,12(r22)
 280250c:	1080020c 	andi	r2,r2,8
 2802510:	10020e26 	beq	r2,zero,2802d4c <___vfprintf_internal_r+0x8a0>
 2802514:	b0800417 	ldw	r2,16(r22)
 2802518:	10020c26 	beq	r2,zero,2802d4c <___vfprintf_internal_r+0x8a0>
 280251c:	b200030b 	ldhu	r8,12(r22)
 2802520:	00800284 	movi	r2,10
 2802524:	40c0068c 	andi	r3,r8,26
 2802528:	18802f1e 	bne	r3,r2,28025e8 <___vfprintf_internal_r+0x13c>
 280252c:	b080038f 	ldh	r2,14(r22)
 2802530:	10002d16 	blt	r2,zero,28025e8 <___vfprintf_internal_r+0x13c>
 2802534:	b240038b 	ldhu	r9,14(r22)
 2802538:	b2800717 	ldw	r10,28(r22)
 280253c:	b2c00917 	ldw	r11,36(r22)
 2802540:	d9014f17 	ldw	r4,1340(sp)
 2802544:	dc402904 	addi	r17,sp,164
 2802548:	d8804004 	addi	r2,sp,256
 280254c:	00c10004 	movi	r3,1024
 2802550:	423fff4c 	andi	r8,r8,65533
 2802554:	800d883a 	mov	r6,r16
 2802558:	880b883a 	mov	r5,r17
 280255c:	da002c0d 	sth	r8,176(sp)
 2802560:	da402c8d 	sth	r9,178(sp)
 2802564:	da803015 	stw	r10,192(sp)
 2802568:	dac03215 	stw	r11,200(sp)
 280256c:	d8802d15 	stw	r2,180(sp)
 2802570:	d8c02e15 	stw	r3,184(sp)
 2802574:	d8802915 	stw	r2,164(sp)
 2802578:	d8c02b15 	stw	r3,172(sp)
 280257c:	d8002f15 	stw	zero,188(sp)
 2802580:	28024ac0 	call	28024ac <___vfprintf_internal_r>
 2802584:	d8814b15 	stw	r2,1324(sp)
 2802588:	10000416 	blt	r2,zero,280259c <___vfprintf_internal_r+0xf0>
 280258c:	d9014f17 	ldw	r4,1340(sp)
 2802590:	880b883a 	mov	r5,r17
 2802594:	2805cc80 	call	2805cc8 <_fflush_r>
 2802598:	1002321e 	bne	r2,zero,2802e64 <___vfprintf_internal_r+0x9b8>
 280259c:	d8802c0b 	ldhu	r2,176(sp)
 28025a0:	1080100c 	andi	r2,r2,64
 28025a4:	10000326 	beq	r2,zero,28025b4 <___vfprintf_internal_r+0x108>
 28025a8:	b080030b 	ldhu	r2,12(r22)
 28025ac:	10801014 	ori	r2,r2,64
 28025b0:	b080030d 	sth	r2,12(r22)
 28025b4:	d8814b17 	ldw	r2,1324(sp)
 28025b8:	dfc15b17 	ldw	ra,1388(sp)
 28025bc:	df015a17 	ldw	fp,1384(sp)
 28025c0:	ddc15917 	ldw	r23,1380(sp)
 28025c4:	dd815817 	ldw	r22,1376(sp)
 28025c8:	dd415717 	ldw	r21,1372(sp)
 28025cc:	dd015617 	ldw	r20,1368(sp)
 28025d0:	dcc15517 	ldw	r19,1364(sp)
 28025d4:	dc815417 	ldw	r18,1360(sp)
 28025d8:	dc415317 	ldw	r17,1356(sp)
 28025dc:	dc015217 	ldw	r16,1352(sp)
 28025e0:	dec15c04 	addi	sp,sp,1392
 28025e4:	f800283a 	ret
 28025e8:	0005883a 	mov	r2,zero
 28025ec:	0007883a 	mov	r3,zero
 28025f0:	dd401904 	addi	r21,sp,100
 28025f4:	d8814215 	stw	r2,1288(sp)
 28025f8:	802f883a 	mov	r23,r16
 28025fc:	d8c14315 	stw	r3,1292(sp)
 2802600:	d8014b15 	stw	zero,1324(sp)
 2802604:	d8014815 	stw	zero,1312(sp)
 2802608:	d8014415 	stw	zero,1296(sp)
 280260c:	d8014715 	stw	zero,1308(sp)
 2802610:	dd400c15 	stw	r21,48(sp)
 2802614:	d8000e15 	stw	zero,56(sp)
 2802618:	d8000d15 	stw	zero,52(sp)
 280261c:	b8800007 	ldb	r2,0(r23)
 2802620:	10001926 	beq	r2,zero,2802688 <___vfprintf_internal_r+0x1dc>
 2802624:	00c00944 	movi	r3,37
 2802628:	10c01726 	beq	r2,r3,2802688 <___vfprintf_internal_r+0x1dc>
 280262c:	b821883a 	mov	r16,r23
 2802630:	00000106 	br	2802638 <___vfprintf_internal_r+0x18c>
 2802634:	10c00326 	beq	r2,r3,2802644 <___vfprintf_internal_r+0x198>
 2802638:	84000044 	addi	r16,r16,1
 280263c:	80800007 	ldb	r2,0(r16)
 2802640:	103ffc1e 	bne	r2,zero,2802634 <___vfprintf_internal_r+0x188>
 2802644:	85e7c83a 	sub	r19,r16,r23
 2802648:	98000e26 	beq	r19,zero,2802684 <___vfprintf_internal_r+0x1d8>
 280264c:	dc800e17 	ldw	r18,56(sp)
 2802650:	dc400d17 	ldw	r17,52(sp)
 2802654:	008001c4 	movi	r2,7
 2802658:	94e5883a 	add	r18,r18,r19
 280265c:	8c400044 	addi	r17,r17,1
 2802660:	adc00015 	stw	r23,0(r21)
 2802664:	dc800e15 	stw	r18,56(sp)
 2802668:	acc00115 	stw	r19,4(r21)
 280266c:	dc400d15 	stw	r17,52(sp)
 2802670:	14428b16 	blt	r2,r17,28030a0 <___vfprintf_internal_r+0xbf4>
 2802674:	ad400204 	addi	r21,r21,8
 2802678:	d9014b17 	ldw	r4,1324(sp)
 280267c:	24c9883a 	add	r4,r4,r19
 2802680:	d9014b15 	stw	r4,1324(sp)
 2802684:	802f883a 	mov	r23,r16
 2802688:	b8800007 	ldb	r2,0(r23)
 280268c:	10013c26 	beq	r2,zero,2802b80 <___vfprintf_internal_r+0x6d4>
 2802690:	bdc00044 	addi	r23,r23,1
 2802694:	d8000405 	stb	zero,16(sp)
 2802698:	b8c00007 	ldb	r3,0(r23)
 280269c:	04ffffc4 	movi	r19,-1
 28026a0:	d8014c15 	stw	zero,1328(sp)
 28026a4:	d8014a15 	stw	zero,1320(sp)
 28026a8:	d8c14d15 	stw	r3,1332(sp)
 28026ac:	bdc00044 	addi	r23,r23,1
 28026b0:	d9414d17 	ldw	r5,1332(sp)
 28026b4:	00801604 	movi	r2,88
 28026b8:	28fff804 	addi	r3,r5,-32
 28026bc:	10c06036 	bltu	r2,r3,2802840 <___vfprintf_internal_r+0x394>
 28026c0:	18c5883a 	add	r2,r3,r3
 28026c4:	1085883a 	add	r2,r2,r2
 28026c8:	00c0a034 	movhi	r3,640
 28026cc:	18c9b704 	addi	r3,r3,9948
 28026d0:	10c5883a 	add	r2,r2,r3
 28026d4:	11000017 	ldw	r4,0(r2)
 28026d8:	2000683a 	jmp	r4
 28026dc:	02803650 	cmplti	r10,zero,217
 28026e0:	02802840 	call	280284 <__alt_mem_sdram_ctrl-0x257fd7c>
 28026e4:	02802840 	call	280284 <__alt_mem_sdram_ctrl-0x257fd7c>
 28026e8:	0280363c 	xorhi	r10,zero,216
 28026ec:	02802840 	call	280284 <__alt_mem_sdram_ctrl-0x257fd7c>
 28026f0:	02802840 	call	280284 <__alt_mem_sdram_ctrl-0x257fd7c>
 28026f4:	02802840 	call	280284 <__alt_mem_sdram_ctrl-0x257fd7c>
 28026f8:	02802840 	call	280284 <__alt_mem_sdram_ctrl-0x257fd7c>
 28026fc:	02802840 	call	280284 <__alt_mem_sdram_ctrl-0x257fd7c>
 2802700:	02802840 	call	280284 <__alt_mem_sdram_ctrl-0x257fd7c>
 2802704:	0280341c 	xori	r10,zero,208
 2802708:	0280362c 	andhi	r10,zero,216
 280270c:	02802840 	call	280284 <__alt_mem_sdram_ctrl-0x257fd7c>
 2802710:	02803434 	movhi	r10,208
 2802714:	028036d4 	movui	r10,219
 2802718:	02802840 	call	280284 <__alt_mem_sdram_ctrl-0x257fd7c>
 280271c:	028036c0 	call	28036c <__alt_mem_sdram_ctrl-0x257fc94>
 2802720:	0280367c 	xorhi	r10,zero,217
 2802724:	0280367c 	xorhi	r10,zero,217
 2802728:	0280367c 	xorhi	r10,zero,217
 280272c:	0280367c 	xorhi	r10,zero,217
 2802730:	0280367c 	xorhi	r10,zero,217
 2802734:	0280367c 	xorhi	r10,zero,217
 2802738:	0280367c 	xorhi	r10,zero,217
 280273c:	0280367c 	xorhi	r10,zero,217
 2802740:	0280367c 	xorhi	r10,zero,217
 2802744:	02802840 	call	280284 <__alt_mem_sdram_ctrl-0x257fd7c>
 2802748:	02802840 	call	280284 <__alt_mem_sdram_ctrl-0x257fd7c>
 280274c:	02802840 	call	280284 <__alt_mem_sdram_ctrl-0x257fd7c>
 2802750:	02802840 	call	280284 <__alt_mem_sdram_ctrl-0x257fd7c>
 2802754:	02802840 	call	280284 <__alt_mem_sdram_ctrl-0x257fd7c>
 2802758:	02802840 	call	280284 <__alt_mem_sdram_ctrl-0x257fd7c>
 280275c:	02802840 	call	280284 <__alt_mem_sdram_ctrl-0x257fd7c>
 2802760:	02802840 	call	280284 <__alt_mem_sdram_ctrl-0x257fd7c>
 2802764:	02802840 	call	280284 <__alt_mem_sdram_ctrl-0x257fd7c>
 2802768:	02802840 	call	280284 <__alt_mem_sdram_ctrl-0x257fd7c>
 280276c:	02802e98 	cmpnei	r10,zero,186
 2802770:	02803504 	movi	r10,212
 2802774:	02802840 	call	280284 <__alt_mem_sdram_ctrl-0x257fd7c>
 2802778:	02803504 	movi	r10,212
 280277c:	02802840 	call	280284 <__alt_mem_sdram_ctrl-0x257fd7c>
 2802780:	02802840 	call	280284 <__alt_mem_sdram_ctrl-0x257fd7c>
 2802784:	02802840 	call	280284 <__alt_mem_sdram_ctrl-0x257fd7c>
 2802788:	02802840 	call	280284 <__alt_mem_sdram_ctrl-0x257fd7c>
 280278c:	02803668 	cmpgeui	r10,zero,217
 2802790:	02802840 	call	280284 <__alt_mem_sdram_ctrl-0x257fd7c>
 2802794:	02802840 	call	280284 <__alt_mem_sdram_ctrl-0x257fd7c>
 2802798:	02802f4c 	andi	r10,zero,189
 280279c:	02802840 	call	280284 <__alt_mem_sdram_ctrl-0x257fd7c>
 28027a0:	02802840 	call	280284 <__alt_mem_sdram_ctrl-0x257fd7c>
 28027a4:	02802840 	call	280284 <__alt_mem_sdram_ctrl-0x257fd7c>
 28027a8:	02802840 	call	280284 <__alt_mem_sdram_ctrl-0x257fd7c>
 28027ac:	02802840 	call	280284 <__alt_mem_sdram_ctrl-0x257fd7c>
 28027b0:	02802f98 	cmpnei	r10,zero,190
 28027b4:	02802840 	call	280284 <__alt_mem_sdram_ctrl-0x257fd7c>
 28027b8:	02802840 	call	280284 <__alt_mem_sdram_ctrl-0x257fd7c>
 28027bc:	028035b8 	rdprs	r10,zero,214
 28027c0:	02802840 	call	280284 <__alt_mem_sdram_ctrl-0x257fd7c>
 28027c4:	02802840 	call	280284 <__alt_mem_sdram_ctrl-0x257fd7c>
 28027c8:	02802840 	call	280284 <__alt_mem_sdram_ctrl-0x257fd7c>
 28027cc:	02802840 	call	280284 <__alt_mem_sdram_ctrl-0x257fd7c>
 28027d0:	02802840 	call	280284 <__alt_mem_sdram_ctrl-0x257fd7c>
 28027d4:	02802840 	call	280284 <__alt_mem_sdram_ctrl-0x257fd7c>
 28027d8:	02802840 	call	280284 <__alt_mem_sdram_ctrl-0x257fd7c>
 28027dc:	02802840 	call	280284 <__alt_mem_sdram_ctrl-0x257fd7c>
 28027e0:	02802840 	call	280284 <__alt_mem_sdram_ctrl-0x257fd7c>
 28027e4:	02802840 	call	280284 <__alt_mem_sdram_ctrl-0x257fd7c>
 28027e8:	0280358c 	andi	r10,zero,214
 28027ec:	02802ea4 	muli	r10,zero,186
 28027f0:	02803504 	movi	r10,212
 28027f4:	02803504 	movi	r10,212
 28027f8:	02803504 	movi	r10,212
 28027fc:	028034f0 	cmpltui	r10,zero,211
 2802800:	02802ea4 	muli	r10,zero,186
 2802804:	02802840 	call	280284 <__alt_mem_sdram_ctrl-0x257fd7c>
 2802808:	02802840 	call	280284 <__alt_mem_sdram_ctrl-0x257fd7c>
 280280c:	02803478 	rdprs	r10,zero,209
 2802810:	02802840 	call	280284 <__alt_mem_sdram_ctrl-0x257fd7c>
 2802814:	02803448 	cmpgei	r10,zero,209
 2802818:	02802f58 	cmpnei	r10,zero,189
 280281c:	028034a8 	cmpgeui	r10,zero,210
 2802820:	02803494 	movui	r10,210
 2802824:	02802840 	call	280284 <__alt_mem_sdram_ctrl-0x257fd7c>
 2802828:	0280373c 	xorhi	r10,zero,220
 280282c:	02802840 	call	280284 <__alt_mem_sdram_ctrl-0x257fd7c>
 2802830:	02802fa4 	muli	r10,zero,190
 2802834:	02802840 	call	280284 <__alt_mem_sdram_ctrl-0x257fd7c>
 2802838:	02802840 	call	280284 <__alt_mem_sdram_ctrl-0x257fd7c>
 280283c:	0280361c 	xori	r10,zero,216
 2802840:	d9014d17 	ldw	r4,1332(sp)
 2802844:	2000ce26 	beq	r4,zero,2802b80 <___vfprintf_internal_r+0x6d4>
 2802848:	01400044 	movi	r5,1
 280284c:	d9800f04 	addi	r6,sp,60
 2802850:	d9c14015 	stw	r7,1280(sp)
 2802854:	d9414515 	stw	r5,1300(sp)
 2802858:	d9814115 	stw	r6,1284(sp)
 280285c:	280f883a 	mov	r7,r5
 2802860:	d9000f05 	stb	r4,60(sp)
 2802864:	d8000405 	stb	zero,16(sp)
 2802868:	d8014615 	stw	zero,1304(sp)
 280286c:	d8c14c17 	ldw	r3,1328(sp)
 2802870:	1880008c 	andi	r2,r3,2
 2802874:	1005003a 	cmpeq	r2,r2,zero
 2802878:	d8815015 	stw	r2,1344(sp)
 280287c:	1000031e 	bne	r2,zero,280288c <___vfprintf_internal_r+0x3e0>
 2802880:	d9014517 	ldw	r4,1300(sp)
 2802884:	21000084 	addi	r4,r4,2
 2802888:	d9014515 	stw	r4,1300(sp)
 280288c:	d9414c17 	ldw	r5,1328(sp)
 2802890:	2940210c 	andi	r5,r5,132
 2802894:	d9414e15 	stw	r5,1336(sp)
 2802898:	28002d1e 	bne	r5,zero,2802950 <___vfprintf_internal_r+0x4a4>
 280289c:	d9814a17 	ldw	r6,1320(sp)
 28028a0:	d8814517 	ldw	r2,1300(sp)
 28028a4:	30a1c83a 	sub	r16,r6,r2
 28028a8:	0400290e 	bge	zero,r16,2802950 <___vfprintf_internal_r+0x4a4>
 28028ac:	00800404 	movi	r2,16
 28028b0:	14045e0e 	bge	r2,r16,2803a2c <___vfprintf_internal_r+0x1580>
 28028b4:	dc800e17 	ldw	r18,56(sp)
 28028b8:	dc400d17 	ldw	r17,52(sp)
 28028bc:	1027883a 	mov	r19,r2
 28028c0:	0700a074 	movhi	fp,641
 28028c4:	e73e7284 	addi	fp,fp,-1590
 28028c8:	050001c4 	movi	r20,7
 28028cc:	00000306 	br	28028dc <___vfprintf_internal_r+0x430>
 28028d0:	843ffc04 	addi	r16,r16,-16
 28028d4:	ad400204 	addi	r21,r21,8
 28028d8:	9c00130e 	bge	r19,r16,2802928 <___vfprintf_internal_r+0x47c>
 28028dc:	94800404 	addi	r18,r18,16
 28028e0:	8c400044 	addi	r17,r17,1
 28028e4:	af000015 	stw	fp,0(r21)
 28028e8:	acc00115 	stw	r19,4(r21)
 28028ec:	dc800e15 	stw	r18,56(sp)
 28028f0:	dc400d15 	stw	r17,52(sp)
 28028f4:	a47ff60e 	bge	r20,r17,28028d0 <___vfprintf_internal_r+0x424>
 28028f8:	d9014f17 	ldw	r4,1340(sp)
 28028fc:	b00b883a 	mov	r5,r22
 2802900:	d9800c04 	addi	r6,sp,48
 2802904:	d9c15115 	stw	r7,1348(sp)
 2802908:	28024540 	call	2802454 <__sprint_r>
 280290c:	d9c15117 	ldw	r7,1348(sp)
 2802910:	10009e1e 	bne	r2,zero,2802b8c <___vfprintf_internal_r+0x6e0>
 2802914:	843ffc04 	addi	r16,r16,-16
 2802918:	dc800e17 	ldw	r18,56(sp)
 280291c:	dc400d17 	ldw	r17,52(sp)
 2802920:	dd401904 	addi	r21,sp,100
 2802924:	9c3fed16 	blt	r19,r16,28028dc <___vfprintf_internal_r+0x430>
 2802928:	9425883a 	add	r18,r18,r16
 280292c:	8c400044 	addi	r17,r17,1
 2802930:	008001c4 	movi	r2,7
 2802934:	af000015 	stw	fp,0(r21)
 2802938:	ac000115 	stw	r16,4(r21)
 280293c:	dc800e15 	stw	r18,56(sp)
 2802940:	dc400d15 	stw	r17,52(sp)
 2802944:	1441f516 	blt	r2,r17,280311c <___vfprintf_internal_r+0xc70>
 2802948:	ad400204 	addi	r21,r21,8
 280294c:	00000206 	br	2802958 <___vfprintf_internal_r+0x4ac>
 2802950:	dc800e17 	ldw	r18,56(sp)
 2802954:	dc400d17 	ldw	r17,52(sp)
 2802958:	d8800407 	ldb	r2,16(sp)
 280295c:	10000b26 	beq	r2,zero,280298c <___vfprintf_internal_r+0x4e0>
 2802960:	00800044 	movi	r2,1
 2802964:	94800044 	addi	r18,r18,1
 2802968:	8c400044 	addi	r17,r17,1
 280296c:	a8800115 	stw	r2,4(r21)
 2802970:	d8c00404 	addi	r3,sp,16
 2802974:	008001c4 	movi	r2,7
 2802978:	a8c00015 	stw	r3,0(r21)
 280297c:	dc800e15 	stw	r18,56(sp)
 2802980:	dc400d15 	stw	r17,52(sp)
 2802984:	1441da16 	blt	r2,r17,28030f0 <___vfprintf_internal_r+0xc44>
 2802988:	ad400204 	addi	r21,r21,8
 280298c:	d9015017 	ldw	r4,1344(sp)
 2802990:	20000b1e 	bne	r4,zero,28029c0 <___vfprintf_internal_r+0x514>
 2802994:	d8800444 	addi	r2,sp,17
 2802998:	94800084 	addi	r18,r18,2
 280299c:	8c400044 	addi	r17,r17,1
 28029a0:	a8800015 	stw	r2,0(r21)
 28029a4:	00c00084 	movi	r3,2
 28029a8:	008001c4 	movi	r2,7
 28029ac:	a8c00115 	stw	r3,4(r21)
 28029b0:	dc800e15 	stw	r18,56(sp)
 28029b4:	dc400d15 	stw	r17,52(sp)
 28029b8:	1441c216 	blt	r2,r17,28030c4 <___vfprintf_internal_r+0xc18>
 28029bc:	ad400204 	addi	r21,r21,8
 28029c0:	d9414e17 	ldw	r5,1336(sp)
 28029c4:	00802004 	movi	r2,128
 28029c8:	2880b126 	beq	r5,r2,2802c90 <___vfprintf_internal_r+0x7e4>
 28029cc:	d8c14617 	ldw	r3,1304(sp)
 28029d0:	19e1c83a 	sub	r16,r3,r7
 28029d4:	0400260e 	bge	zero,r16,2802a70 <___vfprintf_internal_r+0x5c4>
 28029d8:	00800404 	movi	r2,16
 28029dc:	1403cf0e 	bge	r2,r16,280391c <___vfprintf_internal_r+0x1470>
 28029e0:	1027883a 	mov	r19,r2
 28029e4:	0700a074 	movhi	fp,641
 28029e8:	e73e6e84 	addi	fp,fp,-1606
 28029ec:	050001c4 	movi	r20,7
 28029f0:	00000306 	br	2802a00 <___vfprintf_internal_r+0x554>
 28029f4:	843ffc04 	addi	r16,r16,-16
 28029f8:	ad400204 	addi	r21,r21,8
 28029fc:	9c00130e 	bge	r19,r16,2802a4c <___vfprintf_internal_r+0x5a0>
 2802a00:	94800404 	addi	r18,r18,16
 2802a04:	8c400044 	addi	r17,r17,1
 2802a08:	af000015 	stw	fp,0(r21)
 2802a0c:	acc00115 	stw	r19,4(r21)
 2802a10:	dc800e15 	stw	r18,56(sp)
 2802a14:	dc400d15 	stw	r17,52(sp)
 2802a18:	a47ff60e 	bge	r20,r17,28029f4 <___vfprintf_internal_r+0x548>
 2802a1c:	d9014f17 	ldw	r4,1340(sp)
 2802a20:	b00b883a 	mov	r5,r22
 2802a24:	d9800c04 	addi	r6,sp,48
 2802a28:	d9c15115 	stw	r7,1348(sp)
 2802a2c:	28024540 	call	2802454 <__sprint_r>
 2802a30:	d9c15117 	ldw	r7,1348(sp)
 2802a34:	1000551e 	bne	r2,zero,2802b8c <___vfprintf_internal_r+0x6e0>
 2802a38:	843ffc04 	addi	r16,r16,-16
 2802a3c:	dc800e17 	ldw	r18,56(sp)
 2802a40:	dc400d17 	ldw	r17,52(sp)
 2802a44:	dd401904 	addi	r21,sp,100
 2802a48:	9c3fed16 	blt	r19,r16,2802a00 <___vfprintf_internal_r+0x554>
 2802a4c:	9425883a 	add	r18,r18,r16
 2802a50:	8c400044 	addi	r17,r17,1
 2802a54:	008001c4 	movi	r2,7
 2802a58:	af000015 	stw	fp,0(r21)
 2802a5c:	ac000115 	stw	r16,4(r21)
 2802a60:	dc800e15 	stw	r18,56(sp)
 2802a64:	dc400d15 	stw	r17,52(sp)
 2802a68:	14418216 	blt	r2,r17,2803074 <___vfprintf_internal_r+0xbc8>
 2802a6c:	ad400204 	addi	r21,r21,8
 2802a70:	d9014c17 	ldw	r4,1328(sp)
 2802a74:	2080400c 	andi	r2,r4,256
 2802a78:	10004a1e 	bne	r2,zero,2802ba4 <___vfprintf_internal_r+0x6f8>
 2802a7c:	d9414117 	ldw	r5,1284(sp)
 2802a80:	91e5883a 	add	r18,r18,r7
 2802a84:	8c400044 	addi	r17,r17,1
 2802a88:	008001c4 	movi	r2,7
 2802a8c:	a9400015 	stw	r5,0(r21)
 2802a90:	a9c00115 	stw	r7,4(r21)
 2802a94:	dc800e15 	stw	r18,56(sp)
 2802a98:	dc400d15 	stw	r17,52(sp)
 2802a9c:	14416716 	blt	r2,r17,280303c <___vfprintf_internal_r+0xb90>
 2802aa0:	a8c00204 	addi	r3,r21,8
 2802aa4:	d9814c17 	ldw	r6,1328(sp)
 2802aa8:	3080010c 	andi	r2,r6,4
 2802aac:	10002826 	beq	r2,zero,2802b50 <___vfprintf_internal_r+0x6a4>
 2802ab0:	d8814a17 	ldw	r2,1320(sp)
 2802ab4:	d9014517 	ldw	r4,1300(sp)
 2802ab8:	1121c83a 	sub	r16,r2,r4
 2802abc:	0400240e 	bge	zero,r16,2802b50 <___vfprintf_internal_r+0x6a4>
 2802ac0:	00800404 	movi	r2,16
 2802ac4:	1404550e 	bge	r2,r16,2803c1c <___vfprintf_internal_r+0x1770>
 2802ac8:	dc400d17 	ldw	r17,52(sp)
 2802acc:	1027883a 	mov	r19,r2
 2802ad0:	0700a074 	movhi	fp,641
 2802ad4:	e73e7284 	addi	fp,fp,-1590
 2802ad8:	050001c4 	movi	r20,7
 2802adc:	00000306 	br	2802aec <___vfprintf_internal_r+0x640>
 2802ae0:	843ffc04 	addi	r16,r16,-16
 2802ae4:	18c00204 	addi	r3,r3,8
 2802ae8:	9c00110e 	bge	r19,r16,2802b30 <___vfprintf_internal_r+0x684>
 2802aec:	94800404 	addi	r18,r18,16
 2802af0:	8c400044 	addi	r17,r17,1
 2802af4:	1f000015 	stw	fp,0(r3)
 2802af8:	1cc00115 	stw	r19,4(r3)
 2802afc:	dc800e15 	stw	r18,56(sp)
 2802b00:	dc400d15 	stw	r17,52(sp)
 2802b04:	a47ff60e 	bge	r20,r17,2802ae0 <___vfprintf_internal_r+0x634>
 2802b08:	d9014f17 	ldw	r4,1340(sp)
 2802b0c:	b00b883a 	mov	r5,r22
 2802b10:	d9800c04 	addi	r6,sp,48
 2802b14:	28024540 	call	2802454 <__sprint_r>
 2802b18:	10001c1e 	bne	r2,zero,2802b8c <___vfprintf_internal_r+0x6e0>
 2802b1c:	843ffc04 	addi	r16,r16,-16
 2802b20:	dc800e17 	ldw	r18,56(sp)
 2802b24:	dc400d17 	ldw	r17,52(sp)
 2802b28:	d8c01904 	addi	r3,sp,100
 2802b2c:	9c3fef16 	blt	r19,r16,2802aec <___vfprintf_internal_r+0x640>
 2802b30:	9425883a 	add	r18,r18,r16
 2802b34:	8c400044 	addi	r17,r17,1
 2802b38:	008001c4 	movi	r2,7
 2802b3c:	1f000015 	stw	fp,0(r3)
 2802b40:	1c000115 	stw	r16,4(r3)
 2802b44:	dc800e15 	stw	r18,56(sp)
 2802b48:	dc400d15 	stw	r17,52(sp)
 2802b4c:	1440cb16 	blt	r2,r17,2802e7c <___vfprintf_internal_r+0x9d0>
 2802b50:	d8814a17 	ldw	r2,1320(sp)
 2802b54:	d9414517 	ldw	r5,1300(sp)
 2802b58:	1140010e 	bge	r2,r5,2802b60 <___vfprintf_internal_r+0x6b4>
 2802b5c:	2805883a 	mov	r2,r5
 2802b60:	d9814b17 	ldw	r6,1324(sp)
 2802b64:	308d883a 	add	r6,r6,r2
 2802b68:	d9814b15 	stw	r6,1324(sp)
 2802b6c:	90013b1e 	bne	r18,zero,280305c <___vfprintf_internal_r+0xbb0>
 2802b70:	d9c14017 	ldw	r7,1280(sp)
 2802b74:	dd401904 	addi	r21,sp,100
 2802b78:	d8000d15 	stw	zero,52(sp)
 2802b7c:	003ea706 	br	280261c <___vfprintf_internal_r+0x170>
 2802b80:	d8800e17 	ldw	r2,56(sp)
 2802b84:	1005451e 	bne	r2,zero,280409c <___vfprintf_internal_r+0x1bf0>
 2802b88:	d8000d15 	stw	zero,52(sp)
 2802b8c:	b080030b 	ldhu	r2,12(r22)
 2802b90:	1080100c 	andi	r2,r2,64
 2802b94:	103e8726 	beq	r2,zero,28025b4 <___vfprintf_internal_r+0x108>
 2802b98:	00bfffc4 	movi	r2,-1
 2802b9c:	d8814b15 	stw	r2,1324(sp)
 2802ba0:	003e8406 	br	28025b4 <___vfprintf_internal_r+0x108>
 2802ba4:	d9814d17 	ldw	r6,1332(sp)
 2802ba8:	00801944 	movi	r2,101
 2802bac:	11806e16 	blt	r2,r6,2802d68 <___vfprintf_internal_r+0x8bc>
 2802bb0:	d9414717 	ldw	r5,1308(sp)
 2802bb4:	00c00044 	movi	r3,1
 2802bb8:	1943490e 	bge	r3,r5,28038e0 <___vfprintf_internal_r+0x1434>
 2802bbc:	d8814117 	ldw	r2,1284(sp)
 2802bc0:	94800044 	addi	r18,r18,1
 2802bc4:	8c400044 	addi	r17,r17,1
 2802bc8:	a8800015 	stw	r2,0(r21)
 2802bcc:	008001c4 	movi	r2,7
 2802bd0:	a8c00115 	stw	r3,4(r21)
 2802bd4:	dc800e15 	stw	r18,56(sp)
 2802bd8:	dc400d15 	stw	r17,52(sp)
 2802bdc:	1441ca16 	blt	r2,r17,2803308 <___vfprintf_internal_r+0xe5c>
 2802be0:	a8c00204 	addi	r3,r21,8
 2802be4:	d9014917 	ldw	r4,1316(sp)
 2802be8:	00800044 	movi	r2,1
 2802bec:	94800044 	addi	r18,r18,1
 2802bf0:	8c400044 	addi	r17,r17,1
 2802bf4:	18800115 	stw	r2,4(r3)
 2802bf8:	008001c4 	movi	r2,7
 2802bfc:	19000015 	stw	r4,0(r3)
 2802c00:	dc800e15 	stw	r18,56(sp)
 2802c04:	dc400d15 	stw	r17,52(sp)
 2802c08:	1441b616 	blt	r2,r17,28032e4 <___vfprintf_internal_r+0xe38>
 2802c0c:	1cc00204 	addi	r19,r3,8
 2802c10:	d9014217 	ldw	r4,1288(sp)
 2802c14:	d9414317 	ldw	r5,1292(sp)
 2802c18:	000d883a 	mov	r6,zero
 2802c1c:	000f883a 	mov	r7,zero
 2802c20:	280b0840 	call	280b084 <__nedf2>
 2802c24:	10017426 	beq	r2,zero,28031f8 <___vfprintf_internal_r+0xd4c>
 2802c28:	d9414717 	ldw	r5,1308(sp)
 2802c2c:	d9814117 	ldw	r6,1284(sp)
 2802c30:	8c400044 	addi	r17,r17,1
 2802c34:	2c85883a 	add	r2,r5,r18
 2802c38:	14bfffc4 	addi	r18,r2,-1
 2802c3c:	28bfffc4 	addi	r2,r5,-1
 2802c40:	30c00044 	addi	r3,r6,1
 2802c44:	98800115 	stw	r2,4(r19)
 2802c48:	008001c4 	movi	r2,7
 2802c4c:	98c00015 	stw	r3,0(r19)
 2802c50:	dc800e15 	stw	r18,56(sp)
 2802c54:	dc400d15 	stw	r17,52(sp)
 2802c58:	14418e16 	blt	r2,r17,2803294 <___vfprintf_internal_r+0xde8>
 2802c5c:	9cc00204 	addi	r19,r19,8
 2802c60:	d9414817 	ldw	r5,1312(sp)
 2802c64:	d8800804 	addi	r2,sp,32
 2802c68:	8c400044 	addi	r17,r17,1
 2802c6c:	9165883a 	add	r18,r18,r5
 2802c70:	98800015 	stw	r2,0(r19)
 2802c74:	008001c4 	movi	r2,7
 2802c78:	99400115 	stw	r5,4(r19)
 2802c7c:	dc800e15 	stw	r18,56(sp)
 2802c80:	dc400d15 	stw	r17,52(sp)
 2802c84:	1440ed16 	blt	r2,r17,280303c <___vfprintf_internal_r+0xb90>
 2802c88:	98c00204 	addi	r3,r19,8
 2802c8c:	003f8506 	br	2802aa4 <___vfprintf_internal_r+0x5f8>
 2802c90:	d9814a17 	ldw	r6,1320(sp)
 2802c94:	d8814517 	ldw	r2,1300(sp)
 2802c98:	30a1c83a 	sub	r16,r6,r2
 2802c9c:	043f4b0e 	bge	zero,r16,28029cc <___vfprintf_internal_r+0x520>
 2802ca0:	00800404 	movi	r2,16
 2802ca4:	14043a0e 	bge	r2,r16,2803d90 <___vfprintf_internal_r+0x18e4>
 2802ca8:	1027883a 	mov	r19,r2
 2802cac:	0700a074 	movhi	fp,641
 2802cb0:	e73e6e84 	addi	fp,fp,-1606
 2802cb4:	050001c4 	movi	r20,7
 2802cb8:	00000306 	br	2802cc8 <___vfprintf_internal_r+0x81c>
 2802cbc:	843ffc04 	addi	r16,r16,-16
 2802cc0:	ad400204 	addi	r21,r21,8
 2802cc4:	9c00130e 	bge	r19,r16,2802d14 <___vfprintf_internal_r+0x868>
 2802cc8:	94800404 	addi	r18,r18,16
 2802ccc:	8c400044 	addi	r17,r17,1
 2802cd0:	af000015 	stw	fp,0(r21)
 2802cd4:	acc00115 	stw	r19,4(r21)
 2802cd8:	dc800e15 	stw	r18,56(sp)
 2802cdc:	dc400d15 	stw	r17,52(sp)
 2802ce0:	a47ff60e 	bge	r20,r17,2802cbc <___vfprintf_internal_r+0x810>
 2802ce4:	d9014f17 	ldw	r4,1340(sp)
 2802ce8:	b00b883a 	mov	r5,r22
 2802cec:	d9800c04 	addi	r6,sp,48
 2802cf0:	d9c15115 	stw	r7,1348(sp)
 2802cf4:	28024540 	call	2802454 <__sprint_r>
 2802cf8:	d9c15117 	ldw	r7,1348(sp)
 2802cfc:	103fa31e 	bne	r2,zero,2802b8c <___vfprintf_internal_r+0x6e0>
 2802d00:	843ffc04 	addi	r16,r16,-16
 2802d04:	dc800e17 	ldw	r18,56(sp)
 2802d08:	dc400d17 	ldw	r17,52(sp)
 2802d0c:	dd401904 	addi	r21,sp,100
 2802d10:	9c3fed16 	blt	r19,r16,2802cc8 <___vfprintf_internal_r+0x81c>
 2802d14:	9425883a 	add	r18,r18,r16
 2802d18:	8c400044 	addi	r17,r17,1
 2802d1c:	008001c4 	movi	r2,7
 2802d20:	af000015 	stw	fp,0(r21)
 2802d24:	ac000115 	stw	r16,4(r21)
 2802d28:	dc800e15 	stw	r18,56(sp)
 2802d2c:	dc400d15 	stw	r17,52(sp)
 2802d30:	14416116 	blt	r2,r17,28032b8 <___vfprintf_internal_r+0xe0c>
 2802d34:	ad400204 	addi	r21,r21,8
 2802d38:	003f2406 	br	28029cc <___vfprintf_internal_r+0x520>
 2802d3c:	d9014f17 	ldw	r4,1340(sp)
 2802d40:	2805f600 	call	2805f60 <__sinit>
 2802d44:	d9c15117 	ldw	r7,1348(sp)
 2802d48:	003def06 	br	2802508 <___vfprintf_internal_r+0x5c>
 2802d4c:	d9014f17 	ldw	r4,1340(sp)
 2802d50:	b00b883a 	mov	r5,r22
 2802d54:	d9c15115 	stw	r7,1348(sp)
 2802d58:	28043940 	call	2804394 <__swsetup_r>
 2802d5c:	d9c15117 	ldw	r7,1348(sp)
 2802d60:	103dee26 	beq	r2,zero,280251c <___vfprintf_internal_r+0x70>
 2802d64:	003f8c06 	br	2802b98 <___vfprintf_internal_r+0x6ec>
 2802d68:	d9014217 	ldw	r4,1288(sp)
 2802d6c:	d9414317 	ldw	r5,1292(sp)
 2802d70:	000d883a 	mov	r6,zero
 2802d74:	000f883a 	mov	r7,zero
 2802d78:	280affc0 	call	280affc <__eqdf2>
 2802d7c:	1000f21e 	bne	r2,zero,2803148 <___vfprintf_internal_r+0xc9c>
 2802d80:	0080a074 	movhi	r2,641
 2802d84:	10be6e04 	addi	r2,r2,-1608
 2802d88:	94800044 	addi	r18,r18,1
 2802d8c:	8c400044 	addi	r17,r17,1
 2802d90:	a8800015 	stw	r2,0(r21)
 2802d94:	00c00044 	movi	r3,1
 2802d98:	008001c4 	movi	r2,7
 2802d9c:	a8c00115 	stw	r3,4(r21)
 2802da0:	dc800e15 	stw	r18,56(sp)
 2802da4:	dc400d15 	stw	r17,52(sp)
 2802da8:	14430016 	blt	r2,r17,28039ac <___vfprintf_internal_r+0x1500>
 2802dac:	a8c00204 	addi	r3,r21,8
 2802db0:	d8800517 	ldw	r2,20(sp)
 2802db4:	d9014717 	ldw	r4,1308(sp)
 2802db8:	11015c0e 	bge	r2,r4,280332c <___vfprintf_internal_r+0xe80>
 2802dbc:	dc400d17 	ldw	r17,52(sp)
 2802dc0:	d9814917 	ldw	r6,1316(sp)
 2802dc4:	00800044 	movi	r2,1
 2802dc8:	94800044 	addi	r18,r18,1
 2802dcc:	8c400044 	addi	r17,r17,1
 2802dd0:	18800115 	stw	r2,4(r3)
 2802dd4:	008001c4 	movi	r2,7
 2802dd8:	19800015 	stw	r6,0(r3)
 2802ddc:	dc800e15 	stw	r18,56(sp)
 2802de0:	dc400d15 	stw	r17,52(sp)
 2802de4:	14431616 	blt	r2,r17,2803a40 <___vfprintf_internal_r+0x1594>
 2802de8:	18c00204 	addi	r3,r3,8
 2802dec:	d8814717 	ldw	r2,1308(sp)
 2802df0:	143fffc4 	addi	r16,r2,-1
 2802df4:	043f2b0e 	bge	zero,r16,2802aa4 <___vfprintf_internal_r+0x5f8>
 2802df8:	00800404 	movi	r2,16
 2802dfc:	1402a80e 	bge	r2,r16,28038a0 <___vfprintf_internal_r+0x13f4>
 2802e00:	dc400d17 	ldw	r17,52(sp)
 2802e04:	1027883a 	mov	r19,r2
 2802e08:	0700a074 	movhi	fp,641
 2802e0c:	e73e6e84 	addi	fp,fp,-1606
 2802e10:	050001c4 	movi	r20,7
 2802e14:	00000306 	br	2802e24 <___vfprintf_internal_r+0x978>
 2802e18:	18c00204 	addi	r3,r3,8
 2802e1c:	843ffc04 	addi	r16,r16,-16
 2802e20:	9c02a20e 	bge	r19,r16,28038ac <___vfprintf_internal_r+0x1400>
 2802e24:	94800404 	addi	r18,r18,16
 2802e28:	8c400044 	addi	r17,r17,1
 2802e2c:	1f000015 	stw	fp,0(r3)
 2802e30:	1cc00115 	stw	r19,4(r3)
 2802e34:	dc800e15 	stw	r18,56(sp)
 2802e38:	dc400d15 	stw	r17,52(sp)
 2802e3c:	a47ff60e 	bge	r20,r17,2802e18 <___vfprintf_internal_r+0x96c>
 2802e40:	d9014f17 	ldw	r4,1340(sp)
 2802e44:	b00b883a 	mov	r5,r22
 2802e48:	d9800c04 	addi	r6,sp,48
 2802e4c:	28024540 	call	2802454 <__sprint_r>
 2802e50:	103f4e1e 	bne	r2,zero,2802b8c <___vfprintf_internal_r+0x6e0>
 2802e54:	dc800e17 	ldw	r18,56(sp)
 2802e58:	dc400d17 	ldw	r17,52(sp)
 2802e5c:	d8c01904 	addi	r3,sp,100
 2802e60:	003fee06 	br	2802e1c <___vfprintf_internal_r+0x970>
 2802e64:	d8802c0b 	ldhu	r2,176(sp)
 2802e68:	00ffffc4 	movi	r3,-1
 2802e6c:	d8c14b15 	stw	r3,1324(sp)
 2802e70:	1080100c 	andi	r2,r2,64
 2802e74:	103dcc1e 	bne	r2,zero,28025a8 <___vfprintf_internal_r+0xfc>
 2802e78:	003dce06 	br	28025b4 <___vfprintf_internal_r+0x108>
 2802e7c:	d9014f17 	ldw	r4,1340(sp)
 2802e80:	b00b883a 	mov	r5,r22
 2802e84:	d9800c04 	addi	r6,sp,48
 2802e88:	28024540 	call	2802454 <__sprint_r>
 2802e8c:	103f3f1e 	bne	r2,zero,2802b8c <___vfprintf_internal_r+0x6e0>
 2802e90:	dc800e17 	ldw	r18,56(sp)
 2802e94:	003f2e06 	br	2802b50 <___vfprintf_internal_r+0x6a4>
 2802e98:	d9414c17 	ldw	r5,1328(sp)
 2802e9c:	29400414 	ori	r5,r5,16
 2802ea0:	d9414c15 	stw	r5,1328(sp)
 2802ea4:	d9814c17 	ldw	r6,1328(sp)
 2802ea8:	3080080c 	andi	r2,r6,32
 2802eac:	10014f1e 	bne	r2,zero,28033ec <___vfprintf_internal_r+0xf40>
 2802eb0:	d8c14c17 	ldw	r3,1328(sp)
 2802eb4:	1880040c 	andi	r2,r3,16
 2802eb8:	1002f01e 	bne	r2,zero,2803a7c <___vfprintf_internal_r+0x15d0>
 2802ebc:	d9014c17 	ldw	r4,1328(sp)
 2802ec0:	2080100c 	andi	r2,r4,64
 2802ec4:	1002ed26 	beq	r2,zero,2803a7c <___vfprintf_internal_r+0x15d0>
 2802ec8:	3880000f 	ldh	r2,0(r7)
 2802ecc:	39c00104 	addi	r7,r7,4
 2802ed0:	d9c14015 	stw	r7,1280(sp)
 2802ed4:	1023d7fa 	srai	r17,r2,31
 2802ed8:	1021883a 	mov	r16,r2
 2802edc:	88037816 	blt	r17,zero,2803cc0 <___vfprintf_internal_r+0x1814>
 2802ee0:	01000044 	movi	r4,1
 2802ee4:	98000416 	blt	r19,zero,2802ef8 <___vfprintf_internal_r+0xa4c>
 2802ee8:	d8c14c17 	ldw	r3,1328(sp)
 2802eec:	00bfdfc4 	movi	r2,-129
 2802ef0:	1886703a 	and	r3,r3,r2
 2802ef4:	d8c14c15 	stw	r3,1328(sp)
 2802ef8:	8444b03a 	or	r2,r16,r17
 2802efc:	10022c1e 	bne	r2,zero,28037b0 <___vfprintf_internal_r+0x1304>
 2802f00:	98022b1e 	bne	r19,zero,28037b0 <___vfprintf_internal_r+0x1304>
 2802f04:	20803fcc 	andi	r2,r4,255
 2802f08:	1002a126 	beq	r2,zero,2803990 <___vfprintf_internal_r+0x14e4>
 2802f0c:	d8c01904 	addi	r3,sp,100
 2802f10:	dd000f04 	addi	r20,sp,60
 2802f14:	d8c14115 	stw	r3,1284(sp)
 2802f18:	d8c14117 	ldw	r3,1284(sp)
 2802f1c:	dcc14515 	stw	r19,1300(sp)
 2802f20:	a0c5c83a 	sub	r2,r20,r3
 2802f24:	11c00a04 	addi	r7,r2,40
 2802f28:	99c0010e 	bge	r19,r7,2802f30 <___vfprintf_internal_r+0xa84>
 2802f2c:	d9c14515 	stw	r7,1300(sp)
 2802f30:	dcc14615 	stw	r19,1304(sp)
 2802f34:	d8800407 	ldb	r2,16(sp)
 2802f38:	103e4c26 	beq	r2,zero,280286c <___vfprintf_internal_r+0x3c0>
 2802f3c:	d8814517 	ldw	r2,1300(sp)
 2802f40:	10800044 	addi	r2,r2,1
 2802f44:	d8814515 	stw	r2,1300(sp)
 2802f48:	003e4806 	br	280286c <___vfprintf_internal_r+0x3c0>
 2802f4c:	d9814c17 	ldw	r6,1328(sp)
 2802f50:	31800414 	ori	r6,r6,16
 2802f54:	d9814c15 	stw	r6,1328(sp)
 2802f58:	d8c14c17 	ldw	r3,1328(sp)
 2802f5c:	1880080c 	andi	r2,r3,32
 2802f60:	1001271e 	bne	r2,zero,2803400 <___vfprintf_internal_r+0xf54>
 2802f64:	d9414c17 	ldw	r5,1328(sp)
 2802f68:	2880040c 	andi	r2,r5,16
 2802f6c:	1002bc1e 	bne	r2,zero,2803a60 <___vfprintf_internal_r+0x15b4>
 2802f70:	d9814c17 	ldw	r6,1328(sp)
 2802f74:	3080100c 	andi	r2,r6,64
 2802f78:	1002b926 	beq	r2,zero,2803a60 <___vfprintf_internal_r+0x15b4>
 2802f7c:	3c00000b 	ldhu	r16,0(r7)
 2802f80:	0009883a 	mov	r4,zero
 2802f84:	39c00104 	addi	r7,r7,4
 2802f88:	0023883a 	mov	r17,zero
 2802f8c:	d9c14015 	stw	r7,1280(sp)
 2802f90:	d8000405 	stb	zero,16(sp)
 2802f94:	003fd306 	br	2802ee4 <___vfprintf_internal_r+0xa38>
 2802f98:	d9014c17 	ldw	r4,1328(sp)
 2802f9c:	21000414 	ori	r4,r4,16
 2802fa0:	d9014c15 	stw	r4,1328(sp)
 2802fa4:	d9414c17 	ldw	r5,1328(sp)
 2802fa8:	2880080c 	andi	r2,r5,32
 2802fac:	1001081e 	bne	r2,zero,28033d0 <___vfprintf_internal_r+0xf24>
 2802fb0:	d8c14c17 	ldw	r3,1328(sp)
 2802fb4:	1880040c 	andi	r2,r3,16
 2802fb8:	1002b61e 	bne	r2,zero,2803a94 <___vfprintf_internal_r+0x15e8>
 2802fbc:	d9014c17 	ldw	r4,1328(sp)
 2802fc0:	2080100c 	andi	r2,r4,64
 2802fc4:	1002b326 	beq	r2,zero,2803a94 <___vfprintf_internal_r+0x15e8>
 2802fc8:	3c00000b 	ldhu	r16,0(r7)
 2802fcc:	01000044 	movi	r4,1
 2802fd0:	39c00104 	addi	r7,r7,4
 2802fd4:	0023883a 	mov	r17,zero
 2802fd8:	d9c14015 	stw	r7,1280(sp)
 2802fdc:	d8000405 	stb	zero,16(sp)
 2802fe0:	003fc006 	br	2802ee4 <___vfprintf_internal_r+0xa38>
 2802fe4:	d9014f17 	ldw	r4,1340(sp)
 2802fe8:	b00b883a 	mov	r5,r22
 2802fec:	d9800c04 	addi	r6,sp,48
 2802ff0:	28024540 	call	2802454 <__sprint_r>
 2802ff4:	103ee51e 	bne	r2,zero,2802b8c <___vfprintf_internal_r+0x6e0>
 2802ff8:	dc800e17 	ldw	r18,56(sp)
 2802ffc:	d8c01904 	addi	r3,sp,100
 2803000:	d9814c17 	ldw	r6,1328(sp)
 2803004:	3080004c 	andi	r2,r6,1
 2803008:	1005003a 	cmpeq	r2,r2,zero
 280300c:	103ea51e 	bne	r2,zero,2802aa4 <___vfprintf_internal_r+0x5f8>
 2803010:	00800044 	movi	r2,1
 2803014:	dc400d17 	ldw	r17,52(sp)
 2803018:	18800115 	stw	r2,4(r3)
 280301c:	d8814917 	ldw	r2,1316(sp)
 2803020:	94800044 	addi	r18,r18,1
 2803024:	8c400044 	addi	r17,r17,1
 2803028:	18800015 	stw	r2,0(r3)
 280302c:	008001c4 	movi	r2,7
 2803030:	dc800e15 	stw	r18,56(sp)
 2803034:	dc400d15 	stw	r17,52(sp)
 2803038:	1442240e 	bge	r2,r17,28038cc <___vfprintf_internal_r+0x1420>
 280303c:	d9014f17 	ldw	r4,1340(sp)
 2803040:	b00b883a 	mov	r5,r22
 2803044:	d9800c04 	addi	r6,sp,48
 2803048:	28024540 	call	2802454 <__sprint_r>
 280304c:	103ecf1e 	bne	r2,zero,2802b8c <___vfprintf_internal_r+0x6e0>
 2803050:	dc800e17 	ldw	r18,56(sp)
 2803054:	d8c01904 	addi	r3,sp,100
 2803058:	003e9206 	br	2802aa4 <___vfprintf_internal_r+0x5f8>
 280305c:	d9014f17 	ldw	r4,1340(sp)
 2803060:	b00b883a 	mov	r5,r22
 2803064:	d9800c04 	addi	r6,sp,48
 2803068:	28024540 	call	2802454 <__sprint_r>
 280306c:	103ec026 	beq	r2,zero,2802b70 <___vfprintf_internal_r+0x6c4>
 2803070:	003ec606 	br	2802b8c <___vfprintf_internal_r+0x6e0>
 2803074:	d9014f17 	ldw	r4,1340(sp)
 2803078:	b00b883a 	mov	r5,r22
 280307c:	d9800c04 	addi	r6,sp,48
 2803080:	d9c15115 	stw	r7,1348(sp)
 2803084:	28024540 	call	2802454 <__sprint_r>
 2803088:	d9c15117 	ldw	r7,1348(sp)
 280308c:	103ebf1e 	bne	r2,zero,2802b8c <___vfprintf_internal_r+0x6e0>
 2803090:	dc800e17 	ldw	r18,56(sp)
 2803094:	dc400d17 	ldw	r17,52(sp)
 2803098:	dd401904 	addi	r21,sp,100
 280309c:	003e7406 	br	2802a70 <___vfprintf_internal_r+0x5c4>
 28030a0:	d9014f17 	ldw	r4,1340(sp)
 28030a4:	b00b883a 	mov	r5,r22
 28030a8:	d9800c04 	addi	r6,sp,48
 28030ac:	d9c15115 	stw	r7,1348(sp)
 28030b0:	28024540 	call	2802454 <__sprint_r>
 28030b4:	d9c15117 	ldw	r7,1348(sp)
 28030b8:	103eb41e 	bne	r2,zero,2802b8c <___vfprintf_internal_r+0x6e0>
 28030bc:	dd401904 	addi	r21,sp,100
 28030c0:	003d6d06 	br	2802678 <___vfprintf_internal_r+0x1cc>
 28030c4:	d9014f17 	ldw	r4,1340(sp)
 28030c8:	b00b883a 	mov	r5,r22
 28030cc:	d9800c04 	addi	r6,sp,48
 28030d0:	d9c15115 	stw	r7,1348(sp)
 28030d4:	28024540 	call	2802454 <__sprint_r>
 28030d8:	d9c15117 	ldw	r7,1348(sp)
 28030dc:	103eab1e 	bne	r2,zero,2802b8c <___vfprintf_internal_r+0x6e0>
 28030e0:	dc800e17 	ldw	r18,56(sp)
 28030e4:	dc400d17 	ldw	r17,52(sp)
 28030e8:	dd401904 	addi	r21,sp,100
 28030ec:	003e3406 	br	28029c0 <___vfprintf_internal_r+0x514>
 28030f0:	d9014f17 	ldw	r4,1340(sp)
 28030f4:	b00b883a 	mov	r5,r22
 28030f8:	d9800c04 	addi	r6,sp,48
 28030fc:	d9c15115 	stw	r7,1348(sp)
 2803100:	28024540 	call	2802454 <__sprint_r>
 2803104:	d9c15117 	ldw	r7,1348(sp)
 2803108:	103ea01e 	bne	r2,zero,2802b8c <___vfprintf_internal_r+0x6e0>
 280310c:	dc800e17 	ldw	r18,56(sp)
 2803110:	dc400d17 	ldw	r17,52(sp)
 2803114:	dd401904 	addi	r21,sp,100
 2803118:	003e1c06 	br	280298c <___vfprintf_internal_r+0x4e0>
 280311c:	d9014f17 	ldw	r4,1340(sp)
 2803120:	b00b883a 	mov	r5,r22
 2803124:	d9800c04 	addi	r6,sp,48
 2803128:	d9c15115 	stw	r7,1348(sp)
 280312c:	28024540 	call	2802454 <__sprint_r>
 2803130:	d9c15117 	ldw	r7,1348(sp)
 2803134:	103e951e 	bne	r2,zero,2802b8c <___vfprintf_internal_r+0x6e0>
 2803138:	dc800e17 	ldw	r18,56(sp)
 280313c:	dc400d17 	ldw	r17,52(sp)
 2803140:	dd401904 	addi	r21,sp,100
 2803144:	003e0406 	br	2802958 <___vfprintf_internal_r+0x4ac>
 2803148:	d9000517 	ldw	r4,20(sp)
 280314c:	0102580e 	bge	zero,r4,2803ab0 <___vfprintf_internal_r+0x1604>
 2803150:	d9814717 	ldw	r6,1308(sp)
 2803154:	21807a16 	blt	r4,r6,2803340 <___vfprintf_internal_r+0xe94>
 2803158:	d8814117 	ldw	r2,1284(sp)
 280315c:	91a5883a 	add	r18,r18,r6
 2803160:	8c400044 	addi	r17,r17,1
 2803164:	a8800015 	stw	r2,0(r21)
 2803168:	008001c4 	movi	r2,7
 280316c:	a9800115 	stw	r6,4(r21)
 2803170:	dc800e15 	stw	r18,56(sp)
 2803174:	dc400d15 	stw	r17,52(sp)
 2803178:	1442fc16 	blt	r2,r17,2803d6c <___vfprintf_internal_r+0x18c0>
 280317c:	a8c00204 	addi	r3,r21,8
 2803180:	d9414717 	ldw	r5,1308(sp)
 2803184:	2161c83a 	sub	r16,r4,r5
 2803188:	043f9d0e 	bge	zero,r16,2803000 <___vfprintf_internal_r+0xb54>
 280318c:	00800404 	movi	r2,16
 2803190:	1402190e 	bge	r2,r16,28039f8 <___vfprintf_internal_r+0x154c>
 2803194:	dc400d17 	ldw	r17,52(sp)
 2803198:	1027883a 	mov	r19,r2
 280319c:	0700a074 	movhi	fp,641
 28031a0:	e73e6e84 	addi	fp,fp,-1606
 28031a4:	050001c4 	movi	r20,7
 28031a8:	00000306 	br	28031b8 <___vfprintf_internal_r+0xd0c>
 28031ac:	18c00204 	addi	r3,r3,8
 28031b0:	843ffc04 	addi	r16,r16,-16
 28031b4:	9c02130e 	bge	r19,r16,2803a04 <___vfprintf_internal_r+0x1558>
 28031b8:	94800404 	addi	r18,r18,16
 28031bc:	8c400044 	addi	r17,r17,1
 28031c0:	1f000015 	stw	fp,0(r3)
 28031c4:	1cc00115 	stw	r19,4(r3)
 28031c8:	dc800e15 	stw	r18,56(sp)
 28031cc:	dc400d15 	stw	r17,52(sp)
 28031d0:	a47ff60e 	bge	r20,r17,28031ac <___vfprintf_internal_r+0xd00>
 28031d4:	d9014f17 	ldw	r4,1340(sp)
 28031d8:	b00b883a 	mov	r5,r22
 28031dc:	d9800c04 	addi	r6,sp,48
 28031e0:	28024540 	call	2802454 <__sprint_r>
 28031e4:	103e691e 	bne	r2,zero,2802b8c <___vfprintf_internal_r+0x6e0>
 28031e8:	dc800e17 	ldw	r18,56(sp)
 28031ec:	dc400d17 	ldw	r17,52(sp)
 28031f0:	d8c01904 	addi	r3,sp,100
 28031f4:	003fee06 	br	28031b0 <___vfprintf_internal_r+0xd04>
 28031f8:	d8814717 	ldw	r2,1308(sp)
 28031fc:	143fffc4 	addi	r16,r2,-1
 2803200:	043e970e 	bge	zero,r16,2802c60 <___vfprintf_internal_r+0x7b4>
 2803204:	00800404 	movi	r2,16
 2803208:	1400180e 	bge	r2,r16,280326c <___vfprintf_internal_r+0xdc0>
 280320c:	1029883a 	mov	r20,r2
 2803210:	0700a074 	movhi	fp,641
 2803214:	e73e6e84 	addi	fp,fp,-1606
 2803218:	054001c4 	movi	r21,7
 280321c:	00000306 	br	280322c <___vfprintf_internal_r+0xd80>
 2803220:	9cc00204 	addi	r19,r19,8
 2803224:	843ffc04 	addi	r16,r16,-16
 2803228:	a400120e 	bge	r20,r16,2803274 <___vfprintf_internal_r+0xdc8>
 280322c:	94800404 	addi	r18,r18,16
 2803230:	8c400044 	addi	r17,r17,1
 2803234:	9f000015 	stw	fp,0(r19)
 2803238:	9d000115 	stw	r20,4(r19)
 280323c:	dc800e15 	stw	r18,56(sp)
 2803240:	dc400d15 	stw	r17,52(sp)
 2803244:	ac7ff60e 	bge	r21,r17,2803220 <___vfprintf_internal_r+0xd74>
 2803248:	d9014f17 	ldw	r4,1340(sp)
 280324c:	b00b883a 	mov	r5,r22
 2803250:	d9800c04 	addi	r6,sp,48
 2803254:	28024540 	call	2802454 <__sprint_r>
 2803258:	103e4c1e 	bne	r2,zero,2802b8c <___vfprintf_internal_r+0x6e0>
 280325c:	dc800e17 	ldw	r18,56(sp)
 2803260:	dc400d17 	ldw	r17,52(sp)
 2803264:	dcc01904 	addi	r19,sp,100
 2803268:	003fee06 	br	2803224 <___vfprintf_internal_r+0xd78>
 280326c:	0700a074 	movhi	fp,641
 2803270:	e73e6e84 	addi	fp,fp,-1606
 2803274:	9425883a 	add	r18,r18,r16
 2803278:	8c400044 	addi	r17,r17,1
 280327c:	008001c4 	movi	r2,7
 2803280:	9f000015 	stw	fp,0(r19)
 2803284:	9c000115 	stw	r16,4(r19)
 2803288:	dc800e15 	stw	r18,56(sp)
 280328c:	dc400d15 	stw	r17,52(sp)
 2803290:	147e720e 	bge	r2,r17,2802c5c <___vfprintf_internal_r+0x7b0>
 2803294:	d9014f17 	ldw	r4,1340(sp)
 2803298:	b00b883a 	mov	r5,r22
 280329c:	d9800c04 	addi	r6,sp,48
 28032a0:	28024540 	call	2802454 <__sprint_r>
 28032a4:	103e391e 	bne	r2,zero,2802b8c <___vfprintf_internal_r+0x6e0>
 28032a8:	dc800e17 	ldw	r18,56(sp)
 28032ac:	dc400d17 	ldw	r17,52(sp)
 28032b0:	dcc01904 	addi	r19,sp,100
 28032b4:	003e6a06 	br	2802c60 <___vfprintf_internal_r+0x7b4>
 28032b8:	d9014f17 	ldw	r4,1340(sp)
 28032bc:	b00b883a 	mov	r5,r22
 28032c0:	d9800c04 	addi	r6,sp,48
 28032c4:	d9c15115 	stw	r7,1348(sp)
 28032c8:	28024540 	call	2802454 <__sprint_r>
 28032cc:	d9c15117 	ldw	r7,1348(sp)
 28032d0:	103e2e1e 	bne	r2,zero,2802b8c <___vfprintf_internal_r+0x6e0>
 28032d4:	dc800e17 	ldw	r18,56(sp)
 28032d8:	dc400d17 	ldw	r17,52(sp)
 28032dc:	dd401904 	addi	r21,sp,100
 28032e0:	003dba06 	br	28029cc <___vfprintf_internal_r+0x520>
 28032e4:	d9014f17 	ldw	r4,1340(sp)
 28032e8:	b00b883a 	mov	r5,r22
 28032ec:	d9800c04 	addi	r6,sp,48
 28032f0:	28024540 	call	2802454 <__sprint_r>
 28032f4:	103e251e 	bne	r2,zero,2802b8c <___vfprintf_internal_r+0x6e0>
 28032f8:	dc800e17 	ldw	r18,56(sp)
 28032fc:	dc400d17 	ldw	r17,52(sp)
 2803300:	dcc01904 	addi	r19,sp,100
 2803304:	003e4206 	br	2802c10 <___vfprintf_internal_r+0x764>
 2803308:	d9014f17 	ldw	r4,1340(sp)
 280330c:	b00b883a 	mov	r5,r22
 2803310:	d9800c04 	addi	r6,sp,48
 2803314:	28024540 	call	2802454 <__sprint_r>
 2803318:	103e1c1e 	bne	r2,zero,2802b8c <___vfprintf_internal_r+0x6e0>
 280331c:	dc800e17 	ldw	r18,56(sp)
 2803320:	dc400d17 	ldw	r17,52(sp)
 2803324:	d8c01904 	addi	r3,sp,100
 2803328:	003e2e06 	br	2802be4 <___vfprintf_internal_r+0x738>
 280332c:	d9414c17 	ldw	r5,1328(sp)
 2803330:	2880004c 	andi	r2,r5,1
 2803334:	1005003a 	cmpeq	r2,r2,zero
 2803338:	103dda1e 	bne	r2,zero,2802aa4 <___vfprintf_internal_r+0x5f8>
 280333c:	003e9f06 	br	2802dbc <___vfprintf_internal_r+0x910>
 2803340:	d8c14117 	ldw	r3,1284(sp)
 2803344:	9125883a 	add	r18,r18,r4
 2803348:	8c400044 	addi	r17,r17,1
 280334c:	008001c4 	movi	r2,7
 2803350:	a8c00015 	stw	r3,0(r21)
 2803354:	a9000115 	stw	r4,4(r21)
 2803358:	dc800e15 	stw	r18,56(sp)
 280335c:	dc400d15 	stw	r17,52(sp)
 2803360:	14426c16 	blt	r2,r17,2803d14 <___vfprintf_internal_r+0x1868>
 2803364:	a8c00204 	addi	r3,r21,8
 2803368:	d9414917 	ldw	r5,1316(sp)
 280336c:	00800044 	movi	r2,1
 2803370:	94800044 	addi	r18,r18,1
 2803374:	8c400044 	addi	r17,r17,1
 2803378:	18800115 	stw	r2,4(r3)
 280337c:	008001c4 	movi	r2,7
 2803380:	19400015 	stw	r5,0(r3)
 2803384:	dc800e15 	stw	r18,56(sp)
 2803388:	dc400d15 	stw	r17,52(sp)
 280338c:	2021883a 	mov	r16,r4
 2803390:	14425616 	blt	r2,r17,2803cec <___vfprintf_internal_r+0x1840>
 2803394:	19400204 	addi	r5,r3,8
 2803398:	d9814717 	ldw	r6,1308(sp)
 280339c:	8c400044 	addi	r17,r17,1
 28033a0:	dc400d15 	stw	r17,52(sp)
 28033a4:	3107c83a 	sub	r3,r6,r4
 28033a8:	d9014117 	ldw	r4,1284(sp)
 28033ac:	90e5883a 	add	r18,r18,r3
 28033b0:	28c00115 	stw	r3,4(r5)
 28033b4:	8105883a 	add	r2,r16,r4
 28033b8:	28800015 	stw	r2,0(r5)
 28033bc:	008001c4 	movi	r2,7
 28033c0:	dc800e15 	stw	r18,56(sp)
 28033c4:	147f1d16 	blt	r2,r17,280303c <___vfprintf_internal_r+0xb90>
 28033c8:	28c00204 	addi	r3,r5,8
 28033cc:	003db506 	br	2802aa4 <___vfprintf_internal_r+0x5f8>
 28033d0:	3c000017 	ldw	r16,0(r7)
 28033d4:	3c400117 	ldw	r17,4(r7)
 28033d8:	39800204 	addi	r6,r7,8
 28033dc:	01000044 	movi	r4,1
 28033e0:	d9814015 	stw	r6,1280(sp)
 28033e4:	d8000405 	stb	zero,16(sp)
 28033e8:	003ebe06 	br	2802ee4 <___vfprintf_internal_r+0xa38>
 28033ec:	3c000017 	ldw	r16,0(r7)
 28033f0:	3c400117 	ldw	r17,4(r7)
 28033f4:	38800204 	addi	r2,r7,8
 28033f8:	d8814015 	stw	r2,1280(sp)
 28033fc:	003eb706 	br	2802edc <___vfprintf_internal_r+0xa30>
 2803400:	3c000017 	ldw	r16,0(r7)
 2803404:	3c400117 	ldw	r17,4(r7)
 2803408:	39000204 	addi	r4,r7,8
 280340c:	d9014015 	stw	r4,1280(sp)
 2803410:	0009883a 	mov	r4,zero
 2803414:	d8000405 	stb	zero,16(sp)
 2803418:	003eb206 	br	2802ee4 <___vfprintf_internal_r+0xa38>
 280341c:	38c00017 	ldw	r3,0(r7)
 2803420:	39c00104 	addi	r7,r7,4
 2803424:	d8c14a15 	stw	r3,1320(sp)
 2803428:	1800d70e 	bge	r3,zero,2803788 <___vfprintf_internal_r+0x12dc>
 280342c:	00c7c83a 	sub	r3,zero,r3
 2803430:	d8c14a15 	stw	r3,1320(sp)
 2803434:	d9014c17 	ldw	r4,1328(sp)
 2803438:	b8c00007 	ldb	r3,0(r23)
 280343c:	21000114 	ori	r4,r4,4
 2803440:	d9014c15 	stw	r4,1328(sp)
 2803444:	003c9806 	br	28026a8 <___vfprintf_internal_r+0x1fc>
 2803448:	d9814c17 	ldw	r6,1328(sp)
 280344c:	3080080c 	andi	r2,r6,32
 2803450:	1001f626 	beq	r2,zero,2803c2c <___vfprintf_internal_r+0x1780>
 2803454:	d9014b17 	ldw	r4,1324(sp)
 2803458:	38800017 	ldw	r2,0(r7)
 280345c:	39c00104 	addi	r7,r7,4
 2803460:	d9c14015 	stw	r7,1280(sp)
 2803464:	2007d7fa 	srai	r3,r4,31
 2803468:	d9c14017 	ldw	r7,1280(sp)
 280346c:	11000015 	stw	r4,0(r2)
 2803470:	10c00115 	stw	r3,4(r2)
 2803474:	003c6906 	br	280261c <___vfprintf_internal_r+0x170>
 2803478:	b8c00007 	ldb	r3,0(r23)
 280347c:	00801b04 	movi	r2,108
 2803480:	18825526 	beq	r3,r2,2803dd8 <___vfprintf_internal_r+0x192c>
 2803484:	d9414c17 	ldw	r5,1328(sp)
 2803488:	29400414 	ori	r5,r5,16
 280348c:	d9414c15 	stw	r5,1328(sp)
 2803490:	003c8506 	br	28026a8 <___vfprintf_internal_r+0x1fc>
 2803494:	d9814c17 	ldw	r6,1328(sp)
 2803498:	b8c00007 	ldb	r3,0(r23)
 280349c:	31800814 	ori	r6,r6,32
 28034a0:	d9814c15 	stw	r6,1328(sp)
 28034a4:	003c8006 	br	28026a8 <___vfprintf_internal_r+0x1fc>
 28034a8:	d8814c17 	ldw	r2,1328(sp)
 28034ac:	3c000017 	ldw	r16,0(r7)
 28034b0:	00c01e04 	movi	r3,120
 28034b4:	10800094 	ori	r2,r2,2
 28034b8:	d8814c15 	stw	r2,1328(sp)
 28034bc:	39c00104 	addi	r7,r7,4
 28034c0:	0140a074 	movhi	r5,641
 28034c4:	297e5704 	addi	r5,r5,-1700
 28034c8:	00800c04 	movi	r2,48
 28034cc:	0023883a 	mov	r17,zero
 28034d0:	01000084 	movi	r4,2
 28034d4:	d9c14015 	stw	r7,1280(sp)
 28034d8:	d8c14d15 	stw	r3,1332(sp)
 28034dc:	d9414415 	stw	r5,1296(sp)
 28034e0:	d8800445 	stb	r2,17(sp)
 28034e4:	d8c00485 	stb	r3,18(sp)
 28034e8:	d8000405 	stb	zero,16(sp)
 28034ec:	003e7d06 	br	2802ee4 <___vfprintf_internal_r+0xa38>
 28034f0:	d8814c17 	ldw	r2,1328(sp)
 28034f4:	b8c00007 	ldb	r3,0(r23)
 28034f8:	10801014 	ori	r2,r2,64
 28034fc:	d8814c15 	stw	r2,1328(sp)
 2803500:	003c6906 	br	28026a8 <___vfprintf_internal_r+0x1fc>
 2803504:	d9414c17 	ldw	r5,1328(sp)
 2803508:	2880020c 	andi	r2,r5,8
 280350c:	1001e526 	beq	r2,zero,2803ca4 <___vfprintf_internal_r+0x17f8>
 2803510:	39800017 	ldw	r6,0(r7)
 2803514:	38800204 	addi	r2,r7,8
 2803518:	d8814015 	stw	r2,1280(sp)
 280351c:	d9814215 	stw	r6,1288(sp)
 2803520:	39c00117 	ldw	r7,4(r7)
 2803524:	d9c14315 	stw	r7,1292(sp)
 2803528:	d9014217 	ldw	r4,1288(sp)
 280352c:	d9414317 	ldw	r5,1292(sp)
 2803530:	2808f5c0 	call	2808f5c <__isinfd>
 2803534:	10021d26 	beq	r2,zero,2803dac <___vfprintf_internal_r+0x1900>
 2803538:	d9014217 	ldw	r4,1288(sp)
 280353c:	d9414317 	ldw	r5,1292(sp)
 2803540:	000d883a 	mov	r6,zero
 2803544:	000f883a 	mov	r7,zero
 2803548:	280b21c0 	call	280b21c <__ltdf2>
 280354c:	1002d016 	blt	r2,zero,2804090 <___vfprintf_internal_r+0x1be4>
 2803550:	d9414d17 	ldw	r5,1332(sp)
 2803554:	008011c4 	movi	r2,71
 2803558:	11421016 	blt	r2,r5,2803d9c <___vfprintf_internal_r+0x18f0>
 280355c:	0180a074 	movhi	r6,641
 2803560:	31be5c04 	addi	r6,r6,-1680
 2803564:	d9814115 	stw	r6,1284(sp)
 2803568:	d9014c17 	ldw	r4,1328(sp)
 280356c:	00c000c4 	movi	r3,3
 2803570:	00bfdfc4 	movi	r2,-129
 2803574:	2088703a 	and	r4,r4,r2
 2803578:	180f883a 	mov	r7,r3
 280357c:	d8c14515 	stw	r3,1300(sp)
 2803580:	d9014c15 	stw	r4,1328(sp)
 2803584:	d8014615 	stw	zero,1304(sp)
 2803588:	003e6a06 	br	2802f34 <___vfprintf_internal_r+0xa88>
 280358c:	38800017 	ldw	r2,0(r7)
 2803590:	00c00044 	movi	r3,1
 2803594:	39c00104 	addi	r7,r7,4
 2803598:	d9c14015 	stw	r7,1280(sp)
 280359c:	d9000f04 	addi	r4,sp,60
 28035a0:	180f883a 	mov	r7,r3
 28035a4:	d8c14515 	stw	r3,1300(sp)
 28035a8:	d9014115 	stw	r4,1284(sp)
 28035ac:	d8800f05 	stb	r2,60(sp)
 28035b0:	d8000405 	stb	zero,16(sp)
 28035b4:	003cac06 	br	2802868 <___vfprintf_internal_r+0x3bc>
 28035b8:	0140a074 	movhi	r5,641
 28035bc:	297e6204 	addi	r5,r5,-1656
 28035c0:	d9414415 	stw	r5,1296(sp)
 28035c4:	d9814c17 	ldw	r6,1328(sp)
 28035c8:	3080080c 	andi	r2,r6,32
 28035cc:	1000ff26 	beq	r2,zero,28039cc <___vfprintf_internal_r+0x1520>
 28035d0:	3c000017 	ldw	r16,0(r7)
 28035d4:	3c400117 	ldw	r17,4(r7)
 28035d8:	38800204 	addi	r2,r7,8
 28035dc:	d8814015 	stw	r2,1280(sp)
 28035e0:	d9414c17 	ldw	r5,1328(sp)
 28035e4:	2880004c 	andi	r2,r5,1
 28035e8:	1005003a 	cmpeq	r2,r2,zero
 28035ec:	1000b91e 	bne	r2,zero,28038d4 <___vfprintf_internal_r+0x1428>
 28035f0:	8444b03a 	or	r2,r16,r17
 28035f4:	1000b726 	beq	r2,zero,28038d4 <___vfprintf_internal_r+0x1428>
 28035f8:	d9814d17 	ldw	r6,1332(sp)
 28035fc:	29400094 	ori	r5,r5,2
 2803600:	00800c04 	movi	r2,48
 2803604:	01000084 	movi	r4,2
 2803608:	d9414c15 	stw	r5,1328(sp)
 280360c:	d8800445 	stb	r2,17(sp)
 2803610:	d9800485 	stb	r6,18(sp)
 2803614:	d8000405 	stb	zero,16(sp)
 2803618:	003e3206 	br	2802ee4 <___vfprintf_internal_r+0xa38>
 280361c:	0180a074 	movhi	r6,641
 2803620:	31be5704 	addi	r6,r6,-1700
 2803624:	d9814415 	stw	r6,1296(sp)
 2803628:	003fe606 	br	28035c4 <___vfprintf_internal_r+0x1118>
 280362c:	00800ac4 	movi	r2,43
 2803630:	d8800405 	stb	r2,16(sp)
 2803634:	b8c00007 	ldb	r3,0(r23)
 2803638:	003c1b06 	br	28026a8 <___vfprintf_internal_r+0x1fc>
 280363c:	d8814c17 	ldw	r2,1328(sp)
 2803640:	b8c00007 	ldb	r3,0(r23)
 2803644:	10800054 	ori	r2,r2,1
 2803648:	d8814c15 	stw	r2,1328(sp)
 280364c:	003c1606 	br	28026a8 <___vfprintf_internal_r+0x1fc>
 2803650:	d8800407 	ldb	r2,16(sp)
 2803654:	10004c1e 	bne	r2,zero,2803788 <___vfprintf_internal_r+0x12dc>
 2803658:	00800804 	movi	r2,32
 280365c:	d8800405 	stb	r2,16(sp)
 2803660:	b8c00007 	ldb	r3,0(r23)
 2803664:	003c1006 	br	28026a8 <___vfprintf_internal_r+0x1fc>
 2803668:	d9814c17 	ldw	r6,1328(sp)
 280366c:	b8c00007 	ldb	r3,0(r23)
 2803670:	31800214 	ori	r6,r6,8
 2803674:	d9814c15 	stw	r6,1328(sp)
 2803678:	003c0b06 	br	28026a8 <___vfprintf_internal_r+0x1fc>
 280367c:	0009883a 	mov	r4,zero
 2803680:	04000244 	movi	r16,9
 2803684:	01400284 	movi	r5,10
 2803688:	d9c15115 	stw	r7,1348(sp)
 280368c:	28021e80 	call	28021e8 <__mulsi3>
 2803690:	b9000007 	ldb	r4,0(r23)
 2803694:	d8c14d17 	ldw	r3,1332(sp)
 2803698:	bdc00044 	addi	r23,r23,1
 280369c:	d9014d15 	stw	r4,1332(sp)
 28036a0:	d9414d17 	ldw	r5,1332(sp)
 28036a4:	1885883a 	add	r2,r3,r2
 28036a8:	113ff404 	addi	r4,r2,-48
 28036ac:	28bff404 	addi	r2,r5,-48
 28036b0:	d9c15117 	ldw	r7,1348(sp)
 28036b4:	80bff32e 	bgeu	r16,r2,2803684 <___vfprintf_internal_r+0x11d8>
 28036b8:	d9014a15 	stw	r4,1320(sp)
 28036bc:	003bfc06 	br	28026b0 <___vfprintf_internal_r+0x204>
 28036c0:	d8814c17 	ldw	r2,1328(sp)
 28036c4:	b8c00007 	ldb	r3,0(r23)
 28036c8:	10802014 	ori	r2,r2,128
 28036cc:	d8814c15 	stw	r2,1328(sp)
 28036d0:	003bf506 	br	28026a8 <___vfprintf_internal_r+0x1fc>
 28036d4:	b8c00007 	ldb	r3,0(r23)
 28036d8:	00800a84 	movi	r2,42
 28036dc:	bdc00044 	addi	r23,r23,1
 28036e0:	18831826 	beq	r3,r2,2804344 <___vfprintf_internal_r+0x1e98>
 28036e4:	d8c14d15 	stw	r3,1332(sp)
 28036e8:	18bff404 	addi	r2,r3,-48
 28036ec:	00c00244 	movi	r3,9
 28036f0:	18827b36 	bltu	r3,r2,28040e0 <___vfprintf_internal_r+0x1c34>
 28036f4:	1821883a 	mov	r16,r3
 28036f8:	0009883a 	mov	r4,zero
 28036fc:	01400284 	movi	r5,10
 2803700:	d9c15115 	stw	r7,1348(sp)
 2803704:	28021e80 	call	28021e8 <__mulsi3>
 2803708:	d9414d17 	ldw	r5,1332(sp)
 280370c:	b9800007 	ldb	r6,0(r23)
 2803710:	d9c15117 	ldw	r7,1348(sp)
 2803714:	1145883a 	add	r2,r2,r5
 2803718:	113ff404 	addi	r4,r2,-48
 280371c:	30bff404 	addi	r2,r6,-48
 2803720:	d9814d15 	stw	r6,1332(sp)
 2803724:	bdc00044 	addi	r23,r23,1
 2803728:	80bff42e 	bgeu	r16,r2,28036fc <___vfprintf_internal_r+0x1250>
 280372c:	2027883a 	mov	r19,r4
 2803730:	203bdf0e 	bge	r4,zero,28026b0 <___vfprintf_internal_r+0x204>
 2803734:	04ffffc4 	movi	r19,-1
 2803738:	003bdd06 	br	28026b0 <___vfprintf_internal_r+0x204>
 280373c:	d8000405 	stb	zero,16(sp)
 2803740:	39800017 	ldw	r6,0(r7)
 2803744:	39c00104 	addi	r7,r7,4
 2803748:	d9c14015 	stw	r7,1280(sp)
 280374c:	d9814115 	stw	r6,1284(sp)
 2803750:	3001c926 	beq	r6,zero,2803e78 <___vfprintf_internal_r+0x19cc>
 2803754:	98000e16 	blt	r19,zero,2803790 <___vfprintf_internal_r+0x12e4>
 2803758:	d9014117 	ldw	r4,1284(sp)
 280375c:	000b883a 	mov	r5,zero
 2803760:	980d883a 	mov	r6,r19
 2803764:	28075e00 	call	28075e0 <memchr>
 2803768:	10025926 	beq	r2,zero,28040d0 <___vfprintf_internal_r+0x1c24>
 280376c:	d8c14117 	ldw	r3,1284(sp)
 2803770:	10cfc83a 	sub	r7,r2,r3
 2803774:	99c19e16 	blt	r19,r7,2803df0 <___vfprintf_internal_r+0x1944>
 2803778:	d9c14515 	stw	r7,1300(sp)
 280377c:	38000916 	blt	r7,zero,28037a4 <___vfprintf_internal_r+0x12f8>
 2803780:	d8014615 	stw	zero,1304(sp)
 2803784:	003deb06 	br	2802f34 <___vfprintf_internal_r+0xa88>
 2803788:	b8c00007 	ldb	r3,0(r23)
 280378c:	003bc606 	br	28026a8 <___vfprintf_internal_r+0x1fc>
 2803790:	d9014117 	ldw	r4,1284(sp)
 2803794:	28023e00 	call	28023e0 <strlen>
 2803798:	d8814515 	stw	r2,1300(sp)
 280379c:	100f883a 	mov	r7,r2
 28037a0:	103ff70e 	bge	r2,zero,2803780 <___vfprintf_internal_r+0x12d4>
 28037a4:	d8014515 	stw	zero,1300(sp)
 28037a8:	d8014615 	stw	zero,1304(sp)
 28037ac:	003de106 	br	2802f34 <___vfprintf_internal_r+0xa88>
 28037b0:	20c03fcc 	andi	r3,r4,255
 28037b4:	00800044 	movi	r2,1
 28037b8:	18802d26 	beq	r3,r2,2803870 <___vfprintf_internal_r+0x13c4>
 28037bc:	18800e36 	bltu	r3,r2,28037f8 <___vfprintf_internal_r+0x134c>
 28037c0:	00800084 	movi	r2,2
 28037c4:	1880fa26 	beq	r3,r2,2803bb0 <___vfprintf_internal_r+0x1704>
 28037c8:	0100a074 	movhi	r4,641
 28037cc:	213e6704 	addi	r4,r4,-1636
 28037d0:	28023e00 	call	28023e0 <strlen>
 28037d4:	100f883a 	mov	r7,r2
 28037d8:	dcc14515 	stw	r19,1300(sp)
 28037dc:	9880010e 	bge	r19,r2,28037e4 <___vfprintf_internal_r+0x1338>
 28037e0:	d8814515 	stw	r2,1300(sp)
 28037e4:	0080a074 	movhi	r2,641
 28037e8:	10be6704 	addi	r2,r2,-1636
 28037ec:	dcc14615 	stw	r19,1304(sp)
 28037f0:	d8814115 	stw	r2,1284(sp)
 28037f4:	003dcf06 	br	2802f34 <___vfprintf_internal_r+0xa88>
 28037f8:	d9401904 	addi	r5,sp,100
 28037fc:	dd000f04 	addi	r20,sp,60
 2803800:	d9414115 	stw	r5,1284(sp)
 2803804:	880a977a 	slli	r5,r17,29
 2803808:	d9814117 	ldw	r6,1284(sp)
 280380c:	8004d0fa 	srli	r2,r16,3
 2803810:	8806d0fa 	srli	r3,r17,3
 2803814:	810001cc 	andi	r4,r16,7
 2803818:	2884b03a 	or	r2,r5,r2
 280381c:	31bfffc4 	addi	r6,r6,-1
 2803820:	21000c04 	addi	r4,r4,48
 2803824:	d9814115 	stw	r6,1284(sp)
 2803828:	10cab03a 	or	r5,r2,r3
 280382c:	31000005 	stb	r4,0(r6)
 2803830:	1021883a 	mov	r16,r2
 2803834:	1823883a 	mov	r17,r3
 2803838:	283ff21e 	bne	r5,zero,2803804 <___vfprintf_internal_r+0x1358>
 280383c:	d8c14c17 	ldw	r3,1328(sp)
 2803840:	1880004c 	andi	r2,r3,1
 2803844:	1005003a 	cmpeq	r2,r2,zero
 2803848:	103db31e 	bne	r2,zero,2802f18 <___vfprintf_internal_r+0xa6c>
 280384c:	20803fcc 	andi	r2,r4,255
 2803850:	1080201c 	xori	r2,r2,128
 2803854:	10bfe004 	addi	r2,r2,-128
 2803858:	00c00c04 	movi	r3,48
 280385c:	10fdae26 	beq	r2,r3,2802f18 <___vfprintf_internal_r+0xa6c>
 2803860:	31bfffc4 	addi	r6,r6,-1
 2803864:	d9814115 	stw	r6,1284(sp)
 2803868:	30c00005 	stb	r3,0(r6)
 280386c:	003daa06 	br	2802f18 <___vfprintf_internal_r+0xa6c>
 2803870:	88800068 	cmpgeui	r2,r17,1
 2803874:	10002c1e 	bne	r2,zero,2803928 <___vfprintf_internal_r+0x147c>
 2803878:	8800021e 	bne	r17,zero,2803884 <___vfprintf_internal_r+0x13d8>
 280387c:	00800244 	movi	r2,9
 2803880:	14002936 	bltu	r2,r16,2803928 <___vfprintf_internal_r+0x147c>
 2803884:	d90018c4 	addi	r4,sp,99
 2803888:	dd000f04 	addi	r20,sp,60
 280388c:	d9014115 	stw	r4,1284(sp)
 2803890:	d9014117 	ldw	r4,1284(sp)
 2803894:	80800c04 	addi	r2,r16,48
 2803898:	20800005 	stb	r2,0(r4)
 280389c:	003d9e06 	br	2802f18 <___vfprintf_internal_r+0xa6c>
 28038a0:	dc400d17 	ldw	r17,52(sp)
 28038a4:	0700a074 	movhi	fp,641
 28038a8:	e73e6e84 	addi	fp,fp,-1606
 28038ac:	9425883a 	add	r18,r18,r16
 28038b0:	8c400044 	addi	r17,r17,1
 28038b4:	008001c4 	movi	r2,7
 28038b8:	1f000015 	stw	fp,0(r3)
 28038bc:	1c000115 	stw	r16,4(r3)
 28038c0:	dc800e15 	stw	r18,56(sp)
 28038c4:	dc400d15 	stw	r17,52(sp)
 28038c8:	147ddc16 	blt	r2,r17,280303c <___vfprintf_internal_r+0xb90>
 28038cc:	18c00204 	addi	r3,r3,8
 28038d0:	003c7406 	br	2802aa4 <___vfprintf_internal_r+0x5f8>
 28038d4:	01000084 	movi	r4,2
 28038d8:	d8000405 	stb	zero,16(sp)
 28038dc:	003d8106 	br	2802ee4 <___vfprintf_internal_r+0xa38>
 28038e0:	d9814c17 	ldw	r6,1328(sp)
 28038e4:	30c4703a 	and	r2,r6,r3
 28038e8:	1005003a 	cmpeq	r2,r2,zero
 28038ec:	103cb326 	beq	r2,zero,2802bbc <___vfprintf_internal_r+0x710>
 28038f0:	d9014117 	ldw	r4,1284(sp)
 28038f4:	94800044 	addi	r18,r18,1
 28038f8:	8c400044 	addi	r17,r17,1
 28038fc:	008001c4 	movi	r2,7
 2803900:	a9000015 	stw	r4,0(r21)
 2803904:	a8c00115 	stw	r3,4(r21)
 2803908:	dc800e15 	stw	r18,56(sp)
 280390c:	dc400d15 	stw	r17,52(sp)
 2803910:	147e6016 	blt	r2,r17,2803294 <___vfprintf_internal_r+0xde8>
 2803914:	acc00204 	addi	r19,r21,8
 2803918:	003cd106 	br	2802c60 <___vfprintf_internal_r+0x7b4>
 280391c:	0700a074 	movhi	fp,641
 2803920:	e73e6e84 	addi	fp,fp,-1606
 2803924:	003c4906 	br	2802a4c <___vfprintf_internal_r+0x5a0>
 2803928:	dd000f04 	addi	r20,sp,60
 280392c:	dc801904 	addi	r18,sp,100
 2803930:	8009883a 	mov	r4,r16
 2803934:	880b883a 	mov	r5,r17
 2803938:	01800284 	movi	r6,10
 280393c:	000f883a 	mov	r7,zero
 2803940:	2809e7c0 	call	2809e7c <__umoddi3>
 2803944:	12000c04 	addi	r8,r2,48
 2803948:	94bfffc4 	addi	r18,r18,-1
 280394c:	8009883a 	mov	r4,r16
 2803950:	880b883a 	mov	r5,r17
 2803954:	01800284 	movi	r6,10
 2803958:	000f883a 	mov	r7,zero
 280395c:	92000005 	stb	r8,0(r18)
 2803960:	28098100 	call	2809810 <__udivdi3>
 2803964:	1009883a 	mov	r4,r2
 2803968:	1021883a 	mov	r16,r2
 280396c:	18800068 	cmpgeui	r2,r3,1
 2803970:	1823883a 	mov	r17,r3
 2803974:	103fee1e 	bne	r2,zero,2803930 <___vfprintf_internal_r+0x1484>
 2803978:	1800021e 	bne	r3,zero,2803984 <___vfprintf_internal_r+0x14d8>
 280397c:	00800244 	movi	r2,9
 2803980:	113feb36 	bltu	r2,r4,2803930 <___vfprintf_internal_r+0x1484>
 2803984:	94bfffc4 	addi	r18,r18,-1
 2803988:	dc814115 	stw	r18,1284(sp)
 280398c:	003fc006 	br	2803890 <___vfprintf_internal_r+0x13e4>
 2803990:	d9014c17 	ldw	r4,1328(sp)
 2803994:	2080004c 	andi	r2,r4,1
 2803998:	10009a1e 	bne	r2,zero,2803c04 <___vfprintf_internal_r+0x1758>
 280399c:	d9401904 	addi	r5,sp,100
 28039a0:	dd000f04 	addi	r20,sp,60
 28039a4:	d9414115 	stw	r5,1284(sp)
 28039a8:	003d5b06 	br	2802f18 <___vfprintf_internal_r+0xa6c>
 28039ac:	d9014f17 	ldw	r4,1340(sp)
 28039b0:	b00b883a 	mov	r5,r22
 28039b4:	d9800c04 	addi	r6,sp,48
 28039b8:	28024540 	call	2802454 <__sprint_r>
 28039bc:	103c731e 	bne	r2,zero,2802b8c <___vfprintf_internal_r+0x6e0>
 28039c0:	dc800e17 	ldw	r18,56(sp)
 28039c4:	d8c01904 	addi	r3,sp,100
 28039c8:	003cf906 	br	2802db0 <___vfprintf_internal_r+0x904>
 28039cc:	d8c14c17 	ldw	r3,1328(sp)
 28039d0:	1880040c 	andi	r2,r3,16
 28039d4:	1000711e 	bne	r2,zero,2803b9c <___vfprintf_internal_r+0x16f0>
 28039d8:	d9014c17 	ldw	r4,1328(sp)
 28039dc:	2080100c 	andi	r2,r4,64
 28039e0:	10006e26 	beq	r2,zero,2803b9c <___vfprintf_internal_r+0x16f0>
 28039e4:	3c00000b 	ldhu	r16,0(r7)
 28039e8:	0023883a 	mov	r17,zero
 28039ec:	39c00104 	addi	r7,r7,4
 28039f0:	d9c14015 	stw	r7,1280(sp)
 28039f4:	003efa06 	br	28035e0 <___vfprintf_internal_r+0x1134>
 28039f8:	dc400d17 	ldw	r17,52(sp)
 28039fc:	0700a074 	movhi	fp,641
 2803a00:	e73e6e84 	addi	fp,fp,-1606
 2803a04:	9425883a 	add	r18,r18,r16
 2803a08:	8c400044 	addi	r17,r17,1
 2803a0c:	008001c4 	movi	r2,7
 2803a10:	1f000015 	stw	fp,0(r3)
 2803a14:	1c000115 	stw	r16,4(r3)
 2803a18:	dc800e15 	stw	r18,56(sp)
 2803a1c:	dc400d15 	stw	r17,52(sp)
 2803a20:	147d7016 	blt	r2,r17,2802fe4 <___vfprintf_internal_r+0xb38>
 2803a24:	18c00204 	addi	r3,r3,8
 2803a28:	003d7506 	br	2803000 <___vfprintf_internal_r+0xb54>
 2803a2c:	dc800e17 	ldw	r18,56(sp)
 2803a30:	dc400d17 	ldw	r17,52(sp)
 2803a34:	0700a074 	movhi	fp,641
 2803a38:	e73e7284 	addi	fp,fp,-1590
 2803a3c:	003bba06 	br	2802928 <___vfprintf_internal_r+0x47c>
 2803a40:	d9014f17 	ldw	r4,1340(sp)
 2803a44:	b00b883a 	mov	r5,r22
 2803a48:	d9800c04 	addi	r6,sp,48
 2803a4c:	28024540 	call	2802454 <__sprint_r>
 2803a50:	103c4e1e 	bne	r2,zero,2802b8c <___vfprintf_internal_r+0x6e0>
 2803a54:	dc800e17 	ldw	r18,56(sp)
 2803a58:	d8c01904 	addi	r3,sp,100
 2803a5c:	003ce306 	br	2802dec <___vfprintf_internal_r+0x940>
 2803a60:	3c000017 	ldw	r16,0(r7)
 2803a64:	0009883a 	mov	r4,zero
 2803a68:	39c00104 	addi	r7,r7,4
 2803a6c:	0023883a 	mov	r17,zero
 2803a70:	d9c14015 	stw	r7,1280(sp)
 2803a74:	d8000405 	stb	zero,16(sp)
 2803a78:	003d1a06 	br	2802ee4 <___vfprintf_internal_r+0xa38>
 2803a7c:	38800017 	ldw	r2,0(r7)
 2803a80:	39c00104 	addi	r7,r7,4
 2803a84:	d9c14015 	stw	r7,1280(sp)
 2803a88:	1023d7fa 	srai	r17,r2,31
 2803a8c:	1021883a 	mov	r16,r2
 2803a90:	003d1206 	br	2802edc <___vfprintf_internal_r+0xa30>
 2803a94:	3c000017 	ldw	r16,0(r7)
 2803a98:	01000044 	movi	r4,1
 2803a9c:	39c00104 	addi	r7,r7,4
 2803aa0:	0023883a 	mov	r17,zero
 2803aa4:	d9c14015 	stw	r7,1280(sp)
 2803aa8:	d8000405 	stb	zero,16(sp)
 2803aac:	003d0d06 	br	2802ee4 <___vfprintf_internal_r+0xa38>
 2803ab0:	0080a074 	movhi	r2,641
 2803ab4:	10be6e04 	addi	r2,r2,-1608
 2803ab8:	94800044 	addi	r18,r18,1
 2803abc:	8c400044 	addi	r17,r17,1
 2803ac0:	a8800015 	stw	r2,0(r21)
 2803ac4:	00c00044 	movi	r3,1
 2803ac8:	008001c4 	movi	r2,7
 2803acc:	a8c00115 	stw	r3,4(r21)
 2803ad0:	dc800e15 	stw	r18,56(sp)
 2803ad4:	dc400d15 	stw	r17,52(sp)
 2803ad8:	1440ca16 	blt	r2,r17,2803e04 <___vfprintf_internal_r+0x1958>
 2803adc:	a8c00204 	addi	r3,r21,8
 2803ae0:	2000061e 	bne	r4,zero,2803afc <___vfprintf_internal_r+0x1650>
 2803ae4:	d9414717 	ldw	r5,1308(sp)
 2803ae8:	2800041e 	bne	r5,zero,2803afc <___vfprintf_internal_r+0x1650>
 2803aec:	d9814c17 	ldw	r6,1328(sp)
 2803af0:	3080004c 	andi	r2,r6,1
 2803af4:	1005003a 	cmpeq	r2,r2,zero
 2803af8:	103bea1e 	bne	r2,zero,2802aa4 <___vfprintf_internal_r+0x5f8>
 2803afc:	00800044 	movi	r2,1
 2803b00:	dc400d17 	ldw	r17,52(sp)
 2803b04:	18800115 	stw	r2,4(r3)
 2803b08:	d8814917 	ldw	r2,1316(sp)
 2803b0c:	94800044 	addi	r18,r18,1
 2803b10:	8c400044 	addi	r17,r17,1
 2803b14:	18800015 	stw	r2,0(r3)
 2803b18:	008001c4 	movi	r2,7
 2803b1c:	dc800e15 	stw	r18,56(sp)
 2803b20:	dc400d15 	stw	r17,52(sp)
 2803b24:	1440ca16 	blt	r2,r17,2803e50 <___vfprintf_internal_r+0x19a4>
 2803b28:	18c00204 	addi	r3,r3,8
 2803b2c:	0121c83a 	sub	r16,zero,r4
 2803b30:	0400500e 	bge	zero,r16,2803c74 <___vfprintf_internal_r+0x17c8>
 2803b34:	00800404 	movi	r2,16
 2803b38:	1400800e 	bge	r2,r16,2803d3c <___vfprintf_internal_r+0x1890>
 2803b3c:	1027883a 	mov	r19,r2
 2803b40:	0700a074 	movhi	fp,641
 2803b44:	e73e6e84 	addi	fp,fp,-1606
 2803b48:	050001c4 	movi	r20,7
 2803b4c:	00000306 	br	2803b5c <___vfprintf_internal_r+0x16b0>
 2803b50:	18c00204 	addi	r3,r3,8
 2803b54:	843ffc04 	addi	r16,r16,-16
 2803b58:	9c007a0e 	bge	r19,r16,2803d44 <___vfprintf_internal_r+0x1898>
 2803b5c:	94800404 	addi	r18,r18,16
 2803b60:	8c400044 	addi	r17,r17,1
 2803b64:	1f000015 	stw	fp,0(r3)
 2803b68:	1cc00115 	stw	r19,4(r3)
 2803b6c:	dc800e15 	stw	r18,56(sp)
 2803b70:	dc400d15 	stw	r17,52(sp)
 2803b74:	a47ff60e 	bge	r20,r17,2803b50 <___vfprintf_internal_r+0x16a4>
 2803b78:	d9014f17 	ldw	r4,1340(sp)
 2803b7c:	b00b883a 	mov	r5,r22
 2803b80:	d9800c04 	addi	r6,sp,48
 2803b84:	28024540 	call	2802454 <__sprint_r>
 2803b88:	103c001e 	bne	r2,zero,2802b8c <___vfprintf_internal_r+0x6e0>
 2803b8c:	dc800e17 	ldw	r18,56(sp)
 2803b90:	dc400d17 	ldw	r17,52(sp)
 2803b94:	d8c01904 	addi	r3,sp,100
 2803b98:	003fee06 	br	2803b54 <___vfprintf_internal_r+0x16a8>
 2803b9c:	3c000017 	ldw	r16,0(r7)
 2803ba0:	0023883a 	mov	r17,zero
 2803ba4:	39c00104 	addi	r7,r7,4
 2803ba8:	d9c14015 	stw	r7,1280(sp)
 2803bac:	003e8c06 	br	28035e0 <___vfprintf_internal_r+0x1134>
 2803bb0:	d9401904 	addi	r5,sp,100
 2803bb4:	dd000f04 	addi	r20,sp,60
 2803bb8:	d9414115 	stw	r5,1284(sp)
 2803bbc:	d9814417 	ldw	r6,1296(sp)
 2803bc0:	880a973a 	slli	r5,r17,28
 2803bc4:	8004d13a 	srli	r2,r16,4
 2803bc8:	810003cc 	andi	r4,r16,15
 2803bcc:	3109883a 	add	r4,r6,r4
 2803bd0:	2884b03a 	or	r2,r5,r2
 2803bd4:	21400003 	ldbu	r5,0(r4)
 2803bd8:	d9014117 	ldw	r4,1284(sp)
 2803bdc:	8806d13a 	srli	r3,r17,4
 2803be0:	1021883a 	mov	r16,r2
 2803be4:	213fffc4 	addi	r4,r4,-1
 2803be8:	d9014115 	stw	r4,1284(sp)
 2803bec:	d9814117 	ldw	r6,1284(sp)
 2803bf0:	10c8b03a 	or	r4,r2,r3
 2803bf4:	1823883a 	mov	r17,r3
 2803bf8:	31400005 	stb	r5,0(r6)
 2803bfc:	203fef1e 	bne	r4,zero,2803bbc <___vfprintf_internal_r+0x1710>
 2803c00:	003cc506 	br	2802f18 <___vfprintf_internal_r+0xa6c>
 2803c04:	00800c04 	movi	r2,48
 2803c08:	d98018c4 	addi	r6,sp,99
 2803c0c:	dd000f04 	addi	r20,sp,60
 2803c10:	d88018c5 	stb	r2,99(sp)
 2803c14:	d9814115 	stw	r6,1284(sp)
 2803c18:	003cbf06 	br	2802f18 <___vfprintf_internal_r+0xa6c>
 2803c1c:	dc400d17 	ldw	r17,52(sp)
 2803c20:	0700a074 	movhi	fp,641
 2803c24:	e73e7284 	addi	fp,fp,-1590
 2803c28:	003bc106 	br	2802b30 <___vfprintf_internal_r+0x684>
 2803c2c:	d9414c17 	ldw	r5,1328(sp)
 2803c30:	2880040c 	andi	r2,r5,16
 2803c34:	10007c26 	beq	r2,zero,2803e28 <___vfprintf_internal_r+0x197c>
 2803c38:	38800017 	ldw	r2,0(r7)
 2803c3c:	39c00104 	addi	r7,r7,4
 2803c40:	d9c14015 	stw	r7,1280(sp)
 2803c44:	d9814b17 	ldw	r6,1324(sp)
 2803c48:	d9c14017 	ldw	r7,1280(sp)
 2803c4c:	11800015 	stw	r6,0(r2)
 2803c50:	003a7206 	br	280261c <___vfprintf_internal_r+0x170>
 2803c54:	d9014f17 	ldw	r4,1340(sp)
 2803c58:	b00b883a 	mov	r5,r22
 2803c5c:	d9800c04 	addi	r6,sp,48
 2803c60:	28024540 	call	2802454 <__sprint_r>
 2803c64:	103bc91e 	bne	r2,zero,2802b8c <___vfprintf_internal_r+0x6e0>
 2803c68:	dc800e17 	ldw	r18,56(sp)
 2803c6c:	dc400d17 	ldw	r17,52(sp)
 2803c70:	d8c01904 	addi	r3,sp,100
 2803c74:	d9014717 	ldw	r4,1308(sp)
 2803c78:	d9414117 	ldw	r5,1284(sp)
 2803c7c:	8c400044 	addi	r17,r17,1
 2803c80:	9125883a 	add	r18,r18,r4
 2803c84:	008001c4 	movi	r2,7
 2803c88:	19400015 	stw	r5,0(r3)
 2803c8c:	19000115 	stw	r4,4(r3)
 2803c90:	dc800e15 	stw	r18,56(sp)
 2803c94:	dc400d15 	stw	r17,52(sp)
 2803c98:	147ce816 	blt	r2,r17,280303c <___vfprintf_internal_r+0xb90>
 2803c9c:	18c00204 	addi	r3,r3,8
 2803ca0:	003b8006 	br	2802aa4 <___vfprintf_internal_r+0x5f8>
 2803ca4:	38c00017 	ldw	r3,0(r7)
 2803ca8:	39000204 	addi	r4,r7,8
 2803cac:	d9014015 	stw	r4,1280(sp)
 2803cb0:	d8c14215 	stw	r3,1288(sp)
 2803cb4:	39c00117 	ldw	r7,4(r7)
 2803cb8:	d9c14315 	stw	r7,1292(sp)
 2803cbc:	003e1a06 	br	2803528 <___vfprintf_internal_r+0x107c>
 2803cc0:	0005883a 	mov	r2,zero
 2803cc4:	1409c83a 	sub	r4,r2,r16
 2803cc8:	1105803a 	cmpltu	r2,r2,r4
 2803ccc:	044bc83a 	sub	r5,zero,r17
 2803cd0:	2885c83a 	sub	r2,r5,r2
 2803cd4:	2021883a 	mov	r16,r4
 2803cd8:	1023883a 	mov	r17,r2
 2803cdc:	01000044 	movi	r4,1
 2803ce0:	00800b44 	movi	r2,45
 2803ce4:	d8800405 	stb	r2,16(sp)
 2803ce8:	003c7e06 	br	2802ee4 <___vfprintf_internal_r+0xa38>
 2803cec:	d9014f17 	ldw	r4,1340(sp)
 2803cf0:	b00b883a 	mov	r5,r22
 2803cf4:	d9800c04 	addi	r6,sp,48
 2803cf8:	28024540 	call	2802454 <__sprint_r>
 2803cfc:	103ba31e 	bne	r2,zero,2802b8c <___vfprintf_internal_r+0x6e0>
 2803d00:	dc800e17 	ldw	r18,56(sp)
 2803d04:	dc400d17 	ldw	r17,52(sp)
 2803d08:	d9000517 	ldw	r4,20(sp)
 2803d0c:	d9401904 	addi	r5,sp,100
 2803d10:	003da106 	br	2803398 <___vfprintf_internal_r+0xeec>
 2803d14:	d9014f17 	ldw	r4,1340(sp)
 2803d18:	b00b883a 	mov	r5,r22
 2803d1c:	d9800c04 	addi	r6,sp,48
 2803d20:	28024540 	call	2802454 <__sprint_r>
 2803d24:	103b991e 	bne	r2,zero,2802b8c <___vfprintf_internal_r+0x6e0>
 2803d28:	dc800e17 	ldw	r18,56(sp)
 2803d2c:	dc400d17 	ldw	r17,52(sp)
 2803d30:	d9000517 	ldw	r4,20(sp)
 2803d34:	d8c01904 	addi	r3,sp,100
 2803d38:	003d8b06 	br	2803368 <___vfprintf_internal_r+0xebc>
 2803d3c:	0700a074 	movhi	fp,641
 2803d40:	e73e6e84 	addi	fp,fp,-1606
 2803d44:	9425883a 	add	r18,r18,r16
 2803d48:	8c400044 	addi	r17,r17,1
 2803d4c:	008001c4 	movi	r2,7
 2803d50:	1f000015 	stw	fp,0(r3)
 2803d54:	1c000115 	stw	r16,4(r3)
 2803d58:	dc800e15 	stw	r18,56(sp)
 2803d5c:	dc400d15 	stw	r17,52(sp)
 2803d60:	147fbc16 	blt	r2,r17,2803c54 <___vfprintf_internal_r+0x17a8>
 2803d64:	18c00204 	addi	r3,r3,8
 2803d68:	003fc206 	br	2803c74 <___vfprintf_internal_r+0x17c8>
 2803d6c:	d9014f17 	ldw	r4,1340(sp)
 2803d70:	b00b883a 	mov	r5,r22
 2803d74:	d9800c04 	addi	r6,sp,48
 2803d78:	28024540 	call	2802454 <__sprint_r>
 2803d7c:	103b831e 	bne	r2,zero,2802b8c <___vfprintf_internal_r+0x6e0>
 2803d80:	dc800e17 	ldw	r18,56(sp)
 2803d84:	d9000517 	ldw	r4,20(sp)
 2803d88:	d8c01904 	addi	r3,sp,100
 2803d8c:	003cfc06 	br	2803180 <___vfprintf_internal_r+0xcd4>
 2803d90:	0700a074 	movhi	fp,641
 2803d94:	e73e6e84 	addi	fp,fp,-1606
 2803d98:	003bde06 	br	2802d14 <___vfprintf_internal_r+0x868>
 2803d9c:	0080a074 	movhi	r2,641
 2803da0:	10be5d04 	addi	r2,r2,-1676
 2803da4:	d8814115 	stw	r2,1284(sp)
 2803da8:	003def06 	br	2803568 <___vfprintf_internal_r+0x10bc>
 2803dac:	d9014217 	ldw	r4,1288(sp)
 2803db0:	d9414317 	ldw	r5,1292(sp)
 2803db4:	2808f9c0 	call	2808f9c <__isnand>
 2803db8:	10003926 	beq	r2,zero,2803ea0 <___vfprintf_internal_r+0x19f4>
 2803dbc:	d9414d17 	ldw	r5,1332(sp)
 2803dc0:	008011c4 	movi	r2,71
 2803dc4:	1140ce16 	blt	r2,r5,2804100 <___vfprintf_internal_r+0x1c54>
 2803dc8:	0180a074 	movhi	r6,641
 2803dcc:	31be5e04 	addi	r6,r6,-1672
 2803dd0:	d9814115 	stw	r6,1284(sp)
 2803dd4:	003de406 	br	2803568 <___vfprintf_internal_r+0x10bc>
 2803dd8:	d9014c17 	ldw	r4,1328(sp)
 2803ddc:	bdc00044 	addi	r23,r23,1
 2803de0:	b8c00007 	ldb	r3,0(r23)
 2803de4:	21000814 	ori	r4,r4,32
 2803de8:	d9014c15 	stw	r4,1328(sp)
 2803dec:	003a2e06 	br	28026a8 <___vfprintf_internal_r+0x1fc>
 2803df0:	dcc14515 	stw	r19,1300(sp)
 2803df4:	98011016 	blt	r19,zero,2804238 <___vfprintf_internal_r+0x1d8c>
 2803df8:	980f883a 	mov	r7,r19
 2803dfc:	d8014615 	stw	zero,1304(sp)
 2803e00:	003c4c06 	br	2802f34 <___vfprintf_internal_r+0xa88>
 2803e04:	d9014f17 	ldw	r4,1340(sp)
 2803e08:	b00b883a 	mov	r5,r22
 2803e0c:	d9800c04 	addi	r6,sp,48
 2803e10:	28024540 	call	2802454 <__sprint_r>
 2803e14:	103b5d1e 	bne	r2,zero,2802b8c <___vfprintf_internal_r+0x6e0>
 2803e18:	dc800e17 	ldw	r18,56(sp)
 2803e1c:	d9000517 	ldw	r4,20(sp)
 2803e20:	d8c01904 	addi	r3,sp,100
 2803e24:	003f2e06 	br	2803ae0 <___vfprintf_internal_r+0x1634>
 2803e28:	d8c14c17 	ldw	r3,1328(sp)
 2803e2c:	1880100c 	andi	r2,r3,64
 2803e30:	1000a026 	beq	r2,zero,28040b4 <___vfprintf_internal_r+0x1c08>
 2803e34:	38800017 	ldw	r2,0(r7)
 2803e38:	39c00104 	addi	r7,r7,4
 2803e3c:	d9c14015 	stw	r7,1280(sp)
 2803e40:	d9014b17 	ldw	r4,1324(sp)
 2803e44:	d9c14017 	ldw	r7,1280(sp)
 2803e48:	1100000d 	sth	r4,0(r2)
 2803e4c:	0039f306 	br	280261c <___vfprintf_internal_r+0x170>
 2803e50:	d9014f17 	ldw	r4,1340(sp)
 2803e54:	b00b883a 	mov	r5,r22
 2803e58:	d9800c04 	addi	r6,sp,48
 2803e5c:	28024540 	call	2802454 <__sprint_r>
 2803e60:	103b4a1e 	bne	r2,zero,2802b8c <___vfprintf_internal_r+0x6e0>
 2803e64:	dc800e17 	ldw	r18,56(sp)
 2803e68:	dc400d17 	ldw	r17,52(sp)
 2803e6c:	d9000517 	ldw	r4,20(sp)
 2803e70:	d8c01904 	addi	r3,sp,100
 2803e74:	003f2d06 	br	2803b2c <___vfprintf_internal_r+0x1680>
 2803e78:	00800184 	movi	r2,6
 2803e7c:	14c09a36 	bltu	r2,r19,28040e8 <___vfprintf_internal_r+0x1c3c>
 2803e80:	dcc14515 	stw	r19,1300(sp)
 2803e84:	9800010e 	bge	r19,zero,2803e8c <___vfprintf_internal_r+0x19e0>
 2803e88:	d8014515 	stw	zero,1300(sp)
 2803e8c:	0080a074 	movhi	r2,641
 2803e90:	10be6004 	addi	r2,r2,-1664
 2803e94:	980f883a 	mov	r7,r19
 2803e98:	d8814115 	stw	r2,1284(sp)
 2803e9c:	003a7206 	br	2802868 <___vfprintf_internal_r+0x3bc>
 2803ea0:	00bfffc4 	movi	r2,-1
 2803ea4:	9880e226 	beq	r19,r2,2804230 <___vfprintf_internal_r+0x1d84>
 2803ea8:	d9414d17 	ldw	r5,1332(sp)
 2803eac:	008019c4 	movi	r2,103
 2803eb0:	2880dc26 	beq	r5,r2,2804224 <___vfprintf_internal_r+0x1d78>
 2803eb4:	008011c4 	movi	r2,71
 2803eb8:	2880da26 	beq	r5,r2,2804224 <___vfprintf_internal_r+0x1d78>
 2803ebc:	d9414c17 	ldw	r5,1328(sp)
 2803ec0:	d9014317 	ldw	r4,1292(sp)
 2803ec4:	d9814217 	ldw	r6,1288(sp)
 2803ec8:	29404014 	ori	r5,r5,256
 2803ecc:	d9414c15 	stw	r5,1328(sp)
 2803ed0:	2000cc16 	blt	r4,zero,2804204 <___vfprintf_internal_r+0x1d58>
 2803ed4:	3021883a 	mov	r16,r6
 2803ed8:	2023883a 	mov	r17,r4
 2803edc:	0039883a 	mov	fp,zero
 2803ee0:	d9414d17 	ldw	r5,1332(sp)
 2803ee4:	00801984 	movi	r2,102
 2803ee8:	2880b726 	beq	r5,r2,28041c8 <___vfprintf_internal_r+0x1d1c>
 2803eec:	00801184 	movi	r2,70
 2803ef0:	2880b526 	beq	r5,r2,28041c8 <___vfprintf_internal_r+0x1d1c>
 2803ef4:	00801944 	movi	r2,101
 2803ef8:	2880c826 	beq	r5,r2,280421c <___vfprintf_internal_r+0x1d70>
 2803efc:	00801144 	movi	r2,69
 2803f00:	2880c626 	beq	r5,r2,280421c <___vfprintf_internal_r+0x1d70>
 2803f04:	9829883a 	mov	r20,r19
 2803f08:	d9014f17 	ldw	r4,1340(sp)
 2803f0c:	d8800504 	addi	r2,sp,20
 2803f10:	880d883a 	mov	r6,r17
 2803f14:	d8800115 	stw	r2,4(sp)
 2803f18:	d8c00604 	addi	r3,sp,24
 2803f1c:	d8800704 	addi	r2,sp,28
 2803f20:	800b883a 	mov	r5,r16
 2803f24:	01c00084 	movi	r7,2
 2803f28:	d8c00215 	stw	r3,8(sp)
 2803f2c:	d8800315 	stw	r2,12(sp)
 2803f30:	dd000015 	stw	r20,0(sp)
 2803f34:	28047140 	call	2804714 <_dtoa_r>
 2803f38:	d9814d17 	ldw	r6,1332(sp)
 2803f3c:	d8814115 	stw	r2,1284(sp)
 2803f40:	008019c4 	movi	r2,103
 2803f44:	30809526 	beq	r6,r2,280419c <___vfprintf_internal_r+0x1cf0>
 2803f48:	d8c14d17 	ldw	r3,1332(sp)
 2803f4c:	008011c4 	movi	r2,71
 2803f50:	18809226 	beq	r3,r2,280419c <___vfprintf_internal_r+0x1cf0>
 2803f54:	d9414117 	ldw	r5,1284(sp)
 2803f58:	d9814d17 	ldw	r6,1332(sp)
 2803f5c:	00801984 	movi	r2,102
 2803f60:	2d25883a 	add	r18,r5,r20
 2803f64:	30808626 	beq	r6,r2,2804180 <___vfprintf_internal_r+0x1cd4>
 2803f68:	00801184 	movi	r2,70
 2803f6c:	30808426 	beq	r6,r2,2804180 <___vfprintf_internal_r+0x1cd4>
 2803f70:	000d883a 	mov	r6,zero
 2803f74:	000f883a 	mov	r7,zero
 2803f78:	880b883a 	mov	r5,r17
 2803f7c:	8009883a 	mov	r4,r16
 2803f80:	280affc0 	call	280affc <__eqdf2>
 2803f84:	1000751e 	bne	r2,zero,280415c <___vfprintf_internal_r+0x1cb0>
 2803f88:	9005883a 	mov	r2,r18
 2803f8c:	dc800715 	stw	r18,28(sp)
 2803f90:	d9014117 	ldw	r4,1284(sp)
 2803f94:	d9414d17 	ldw	r5,1332(sp)
 2803f98:	00c019c4 	movi	r3,103
 2803f9c:	1125c83a 	sub	r18,r2,r4
 2803fa0:	28c06826 	beq	r5,r3,2804144 <___vfprintf_internal_r+0x1c98>
 2803fa4:	008011c4 	movi	r2,71
 2803fa8:	28806626 	beq	r5,r2,2804144 <___vfprintf_internal_r+0x1c98>
 2803fac:	d9000517 	ldw	r4,20(sp)
 2803fb0:	d8c14d17 	ldw	r3,1332(sp)
 2803fb4:	00801944 	movi	r2,101
 2803fb8:	10c05516 	blt	r2,r3,2804110 <___vfprintf_internal_r+0x1c64>
 2803fbc:	213fffc4 	addi	r4,r4,-1
 2803fc0:	d9000515 	stw	r4,20(sp)
 2803fc4:	d8c00805 	stb	r3,32(sp)
 2803fc8:	2021883a 	mov	r16,r4
 2803fcc:	2000c116 	blt	r4,zero,28042d4 <___vfprintf_internal_r+0x1e28>
 2803fd0:	00800ac4 	movi	r2,43
 2803fd4:	d8800845 	stb	r2,33(sp)
 2803fd8:	00800244 	movi	r2,9
 2803fdc:	1400af0e 	bge	r2,r16,280429c <___vfprintf_internal_r+0x1df0>
 2803fe0:	1027883a 	mov	r19,r2
 2803fe4:	dc400b84 	addi	r17,sp,46
 2803fe8:	8009883a 	mov	r4,r16
 2803fec:	01400284 	movi	r5,10
 2803ff0:	280b6e40 	call	280b6e4 <__modsi3>
 2803ff4:	10800c04 	addi	r2,r2,48
 2803ff8:	8c7fffc4 	addi	r17,r17,-1
 2803ffc:	8009883a 	mov	r4,r16
 2804000:	01400284 	movi	r5,10
 2804004:	88800005 	stb	r2,0(r17)
 2804008:	280b6840 	call	280b684 <__divsi3>
 280400c:	1021883a 	mov	r16,r2
 2804010:	98bff516 	blt	r19,r2,2803fe8 <___vfprintf_internal_r+0x1b3c>
 2804014:	10c00c04 	addi	r3,r2,48
 2804018:	d88009c4 	addi	r2,sp,39
 280401c:	108001c4 	addi	r2,r2,7
 2804020:	897fffc4 	addi	r5,r17,-1
 2804024:	88ffffc5 	stb	r3,-1(r17)
 2804028:	2880a72e 	bgeu	r5,r2,28042c8 <___vfprintf_internal_r+0x1e1c>
 280402c:	1009883a 	mov	r4,r2
 2804030:	d9800804 	addi	r6,sp,32
 2804034:	d8c00884 	addi	r3,sp,34
 2804038:	28800003 	ldbu	r2,0(r5)
 280403c:	29400044 	addi	r5,r5,1
 2804040:	18800005 	stb	r2,0(r3)
 2804044:	18c00044 	addi	r3,r3,1
 2804048:	293ffb36 	bltu	r5,r4,2804038 <___vfprintf_internal_r+0x1b8c>
 280404c:	1987c83a 	sub	r3,r3,r6
 2804050:	00800044 	movi	r2,1
 2804054:	d8c14815 	stw	r3,1312(sp)
 2804058:	90cf883a 	add	r7,r18,r3
 280405c:	1480960e 	bge	r2,r18,28042b8 <___vfprintf_internal_r+0x1e0c>
 2804060:	39c00044 	addi	r7,r7,1
 2804064:	d9c14515 	stw	r7,1300(sp)
 2804068:	38003416 	blt	r7,zero,280413c <___vfprintf_internal_r+0x1c90>
 280406c:	e0803fcc 	andi	r2,fp,255
 2804070:	1080201c 	xori	r2,r2,128
 2804074:	10bfe004 	addi	r2,r2,-128
 2804078:	10004e26 	beq	r2,zero,28041b4 <___vfprintf_internal_r+0x1d08>
 280407c:	00800b44 	movi	r2,45
 2804080:	dc814715 	stw	r18,1308(sp)
 2804084:	d8014615 	stw	zero,1304(sp)
 2804088:	d8800405 	stb	r2,16(sp)
 280408c:	003bab06 	br	2802f3c <___vfprintf_internal_r+0xa90>
 2804090:	00800b44 	movi	r2,45
 2804094:	d8800405 	stb	r2,16(sp)
 2804098:	003d2d06 	br	2803550 <___vfprintf_internal_r+0x10a4>
 280409c:	d9014f17 	ldw	r4,1340(sp)
 28040a0:	b00b883a 	mov	r5,r22
 28040a4:	d9800c04 	addi	r6,sp,48
 28040a8:	28024540 	call	2802454 <__sprint_r>
 28040ac:	103ab71e 	bne	r2,zero,2802b8c <___vfprintf_internal_r+0x6e0>
 28040b0:	003ab506 	br	2802b88 <___vfprintf_internal_r+0x6dc>
 28040b4:	38800017 	ldw	r2,0(r7)
 28040b8:	39c00104 	addi	r7,r7,4
 28040bc:	d9c14015 	stw	r7,1280(sp)
 28040c0:	d9414b17 	ldw	r5,1324(sp)
 28040c4:	d9c14017 	ldw	r7,1280(sp)
 28040c8:	11400015 	stw	r5,0(r2)
 28040cc:	00395306 	br	280261c <___vfprintf_internal_r+0x170>
 28040d0:	980f883a 	mov	r7,r19
 28040d4:	dcc14515 	stw	r19,1300(sp)
 28040d8:	d8014615 	stw	zero,1304(sp)
 28040dc:	003b9506 	br	2802f34 <___vfprintf_internal_r+0xa88>
 28040e0:	0027883a 	mov	r19,zero
 28040e4:	00397206 	br	28026b0 <___vfprintf_internal_r+0x204>
 28040e8:	00c0a074 	movhi	r3,641
 28040ec:	18fe6004 	addi	r3,r3,-1664
 28040f0:	100f883a 	mov	r7,r2
 28040f4:	d8814515 	stw	r2,1300(sp)
 28040f8:	d8c14115 	stw	r3,1284(sp)
 28040fc:	0039da06 	br	2802868 <___vfprintf_internal_r+0x3bc>
 2804100:	0080a074 	movhi	r2,641
 2804104:	10be5f04 	addi	r2,r2,-1668
 2804108:	d8814115 	stw	r2,1284(sp)
 280410c:	003d1606 	br	2803568 <___vfprintf_internal_r+0x10bc>
 2804110:	d9414d17 	ldw	r5,1332(sp)
 2804114:	00801984 	movi	r2,102
 2804118:	28804926 	beq	r5,r2,2804240 <___vfprintf_internal_r+0x1d94>
 280411c:	200f883a 	mov	r7,r4
 2804120:	24805716 	blt	r4,r18,2804280 <___vfprintf_internal_r+0x1dd4>
 2804124:	d9414c17 	ldw	r5,1328(sp)
 2804128:	2880004c 	andi	r2,r5,1
 280412c:	10000126 	beq	r2,zero,2804134 <___vfprintf_internal_r+0x1c88>
 2804130:	21c00044 	addi	r7,r4,1
 2804134:	d9c14515 	stw	r7,1300(sp)
 2804138:	383fcc0e 	bge	r7,zero,280406c <___vfprintf_internal_r+0x1bc0>
 280413c:	d8014515 	stw	zero,1300(sp)
 2804140:	003fca06 	br	280406c <___vfprintf_internal_r+0x1bc0>
 2804144:	d9000517 	ldw	r4,20(sp)
 2804148:	00bfff04 	movi	r2,-4
 280414c:	1100480e 	bge	r2,r4,2804270 <___vfprintf_internal_r+0x1dc4>
 2804150:	99004716 	blt	r19,r4,2804270 <___vfprintf_internal_r+0x1dc4>
 2804154:	d8c14d15 	stw	r3,1332(sp)
 2804158:	003ff006 	br	280411c <___vfprintf_internal_r+0x1c70>
 280415c:	d8800717 	ldw	r2,28(sp)
 2804160:	14bf8b2e 	bgeu	r2,r18,2803f90 <___vfprintf_internal_r+0x1ae4>
 2804164:	9007883a 	mov	r3,r18
 2804168:	01000c04 	movi	r4,48
 280416c:	11000005 	stb	r4,0(r2)
 2804170:	10800044 	addi	r2,r2,1
 2804174:	d8800715 	stw	r2,28(sp)
 2804178:	18bffc1e 	bne	r3,r2,280416c <___vfprintf_internal_r+0x1cc0>
 280417c:	003f8406 	br	2803f90 <___vfprintf_internal_r+0x1ae4>
 2804180:	d8814117 	ldw	r2,1284(sp)
 2804184:	10c00007 	ldb	r3,0(r2)
 2804188:	00800c04 	movi	r2,48
 280418c:	18805b26 	beq	r3,r2,28042fc <___vfprintf_internal_r+0x1e50>
 2804190:	d9000517 	ldw	r4,20(sp)
 2804194:	9125883a 	add	r18,r18,r4
 2804198:	003f7506 	br	2803f70 <___vfprintf_internal_r+0x1ac4>
 280419c:	d9014c17 	ldw	r4,1328(sp)
 28041a0:	2080004c 	andi	r2,r4,1
 28041a4:	1005003a 	cmpeq	r2,r2,zero
 28041a8:	103f6a26 	beq	r2,zero,2803f54 <___vfprintf_internal_r+0x1aa8>
 28041ac:	d8800717 	ldw	r2,28(sp)
 28041b0:	003f7706 	br	2803f90 <___vfprintf_internal_r+0x1ae4>
 28041b4:	d9c14515 	stw	r7,1300(sp)
 28041b8:	38004d16 	blt	r7,zero,28042f0 <___vfprintf_internal_r+0x1e44>
 28041bc:	dc814715 	stw	r18,1308(sp)
 28041c0:	d8014615 	stw	zero,1304(sp)
 28041c4:	003b5b06 	br	2802f34 <___vfprintf_internal_r+0xa88>
 28041c8:	d9014f17 	ldw	r4,1340(sp)
 28041cc:	d8800504 	addi	r2,sp,20
 28041d0:	d8800115 	stw	r2,4(sp)
 28041d4:	d8c00604 	addi	r3,sp,24
 28041d8:	d8800704 	addi	r2,sp,28
 28041dc:	800b883a 	mov	r5,r16
 28041e0:	880d883a 	mov	r6,r17
 28041e4:	01c000c4 	movi	r7,3
 28041e8:	d8c00215 	stw	r3,8(sp)
 28041ec:	d8800315 	stw	r2,12(sp)
 28041f0:	dcc00015 	stw	r19,0(sp)
 28041f4:	9829883a 	mov	r20,r19
 28041f8:	28047140 	call	2804714 <_dtoa_r>
 28041fc:	d8814115 	stw	r2,1284(sp)
 2804200:	003f5106 	br	2803f48 <___vfprintf_internal_r+0x1a9c>
 2804204:	d8c14217 	ldw	r3,1288(sp)
 2804208:	d9014317 	ldw	r4,1292(sp)
 280420c:	07000b44 	movi	fp,45
 2804210:	1821883a 	mov	r16,r3
 2804214:	2460003c 	xorhi	r17,r4,32768
 2804218:	003f3106 	br	2803ee0 <___vfprintf_internal_r+0x1a34>
 280421c:	9d000044 	addi	r20,r19,1
 2804220:	003f3906 	br	2803f08 <___vfprintf_internal_r+0x1a5c>
 2804224:	983f251e 	bne	r19,zero,2803ebc <___vfprintf_internal_r+0x1a10>
 2804228:	04c00044 	movi	r19,1
 280422c:	003f2306 	br	2803ebc <___vfprintf_internal_r+0x1a10>
 2804230:	04c00184 	movi	r19,6
 2804234:	003f2106 	br	2803ebc <___vfprintf_internal_r+0x1a10>
 2804238:	d8014515 	stw	zero,1300(sp)
 280423c:	003eee06 	br	2803df8 <___vfprintf_internal_r+0x194c>
 2804240:	200f883a 	mov	r7,r4
 2804244:	0100370e 	bge	zero,r4,2804324 <___vfprintf_internal_r+0x1e78>
 2804248:	9800031e 	bne	r19,zero,2804258 <___vfprintf_internal_r+0x1dac>
 280424c:	d9814c17 	ldw	r6,1328(sp)
 2804250:	3080004c 	andi	r2,r6,1
 2804254:	103fb726 	beq	r2,zero,2804134 <___vfprintf_internal_r+0x1c88>
 2804258:	20800044 	addi	r2,r4,1
 280425c:	98a7883a 	add	r19,r19,r2
 2804260:	dcc14515 	stw	r19,1300(sp)
 2804264:	980f883a 	mov	r7,r19
 2804268:	983f800e 	bge	r19,zero,280406c <___vfprintf_internal_r+0x1bc0>
 280426c:	003fb306 	br	280413c <___vfprintf_internal_r+0x1c90>
 2804270:	d9814d17 	ldw	r6,1332(sp)
 2804274:	31bfff84 	addi	r6,r6,-2
 2804278:	d9814d15 	stw	r6,1332(sp)
 280427c:	003f4c06 	br	2803fb0 <___vfprintf_internal_r+0x1b04>
 2804280:	0100180e 	bge	zero,r4,28042e4 <___vfprintf_internal_r+0x1e38>
 2804284:	00800044 	movi	r2,1
 2804288:	1485883a 	add	r2,r2,r18
 280428c:	d8814515 	stw	r2,1300(sp)
 2804290:	100f883a 	mov	r7,r2
 2804294:	103f750e 	bge	r2,zero,280406c <___vfprintf_internal_r+0x1bc0>
 2804298:	003fa806 	br	280413c <___vfprintf_internal_r+0x1c90>
 280429c:	80c00c04 	addi	r3,r16,48
 28042a0:	00800c04 	movi	r2,48
 28042a4:	d8c008c5 	stb	r3,35(sp)
 28042a8:	d9800804 	addi	r6,sp,32
 28042ac:	d8c00904 	addi	r3,sp,36
 28042b0:	d8800885 	stb	r2,34(sp)
 28042b4:	003f6506 	br	280404c <___vfprintf_internal_r+0x1ba0>
 28042b8:	d9014c17 	ldw	r4,1328(sp)
 28042bc:	2084703a 	and	r2,r4,r2
 28042c0:	103f9c26 	beq	r2,zero,2804134 <___vfprintf_internal_r+0x1c88>
 28042c4:	003f6606 	br	2804060 <___vfprintf_internal_r+0x1bb4>
 28042c8:	d9800804 	addi	r6,sp,32
 28042cc:	d8c00884 	addi	r3,sp,34
 28042d0:	003f5e06 	br	280404c <___vfprintf_internal_r+0x1ba0>
 28042d4:	00800b44 	movi	r2,45
 28042d8:	0121c83a 	sub	r16,zero,r4
 28042dc:	d8800845 	stb	r2,33(sp)
 28042e0:	003f3d06 	br	2803fd8 <___vfprintf_internal_r+0x1b2c>
 28042e4:	00800084 	movi	r2,2
 28042e8:	1105c83a 	sub	r2,r2,r4
 28042ec:	003fe606 	br	2804288 <___vfprintf_internal_r+0x1ddc>
 28042f0:	d8014515 	stw	zero,1300(sp)
 28042f4:	dc814715 	stw	r18,1308(sp)
 28042f8:	003fb106 	br	28041c0 <___vfprintf_internal_r+0x1d14>
 28042fc:	000d883a 	mov	r6,zero
 2804300:	000f883a 	mov	r7,zero
 2804304:	8009883a 	mov	r4,r16
 2804308:	880b883a 	mov	r5,r17
 280430c:	280b0840 	call	280b084 <__nedf2>
 2804310:	103f9f26 	beq	r2,zero,2804190 <___vfprintf_internal_r+0x1ce4>
 2804314:	00800044 	movi	r2,1
 2804318:	1509c83a 	sub	r4,r2,r20
 280431c:	d9000515 	stw	r4,20(sp)
 2804320:	003f9b06 	br	2804190 <___vfprintf_internal_r+0x1ce4>
 2804324:	98000d1e 	bne	r19,zero,280435c <___vfprintf_internal_r+0x1eb0>
 2804328:	d8c14c17 	ldw	r3,1328(sp)
 280432c:	1880004c 	andi	r2,r3,1
 2804330:	10000a1e 	bne	r2,zero,280435c <___vfprintf_internal_r+0x1eb0>
 2804334:	01000044 	movi	r4,1
 2804338:	200f883a 	mov	r7,r4
 280433c:	d9014515 	stw	r4,1300(sp)
 2804340:	003f4a06 	br	280406c <___vfprintf_internal_r+0x1bc0>
 2804344:	3cc00017 	ldw	r19,0(r7)
 2804348:	39c00104 	addi	r7,r7,4
 280434c:	983d0e0e 	bge	r19,zero,2803788 <___vfprintf_internal_r+0x12dc>
 2804350:	b8c00007 	ldb	r3,0(r23)
 2804354:	04ffffc4 	movi	r19,-1
 2804358:	0038d306 	br	28026a8 <___vfprintf_internal_r+0x1fc>
 280435c:	9cc00084 	addi	r19,r19,2
 2804360:	dcc14515 	stw	r19,1300(sp)
 2804364:	980f883a 	mov	r7,r19
 2804368:	983f400e 	bge	r19,zero,280406c <___vfprintf_internal_r+0x1bc0>
 280436c:	003f7306 	br	280413c <___vfprintf_internal_r+0x1c90>

02804370 <__vfprintf_internal>:
 2804370:	0080a074 	movhi	r2,641
 2804374:	10890d04 	addi	r2,r2,9268
 2804378:	2013883a 	mov	r9,r4
 280437c:	11000017 	ldw	r4,0(r2)
 2804380:	2805883a 	mov	r2,r5
 2804384:	300f883a 	mov	r7,r6
 2804388:	480b883a 	mov	r5,r9
 280438c:	100d883a 	mov	r6,r2
 2804390:	28024ac1 	jmpi	28024ac <___vfprintf_internal_r>

02804394 <__swsetup_r>:
 2804394:	0080a074 	movhi	r2,641
 2804398:	10890d04 	addi	r2,r2,9268
 280439c:	10c00017 	ldw	r3,0(r2)
 28043a0:	defffd04 	addi	sp,sp,-12
 28043a4:	dc400115 	stw	r17,4(sp)
 28043a8:	dc000015 	stw	r16,0(sp)
 28043ac:	dfc00215 	stw	ra,8(sp)
 28043b0:	2023883a 	mov	r17,r4
 28043b4:	2821883a 	mov	r16,r5
 28043b8:	18000226 	beq	r3,zero,28043c4 <__swsetup_r+0x30>
 28043bc:	18800e17 	ldw	r2,56(r3)
 28043c0:	10001f26 	beq	r2,zero,2804440 <__swsetup_r+0xac>
 28043c4:	8100030b 	ldhu	r4,12(r16)
 28043c8:	2080020c 	andi	r2,r4,8
 28043cc:	10002826 	beq	r2,zero,2804470 <__swsetup_r+0xdc>
 28043d0:	81400417 	ldw	r5,16(r16)
 28043d4:	28001d26 	beq	r5,zero,280444c <__swsetup_r+0xb8>
 28043d8:	2080004c 	andi	r2,r4,1
 28043dc:	1005003a 	cmpeq	r2,r2,zero
 28043e0:	10000b26 	beq	r2,zero,2804410 <__swsetup_r+0x7c>
 28043e4:	2080008c 	andi	r2,r4,2
 28043e8:	10001226 	beq	r2,zero,2804434 <__swsetup_r+0xa0>
 28043ec:	0005883a 	mov	r2,zero
 28043f0:	80800215 	stw	r2,8(r16)
 28043f4:	28000b26 	beq	r5,zero,2804424 <__swsetup_r+0x90>
 28043f8:	0005883a 	mov	r2,zero
 28043fc:	dfc00217 	ldw	ra,8(sp)
 2804400:	dc400117 	ldw	r17,4(sp)
 2804404:	dc000017 	ldw	r16,0(sp)
 2804408:	dec00304 	addi	sp,sp,12
 280440c:	f800283a 	ret
 2804410:	80800517 	ldw	r2,20(r16)
 2804414:	80000215 	stw	zero,8(r16)
 2804418:	0085c83a 	sub	r2,zero,r2
 280441c:	80800615 	stw	r2,24(r16)
 2804420:	283ff51e 	bne	r5,zero,28043f8 <__swsetup_r+0x64>
 2804424:	2080200c 	andi	r2,r4,128
 2804428:	103ff326 	beq	r2,zero,28043f8 <__swsetup_r+0x64>
 280442c:	00bfffc4 	movi	r2,-1
 2804430:	003ff206 	br	28043fc <__swsetup_r+0x68>
 2804434:	80800517 	ldw	r2,20(r16)
 2804438:	80800215 	stw	r2,8(r16)
 280443c:	003fed06 	br	28043f4 <__swsetup_r+0x60>
 2804440:	1809883a 	mov	r4,r3
 2804444:	2805f600 	call	2805f60 <__sinit>
 2804448:	003fde06 	br	28043c4 <__swsetup_r+0x30>
 280444c:	20c0a00c 	andi	r3,r4,640
 2804450:	00808004 	movi	r2,512
 2804454:	18bfe026 	beq	r3,r2,28043d8 <__swsetup_r+0x44>
 2804458:	8809883a 	mov	r4,r17
 280445c:	800b883a 	mov	r5,r16
 2804460:	2806d0c0 	call	2806d0c <__smakebuf_r>
 2804464:	8100030b 	ldhu	r4,12(r16)
 2804468:	81400417 	ldw	r5,16(r16)
 280446c:	003fda06 	br	28043d8 <__swsetup_r+0x44>
 2804470:	2080040c 	andi	r2,r4,16
 2804474:	103fed26 	beq	r2,zero,280442c <__swsetup_r+0x98>
 2804478:	2080010c 	andi	r2,r4,4
 280447c:	10001226 	beq	r2,zero,28044c8 <__swsetup_r+0x134>
 2804480:	81400c17 	ldw	r5,48(r16)
 2804484:	28000526 	beq	r5,zero,280449c <__swsetup_r+0x108>
 2804488:	80801004 	addi	r2,r16,64
 280448c:	28800226 	beq	r5,r2,2804498 <__swsetup_r+0x104>
 2804490:	8809883a 	mov	r4,r17
 2804494:	28063180 	call	2806318 <_free_r>
 2804498:	80000c15 	stw	zero,48(r16)
 280449c:	8080030b 	ldhu	r2,12(r16)
 28044a0:	81400417 	ldw	r5,16(r16)
 28044a4:	80000115 	stw	zero,4(r16)
 28044a8:	10bff6cc 	andi	r2,r2,65499
 28044ac:	8080030d 	sth	r2,12(r16)
 28044b0:	81400015 	stw	r5,0(r16)
 28044b4:	8080030b 	ldhu	r2,12(r16)
 28044b8:	10800214 	ori	r2,r2,8
 28044bc:	113fffcc 	andi	r4,r2,65535
 28044c0:	8080030d 	sth	r2,12(r16)
 28044c4:	003fc306 	br	28043d4 <__swsetup_r+0x40>
 28044c8:	81400417 	ldw	r5,16(r16)
 28044cc:	003ff906 	br	28044b4 <__swsetup_r+0x120>

028044d0 <quorem>:
 28044d0:	28c00417 	ldw	r3,16(r5)
 28044d4:	20800417 	ldw	r2,16(r4)
 28044d8:	defff104 	addi	sp,sp,-60
 28044dc:	dfc00e15 	stw	ra,56(sp)
 28044e0:	df000d15 	stw	fp,52(sp)
 28044e4:	ddc00c15 	stw	r23,48(sp)
 28044e8:	dd800b15 	stw	r22,44(sp)
 28044ec:	dd400a15 	stw	r21,40(sp)
 28044f0:	dd000915 	stw	r20,36(sp)
 28044f4:	dcc00815 	stw	r19,32(sp)
 28044f8:	dc800715 	stw	r18,28(sp)
 28044fc:	dc400615 	stw	r17,24(sp)
 2804500:	dc000515 	stw	r16,20(sp)
 2804504:	d9000315 	stw	r4,12(sp)
 2804508:	d9400415 	stw	r5,16(sp)
 280450c:	10c07f16 	blt	r2,r3,280470c <quorem+0x23c>
 2804510:	1d3fffc4 	addi	r20,r3,-1
 2804514:	d8c00417 	ldw	r3,16(sp)
 2804518:	d9000317 	ldw	r4,12(sp)
 280451c:	a505883a 	add	r2,r20,r20
 2804520:	1085883a 	add	r2,r2,r2
 2804524:	1cc00504 	addi	r19,r3,20
 2804528:	25c00504 	addi	r23,r4,20
 280452c:	98ad883a 	add	r22,r19,r2
 2804530:	15c7883a 	add	r3,r2,r23
 2804534:	b1400017 	ldw	r5,0(r22)
 2804538:	19000017 	ldw	r4,0(r3)
 280453c:	d8c00015 	stw	r3,0(sp)
 2804540:	29400044 	addi	r5,r5,1
 2804544:	d9000215 	stw	r4,8(sp)
 2804548:	280b7440 	call	280b744 <__udivsi3>
 280454c:	1039883a 	mov	fp,r2
 2804550:	10003d1e 	bne	r2,zero,2804648 <quorem+0x178>
 2804554:	d9400417 	ldw	r5,16(sp)
 2804558:	d9000317 	ldw	r4,12(sp)
 280455c:	2807a380 	call	2807a38 <__mcmp>
 2804560:	10002c16 	blt	r2,zero,2804614 <quorem+0x144>
 2804564:	e7000044 	addi	fp,fp,1
 2804568:	b80f883a 	mov	r7,r23
 280456c:	0011883a 	mov	r8,zero
 2804570:	0009883a 	mov	r4,zero
 2804574:	99400017 	ldw	r5,0(r19)
 2804578:	38c00017 	ldw	r3,0(r7)
 280457c:	9cc00104 	addi	r19,r19,4
 2804580:	28bfffcc 	andi	r2,r5,65535
 2804584:	2085883a 	add	r2,r4,r2
 2804588:	11bfffcc 	andi	r6,r2,65535
 280458c:	193fffcc 	andi	r4,r3,65535
 2804590:	1004d43a 	srli	r2,r2,16
 2804594:	280ad43a 	srli	r5,r5,16
 2804598:	2189c83a 	sub	r4,r4,r6
 280459c:	2209883a 	add	r4,r4,r8
 28045a0:	1806d43a 	srli	r3,r3,16
 28045a4:	288b883a 	add	r5,r5,r2
 28045a8:	200dd43a 	srai	r6,r4,16
 28045ac:	28bfffcc 	andi	r2,r5,65535
 28045b0:	1887c83a 	sub	r3,r3,r2
 28045b4:	1987883a 	add	r3,r3,r6
 28045b8:	3900000d 	sth	r4,0(r7)
 28045bc:	38c0008d 	sth	r3,2(r7)
 28045c0:	2808d43a 	srli	r4,r5,16
 28045c4:	39c00104 	addi	r7,r7,4
 28045c8:	1811d43a 	srai	r8,r3,16
 28045cc:	b4ffe92e 	bgeu	r22,r19,2804574 <quorem+0xa4>
 28045d0:	a505883a 	add	r2,r20,r20
 28045d4:	1085883a 	add	r2,r2,r2
 28045d8:	b885883a 	add	r2,r23,r2
 28045dc:	10c00017 	ldw	r3,0(r2)
 28045e0:	18000c1e 	bne	r3,zero,2804614 <quorem+0x144>
 28045e4:	113fff04 	addi	r4,r2,-4
 28045e8:	b900082e 	bgeu	r23,r4,280460c <quorem+0x13c>
 28045ec:	10bfff17 	ldw	r2,-4(r2)
 28045f0:	10000326 	beq	r2,zero,2804600 <quorem+0x130>
 28045f4:	00000506 	br	280460c <quorem+0x13c>
 28045f8:	20800017 	ldw	r2,0(r4)
 28045fc:	1000031e 	bne	r2,zero,280460c <quorem+0x13c>
 2804600:	213fff04 	addi	r4,r4,-4
 2804604:	a53fffc4 	addi	r20,r20,-1
 2804608:	b93ffb36 	bltu	r23,r4,28045f8 <quorem+0x128>
 280460c:	d9000317 	ldw	r4,12(sp)
 2804610:	25000415 	stw	r20,16(r4)
 2804614:	e005883a 	mov	r2,fp
 2804618:	dfc00e17 	ldw	ra,56(sp)
 280461c:	df000d17 	ldw	fp,52(sp)
 2804620:	ddc00c17 	ldw	r23,48(sp)
 2804624:	dd800b17 	ldw	r22,44(sp)
 2804628:	dd400a17 	ldw	r21,40(sp)
 280462c:	dd000917 	ldw	r20,36(sp)
 2804630:	dcc00817 	ldw	r19,32(sp)
 2804634:	dc800717 	ldw	r18,28(sp)
 2804638:	dc400617 	ldw	r17,24(sp)
 280463c:	dc000517 	ldw	r16,20(sp)
 2804640:	dec00f04 	addi	sp,sp,60
 2804644:	f800283a 	ret
 2804648:	b823883a 	mov	r17,r23
 280464c:	9825883a 	mov	r18,r19
 2804650:	d8000115 	stw	zero,4(sp)
 2804654:	002b883a 	mov	r21,zero
 2804658:	94000017 	ldw	r16,0(r18)
 280465c:	e009883a 	mov	r4,fp
 2804660:	94800104 	addi	r18,r18,4
 2804664:	817fffcc 	andi	r5,r16,65535
 2804668:	28021e80 	call	28021e8 <__mulsi3>
 280466c:	800ad43a 	srli	r5,r16,16
 2804670:	e009883a 	mov	r4,fp
 2804674:	a8a1883a 	add	r16,r21,r2
 2804678:	28021e80 	call	28021e8 <__mulsi3>
 280467c:	89000017 	ldw	r4,0(r17)
 2804680:	80ffffcc 	andi	r3,r16,65535
 2804684:	8020d43a 	srli	r16,r16,16
 2804688:	217fffcc 	andi	r5,r4,65535
 280468c:	28cbc83a 	sub	r5,r5,r3
 2804690:	d8c00117 	ldw	r3,4(sp)
 2804694:	2008d43a 	srli	r4,r4,16
 2804698:	1405883a 	add	r2,r2,r16
 280469c:	28cb883a 	add	r5,r5,r3
 28046a0:	280dd43a 	srai	r6,r5,16
 28046a4:	10ffffcc 	andi	r3,r2,65535
 28046a8:	20c9c83a 	sub	r4,r4,r3
 28046ac:	2189883a 	add	r4,r4,r6
 28046b0:	8900008d 	sth	r4,2(r17)
 28046b4:	2009d43a 	srai	r4,r4,16
 28046b8:	8940000d 	sth	r5,0(r17)
 28046bc:	102ad43a 	srli	r21,r2,16
 28046c0:	8c400104 	addi	r17,r17,4
 28046c4:	d9000115 	stw	r4,4(sp)
 28046c8:	b4bfe32e 	bgeu	r22,r18,2804658 <quorem+0x188>
 28046cc:	d9000217 	ldw	r4,8(sp)
 28046d0:	203fa01e 	bne	r4,zero,2804554 <quorem+0x84>
 28046d4:	d8800017 	ldw	r2,0(sp)
 28046d8:	10ffff04 	addi	r3,r2,-4
 28046dc:	b8c0082e 	bgeu	r23,r3,2804700 <quorem+0x230>
 28046e0:	10bfff17 	ldw	r2,-4(r2)
 28046e4:	10000326 	beq	r2,zero,28046f4 <quorem+0x224>
 28046e8:	00000506 	br	2804700 <quorem+0x230>
 28046ec:	18800017 	ldw	r2,0(r3)
 28046f0:	1000031e 	bne	r2,zero,2804700 <quorem+0x230>
 28046f4:	18ffff04 	addi	r3,r3,-4
 28046f8:	a53fffc4 	addi	r20,r20,-1
 28046fc:	b8fffb36 	bltu	r23,r3,28046ec <quorem+0x21c>
 2804700:	d8c00317 	ldw	r3,12(sp)
 2804704:	1d000415 	stw	r20,16(r3)
 2804708:	003f9206 	br	2804554 <quorem+0x84>
 280470c:	0005883a 	mov	r2,zero
 2804710:	003fc106 	br	2804618 <quorem+0x148>

02804714 <_dtoa_r>:
 2804714:	22001017 	ldw	r8,64(r4)
 2804718:	deffda04 	addi	sp,sp,-152
 280471c:	dd402115 	stw	r21,132(sp)
 2804720:	dd002015 	stw	r20,128(sp)
 2804724:	dc801e15 	stw	r18,120(sp)
 2804728:	dc401d15 	stw	r17,116(sp)
 280472c:	dfc02515 	stw	ra,148(sp)
 2804730:	df002415 	stw	fp,144(sp)
 2804734:	ddc02315 	stw	r23,140(sp)
 2804738:	dd802215 	stw	r22,136(sp)
 280473c:	dcc01f15 	stw	r19,124(sp)
 2804740:	dc001c15 	stw	r16,112(sp)
 2804744:	d9001615 	stw	r4,88(sp)
 2804748:	3023883a 	mov	r17,r6
 280474c:	2829883a 	mov	r20,r5
 2804750:	d9c01715 	stw	r7,92(sp)
 2804754:	dc802817 	ldw	r18,160(sp)
 2804758:	302b883a 	mov	r21,r6
 280475c:	40000a26 	beq	r8,zero,2804788 <_dtoa_r+0x74>
 2804760:	20801117 	ldw	r2,68(r4)
 2804764:	400b883a 	mov	r5,r8
 2804768:	40800115 	stw	r2,4(r8)
 280476c:	20c01117 	ldw	r3,68(r4)
 2804770:	00800044 	movi	r2,1
 2804774:	10c4983a 	sll	r2,r2,r3
 2804778:	40800215 	stw	r2,8(r8)
 280477c:	28078dc0 	call	28078dc <_Bfree>
 2804780:	d8c01617 	ldw	r3,88(sp)
 2804784:	18001015 	stw	zero,64(r3)
 2804788:	8800a316 	blt	r17,zero,2804a18 <_dtoa_r+0x304>
 280478c:	90000015 	stw	zero,0(r18)
 2804790:	a8dffc2c 	andhi	r3,r21,32752
 2804794:	009ffc34 	movhi	r2,32752
 2804798:	18809126 	beq	r3,r2,28049e0 <_dtoa_r+0x2cc>
 280479c:	000d883a 	mov	r6,zero
 28047a0:	000f883a 	mov	r7,zero
 28047a4:	a009883a 	mov	r4,r20
 28047a8:	a80b883a 	mov	r5,r21
 28047ac:	dd001215 	stw	r20,72(sp)
 28047b0:	dd401315 	stw	r21,76(sp)
 28047b4:	280b0840 	call	280b084 <__nedf2>
 28047b8:	1000171e 	bne	r2,zero,2804818 <_dtoa_r+0x104>
 28047bc:	d9802717 	ldw	r6,156(sp)
 28047c0:	00800044 	movi	r2,1
 28047c4:	30800015 	stw	r2,0(r6)
 28047c8:	d8802917 	ldw	r2,164(sp)
 28047cc:	10029b26 	beq	r2,zero,280523c <_dtoa_r+0xb28>
 28047d0:	d9002917 	ldw	r4,164(sp)
 28047d4:	0080a074 	movhi	r2,641
 28047d8:	10be6e44 	addi	r2,r2,-1607
 28047dc:	10ffffc4 	addi	r3,r2,-1
 28047e0:	20800015 	stw	r2,0(r4)
 28047e4:	1805883a 	mov	r2,r3
 28047e8:	dfc02517 	ldw	ra,148(sp)
 28047ec:	df002417 	ldw	fp,144(sp)
 28047f0:	ddc02317 	ldw	r23,140(sp)
 28047f4:	dd802217 	ldw	r22,136(sp)
 28047f8:	dd402117 	ldw	r21,132(sp)
 28047fc:	dd002017 	ldw	r20,128(sp)
 2804800:	dcc01f17 	ldw	r19,124(sp)
 2804804:	dc801e17 	ldw	r18,120(sp)
 2804808:	dc401d17 	ldw	r17,116(sp)
 280480c:	dc001c17 	ldw	r16,112(sp)
 2804810:	dec02604 	addi	sp,sp,152
 2804814:	f800283a 	ret
 2804818:	d9001617 	ldw	r4,88(sp)
 280481c:	d9401217 	ldw	r5,72(sp)
 2804820:	d8800104 	addi	r2,sp,4
 2804824:	a80d883a 	mov	r6,r21
 2804828:	d9c00204 	addi	r7,sp,8
 280482c:	d8800015 	stw	r2,0(sp)
 2804830:	2807f180 	call	2807f18 <__d2b>
 2804834:	d8800715 	stw	r2,28(sp)
 2804838:	a804d53a 	srli	r2,r21,20
 280483c:	1101ffcc 	andi	r4,r2,2047
 2804840:	20008626 	beq	r4,zero,2804a5c <_dtoa_r+0x348>
 2804844:	d8c01217 	ldw	r3,72(sp)
 2804848:	00800434 	movhi	r2,16
 280484c:	10bfffc4 	addi	r2,r2,-1
 2804850:	ddc00117 	ldw	r23,4(sp)
 2804854:	a884703a 	and	r2,r21,r2
 2804858:	1811883a 	mov	r8,r3
 280485c:	124ffc34 	orhi	r9,r2,16368
 2804860:	25bf0044 	addi	r22,r4,-1023
 2804864:	d8000815 	stw	zero,32(sp)
 2804868:	0005883a 	mov	r2,zero
 280486c:	00cffe34 	movhi	r3,16376
 2804870:	480b883a 	mov	r5,r9
 2804874:	4009883a 	mov	r4,r8
 2804878:	180f883a 	mov	r7,r3
 280487c:	100d883a 	mov	r6,r2
 2804880:	280a8ec0 	call	280a8ec <__subdf3>
 2804884:	0218dbf4 	movhi	r8,25455
 2804888:	4210d844 	addi	r8,r8,17249
 280488c:	024ff4f4 	movhi	r9,16339
 2804890:	4a61e9c4 	addi	r9,r9,-30809
 2804894:	480f883a 	mov	r7,r9
 2804898:	400d883a 	mov	r6,r8
 280489c:	180b883a 	mov	r5,r3
 28048a0:	1009883a 	mov	r4,r2
 28048a4:	280a9e00 	call	280a9e0 <__muldf3>
 28048a8:	0222d874 	movhi	r8,35681
 28048ac:	42322cc4 	addi	r8,r8,-14157
 28048b0:	024ff1f4 	movhi	r9,16327
 28048b4:	4a628a04 	addi	r9,r9,-30168
 28048b8:	480f883a 	mov	r7,r9
 28048bc:	400d883a 	mov	r6,r8
 28048c0:	180b883a 	mov	r5,r3
 28048c4:	1009883a 	mov	r4,r2
 28048c8:	280a96c0 	call	280a96c <__adddf3>
 28048cc:	b009883a 	mov	r4,r22
 28048d0:	1021883a 	mov	r16,r2
 28048d4:	1823883a 	mov	r17,r3
 28048d8:	280b2a40 	call	280b2a4 <__floatsidf>
 28048dc:	021427f4 	movhi	r8,20639
 28048e0:	421e7ec4 	addi	r8,r8,31227
 28048e4:	024ff4f4 	movhi	r9,16339
 28048e8:	4a5104c4 	addi	r9,r9,17427
 28048ec:	480f883a 	mov	r7,r9
 28048f0:	400d883a 	mov	r6,r8
 28048f4:	180b883a 	mov	r5,r3
 28048f8:	1009883a 	mov	r4,r2
 28048fc:	280a9e00 	call	280a9e0 <__muldf3>
 2804900:	180f883a 	mov	r7,r3
 2804904:	880b883a 	mov	r5,r17
 2804908:	100d883a 	mov	r6,r2
 280490c:	8009883a 	mov	r4,r16
 2804910:	280a96c0 	call	280a96c <__adddf3>
 2804914:	1009883a 	mov	r4,r2
 2804918:	180b883a 	mov	r5,r3
 280491c:	1021883a 	mov	r16,r2
 2804920:	1823883a 	mov	r17,r3
 2804924:	280b39c0 	call	280b39c <__fixdfsi>
 2804928:	000d883a 	mov	r6,zero
 280492c:	000f883a 	mov	r7,zero
 2804930:	8009883a 	mov	r4,r16
 2804934:	880b883a 	mov	r5,r17
 2804938:	d8800d15 	stw	r2,52(sp)
 280493c:	280b21c0 	call	280b21c <__ltdf2>
 2804940:	10031716 	blt	r2,zero,28055a0 <_dtoa_r+0xe8c>
 2804944:	d8c00d17 	ldw	r3,52(sp)
 2804948:	00800584 	movi	r2,22
 280494c:	10c1482e 	bgeu	r2,r3,2804e70 <_dtoa_r+0x75c>
 2804950:	01000044 	movi	r4,1
 2804954:	d9000c15 	stw	r4,48(sp)
 2804958:	bd85c83a 	sub	r2,r23,r22
 280495c:	11bfffc4 	addi	r6,r2,-1
 2804960:	30030b16 	blt	r6,zero,2805590 <_dtoa_r+0xe7c>
 2804964:	d9800a15 	stw	r6,40(sp)
 2804968:	d8001115 	stw	zero,68(sp)
 280496c:	d8c00d17 	ldw	r3,52(sp)
 2804970:	1802ff16 	blt	r3,zero,2805570 <_dtoa_r+0xe5c>
 2804974:	d9000a17 	ldw	r4,40(sp)
 2804978:	d8c00915 	stw	r3,36(sp)
 280497c:	d8001015 	stw	zero,64(sp)
 2804980:	20c9883a 	add	r4,r4,r3
 2804984:	d9000a15 	stw	r4,40(sp)
 2804988:	d9001717 	ldw	r4,92(sp)
 280498c:	00800244 	movi	r2,9
 2804990:	11004636 	bltu	r2,r4,2804aac <_dtoa_r+0x398>
 2804994:	00800144 	movi	r2,5
 2804998:	11020416 	blt	r2,r4,28051ac <_dtoa_r+0xa98>
 280499c:	04400044 	movi	r17,1
 28049a0:	d8c01717 	ldw	r3,92(sp)
 28049a4:	00800144 	movi	r2,5
 28049a8:	10c1ed36 	bltu	r2,r3,2805160 <_dtoa_r+0xa4c>
 28049ac:	18c5883a 	add	r2,r3,r3
 28049b0:	1085883a 	add	r2,r2,r2
 28049b4:	00c0a034 	movhi	r3,640
 28049b8:	18d27204 	addi	r3,r3,18888
 28049bc:	10c5883a 	add	r2,r2,r3
 28049c0:	11000017 	ldw	r4,0(r2)
 28049c4:	2000683a 	jmp	r4
 28049c8:	02804ab4 	movhi	r10,298
 28049cc:	02804ab4 	movhi	r10,298
 28049d0:	028054b4 	movhi	r10,338
 28049d4:	0280548c 	andi	r10,zero,338
 28049d8:	028054d0 	cmplti	r10,zero,339
 28049dc:	028054dc 	xori	r10,zero,339
 28049e0:	d9002717 	ldw	r4,156(sp)
 28049e4:	0089c3c4 	movi	r2,9999
 28049e8:	20800015 	stw	r2,0(r4)
 28049ec:	a0001026 	beq	r20,zero,2804a30 <_dtoa_r+0x31c>
 28049f0:	00c0a074 	movhi	r3,641
 28049f4:	18fe7a04 	addi	r3,r3,-1560
 28049f8:	d9802917 	ldw	r6,164(sp)
 28049fc:	303f7926 	beq	r6,zero,28047e4 <_dtoa_r+0xd0>
 2804a00:	188000c7 	ldb	r2,3(r3)
 2804a04:	190000c4 	addi	r4,r3,3
 2804a08:	1000101e 	bne	r2,zero,2804a4c <_dtoa_r+0x338>
 2804a0c:	d8802917 	ldw	r2,164(sp)
 2804a10:	11000015 	stw	r4,0(r2)
 2804a14:	003f7306 	br	28047e4 <_dtoa_r+0xd0>
 2804a18:	00a00034 	movhi	r2,32768
 2804a1c:	10bfffc4 	addi	r2,r2,-1
 2804a20:	00c00044 	movi	r3,1
 2804a24:	88aa703a 	and	r21,r17,r2
 2804a28:	90c00015 	stw	r3,0(r18)
 2804a2c:	003f5806 	br	2804790 <_dtoa_r+0x7c>
 2804a30:	00800434 	movhi	r2,16
 2804a34:	10bfffc4 	addi	r2,r2,-1
 2804a38:	a884703a 	and	r2,r21,r2
 2804a3c:	103fec1e 	bne	r2,zero,28049f0 <_dtoa_r+0x2dc>
 2804a40:	00c0a074 	movhi	r3,641
 2804a44:	18fe7704 	addi	r3,r3,-1572
 2804a48:	003feb06 	br	28049f8 <_dtoa_r+0x2e4>
 2804a4c:	d8802917 	ldw	r2,164(sp)
 2804a50:	19000204 	addi	r4,r3,8
 2804a54:	11000015 	stw	r4,0(r2)
 2804a58:	003f6206 	br	28047e4 <_dtoa_r+0xd0>
 2804a5c:	ddc00117 	ldw	r23,4(sp)
 2804a60:	d8800217 	ldw	r2,8(sp)
 2804a64:	01000804 	movi	r4,32
 2804a68:	b8c10c84 	addi	r3,r23,1074
 2804a6c:	18a3883a 	add	r17,r3,r2
 2804a70:	2441b80e 	bge	r4,r17,2805154 <_dtoa_r+0xa40>
 2804a74:	00c01004 	movi	r3,64
 2804a78:	1c47c83a 	sub	r3,r3,r17
 2804a7c:	88bff804 	addi	r2,r17,-32
 2804a80:	a8c6983a 	sll	r3,r21,r3
 2804a84:	a084d83a 	srl	r2,r20,r2
 2804a88:	1888b03a 	or	r4,r3,r2
 2804a8c:	280b4740 	call	280b474 <__floatunsidf>
 2804a90:	1011883a 	mov	r8,r2
 2804a94:	00bf8434 	movhi	r2,65040
 2804a98:	01000044 	movi	r4,1
 2804a9c:	10d3883a 	add	r9,r2,r3
 2804aa0:	8dbef344 	addi	r22,r17,-1075
 2804aa4:	d9000815 	stw	r4,32(sp)
 2804aa8:	003f6f06 	br	2804868 <_dtoa_r+0x154>
 2804aac:	d8001715 	stw	zero,92(sp)
 2804ab0:	04400044 	movi	r17,1
 2804ab4:	00bfffc4 	movi	r2,-1
 2804ab8:	00c00044 	movi	r3,1
 2804abc:	d8800e15 	stw	r2,56(sp)
 2804ac0:	d8002615 	stw	zero,152(sp)
 2804ac4:	d8800f15 	stw	r2,60(sp)
 2804ac8:	d8c00b15 	stw	r3,44(sp)
 2804acc:	1021883a 	mov	r16,r2
 2804ad0:	d8801617 	ldw	r2,88(sp)
 2804ad4:	10001115 	stw	zero,68(r2)
 2804ad8:	d8801617 	ldw	r2,88(sp)
 2804adc:	11401117 	ldw	r5,68(r2)
 2804ae0:	1009883a 	mov	r4,r2
 2804ae4:	2807e5c0 	call	2807e5c <_Balloc>
 2804ae8:	d8c01617 	ldw	r3,88(sp)
 2804aec:	d8800515 	stw	r2,20(sp)
 2804af0:	18801015 	stw	r2,64(r3)
 2804af4:	00800384 	movi	r2,14
 2804af8:	14006836 	bltu	r2,r16,2804c9c <_dtoa_r+0x588>
 2804afc:	8805003a 	cmpeq	r2,r17,zero
 2804b00:	1000661e 	bne	r2,zero,2804c9c <_dtoa_r+0x588>
 2804b04:	d9000d17 	ldw	r4,52(sp)
 2804b08:	0102300e 	bge	zero,r4,28053cc <_dtoa_r+0xcb8>
 2804b0c:	208003cc 	andi	r2,r4,15
 2804b10:	100490fa 	slli	r2,r2,3
 2804b14:	2025d13a 	srai	r18,r4,4
 2804b18:	00c0a074 	movhi	r3,641
 2804b1c:	18fe8c04 	addi	r3,r3,-1488
 2804b20:	10c5883a 	add	r2,r2,r3
 2804b24:	90c0040c 	andi	r3,r18,16
 2804b28:	14000017 	ldw	r16,0(r2)
 2804b2c:	14400117 	ldw	r17,4(r2)
 2804b30:	18036a1e 	bne	r3,zero,28058dc <_dtoa_r+0x11c8>
 2804b34:	05800084 	movi	r22,2
 2804b38:	90001026 	beq	r18,zero,2804b7c <_dtoa_r+0x468>
 2804b3c:	04c0a074 	movhi	r19,641
 2804b40:	9cfebe04 	addi	r19,r19,-1288
 2804b44:	9080004c 	andi	r2,r18,1
 2804b48:	1005003a 	cmpeq	r2,r2,zero
 2804b4c:	1000081e 	bne	r2,zero,2804b70 <_dtoa_r+0x45c>
 2804b50:	99800017 	ldw	r6,0(r19)
 2804b54:	99c00117 	ldw	r7,4(r19)
 2804b58:	880b883a 	mov	r5,r17
 2804b5c:	8009883a 	mov	r4,r16
 2804b60:	280a9e00 	call	280a9e0 <__muldf3>
 2804b64:	1021883a 	mov	r16,r2
 2804b68:	b5800044 	addi	r22,r22,1
 2804b6c:	1823883a 	mov	r17,r3
 2804b70:	9025d07a 	srai	r18,r18,1
 2804b74:	9cc00204 	addi	r19,r19,8
 2804b78:	903ff21e 	bne	r18,zero,2804b44 <_dtoa_r+0x430>
 2804b7c:	a80b883a 	mov	r5,r21
 2804b80:	a009883a 	mov	r4,r20
 2804b84:	880f883a 	mov	r7,r17
 2804b88:	800d883a 	mov	r6,r16
 2804b8c:	280ada40 	call	280ada4 <__divdf3>
 2804b90:	1029883a 	mov	r20,r2
 2804b94:	182b883a 	mov	r21,r3
 2804b98:	d8c00c17 	ldw	r3,48(sp)
 2804b9c:	1805003a 	cmpeq	r2,r3,zero
 2804ba0:	1000081e 	bne	r2,zero,2804bc4 <_dtoa_r+0x4b0>
 2804ba4:	0005883a 	mov	r2,zero
 2804ba8:	00cffc34 	movhi	r3,16368
 2804bac:	180f883a 	mov	r7,r3
 2804bb0:	a009883a 	mov	r4,r20
 2804bb4:	a80b883a 	mov	r5,r21
 2804bb8:	100d883a 	mov	r6,r2
 2804bbc:	280b21c0 	call	280b21c <__ltdf2>
 2804bc0:	1003fe16 	blt	r2,zero,2805bbc <_dtoa_r+0x14a8>
 2804bc4:	b009883a 	mov	r4,r22
 2804bc8:	280b2a40 	call	280b2a4 <__floatsidf>
 2804bcc:	180b883a 	mov	r5,r3
 2804bd0:	1009883a 	mov	r4,r2
 2804bd4:	a00d883a 	mov	r6,r20
 2804bd8:	a80f883a 	mov	r7,r21
 2804bdc:	280a9e00 	call	280a9e0 <__muldf3>
 2804be0:	0011883a 	mov	r8,zero
 2804be4:	02500734 	movhi	r9,16412
 2804be8:	1009883a 	mov	r4,r2
 2804bec:	180b883a 	mov	r5,r3
 2804bf0:	480f883a 	mov	r7,r9
 2804bf4:	400d883a 	mov	r6,r8
 2804bf8:	280a96c0 	call	280a96c <__adddf3>
 2804bfc:	d9000f17 	ldw	r4,60(sp)
 2804c00:	102d883a 	mov	r22,r2
 2804c04:	00bf3034 	movhi	r2,64704
 2804c08:	18b9883a 	add	fp,r3,r2
 2804c0c:	e02f883a 	mov	r23,fp
 2804c10:	20028f1e 	bne	r4,zero,2805650 <_dtoa_r+0xf3c>
 2804c14:	0005883a 	mov	r2,zero
 2804c18:	00d00534 	movhi	r3,16404
 2804c1c:	a009883a 	mov	r4,r20
 2804c20:	a80b883a 	mov	r5,r21
 2804c24:	180f883a 	mov	r7,r3
 2804c28:	100d883a 	mov	r6,r2
 2804c2c:	280a8ec0 	call	280a8ec <__subdf3>
 2804c30:	1009883a 	mov	r4,r2
 2804c34:	e00f883a 	mov	r7,fp
 2804c38:	180b883a 	mov	r5,r3
 2804c3c:	b00d883a 	mov	r6,r22
 2804c40:	1025883a 	mov	r18,r2
 2804c44:	1827883a 	mov	r19,r3
 2804c48:	280b10c0 	call	280b10c <__gtdf2>
 2804c4c:	00834f16 	blt	zero,r2,280598c <_dtoa_r+0x1278>
 2804c50:	e0e0003c 	xorhi	r3,fp,32768
 2804c54:	9009883a 	mov	r4,r18
 2804c58:	980b883a 	mov	r5,r19
 2804c5c:	180f883a 	mov	r7,r3
 2804c60:	b00d883a 	mov	r6,r22
 2804c64:	280b21c0 	call	280b21c <__ltdf2>
 2804c68:	1000080e 	bge	r2,zero,2804c8c <_dtoa_r+0x578>
 2804c6c:	0027883a 	mov	r19,zero
 2804c70:	0025883a 	mov	r18,zero
 2804c74:	d8802617 	ldw	r2,152(sp)
 2804c78:	df000517 	ldw	fp,20(sp)
 2804c7c:	d8000615 	stw	zero,24(sp)
 2804c80:	0084303a 	nor	r2,zero,r2
 2804c84:	d8800d15 	stw	r2,52(sp)
 2804c88:	00019b06 	br	28052f8 <_dtoa_r+0xbe4>
 2804c8c:	d9801217 	ldw	r6,72(sp)
 2804c90:	d8801317 	ldw	r2,76(sp)
 2804c94:	3029883a 	mov	r20,r6
 2804c98:	102b883a 	mov	r21,r2
 2804c9c:	d8c00217 	ldw	r3,8(sp)
 2804ca0:	18008516 	blt	r3,zero,2804eb8 <_dtoa_r+0x7a4>
 2804ca4:	d9000d17 	ldw	r4,52(sp)
 2804ca8:	00800384 	movi	r2,14
 2804cac:	11008216 	blt	r2,r4,2804eb8 <_dtoa_r+0x7a4>
 2804cb0:	200490fa 	slli	r2,r4,3
 2804cb4:	d9802617 	ldw	r6,152(sp)
 2804cb8:	00c0a074 	movhi	r3,641
 2804cbc:	18fe8c04 	addi	r3,r3,-1488
 2804cc0:	10c5883a 	add	r2,r2,r3
 2804cc4:	14800017 	ldw	r18,0(r2)
 2804cc8:	14c00117 	ldw	r19,4(r2)
 2804ccc:	30031e16 	blt	r6,zero,2805948 <_dtoa_r+0x1234>
 2804cd0:	d9000517 	ldw	r4,20(sp)
 2804cd4:	d8c00f17 	ldw	r3,60(sp)
 2804cd8:	a823883a 	mov	r17,r21
 2804cdc:	a021883a 	mov	r16,r20
 2804ce0:	192b883a 	add	r21,r3,r4
 2804ce4:	2039883a 	mov	fp,r4
 2804ce8:	00000f06 	br	2804d28 <_dtoa_r+0x614>
 2804cec:	0005883a 	mov	r2,zero
 2804cf0:	00d00934 	movhi	r3,16420
 2804cf4:	5009883a 	mov	r4,r10
 2804cf8:	580b883a 	mov	r5,r11
 2804cfc:	180f883a 	mov	r7,r3
 2804d00:	100d883a 	mov	r6,r2
 2804d04:	280a9e00 	call	280a9e0 <__muldf3>
 2804d08:	180b883a 	mov	r5,r3
 2804d0c:	000d883a 	mov	r6,zero
 2804d10:	000f883a 	mov	r7,zero
 2804d14:	1009883a 	mov	r4,r2
 2804d18:	1021883a 	mov	r16,r2
 2804d1c:	1823883a 	mov	r17,r3
 2804d20:	280b0840 	call	280b084 <__nedf2>
 2804d24:	10004526 	beq	r2,zero,2804e3c <_dtoa_r+0x728>
 2804d28:	900d883a 	mov	r6,r18
 2804d2c:	980f883a 	mov	r7,r19
 2804d30:	8009883a 	mov	r4,r16
 2804d34:	880b883a 	mov	r5,r17
 2804d38:	280ada40 	call	280ada4 <__divdf3>
 2804d3c:	180b883a 	mov	r5,r3
 2804d40:	1009883a 	mov	r4,r2
 2804d44:	280b39c0 	call	280b39c <__fixdfsi>
 2804d48:	1009883a 	mov	r4,r2
 2804d4c:	1029883a 	mov	r20,r2
 2804d50:	280b2a40 	call	280b2a4 <__floatsidf>
 2804d54:	180f883a 	mov	r7,r3
 2804d58:	9009883a 	mov	r4,r18
 2804d5c:	980b883a 	mov	r5,r19
 2804d60:	100d883a 	mov	r6,r2
 2804d64:	280a9e00 	call	280a9e0 <__muldf3>
 2804d68:	180f883a 	mov	r7,r3
 2804d6c:	880b883a 	mov	r5,r17
 2804d70:	8009883a 	mov	r4,r16
 2804d74:	100d883a 	mov	r6,r2
 2804d78:	280a8ec0 	call	280a8ec <__subdf3>
 2804d7c:	1015883a 	mov	r10,r2
 2804d80:	a0800c04 	addi	r2,r20,48
 2804d84:	e0800005 	stb	r2,0(fp)
 2804d88:	e7000044 	addi	fp,fp,1
 2804d8c:	1817883a 	mov	r11,r3
 2804d90:	e57fd61e 	bne	fp,r21,2804cec <_dtoa_r+0x5d8>
 2804d94:	500d883a 	mov	r6,r10
 2804d98:	180f883a 	mov	r7,r3
 2804d9c:	5009883a 	mov	r4,r10
 2804da0:	180b883a 	mov	r5,r3
 2804da4:	280a96c0 	call	280a96c <__adddf3>
 2804da8:	100d883a 	mov	r6,r2
 2804dac:	9009883a 	mov	r4,r18
 2804db0:	980b883a 	mov	r5,r19
 2804db4:	180f883a 	mov	r7,r3
 2804db8:	1021883a 	mov	r16,r2
 2804dbc:	1823883a 	mov	r17,r3
 2804dc0:	280b21c0 	call	280b21c <__ltdf2>
 2804dc4:	10000816 	blt	r2,zero,2804de8 <_dtoa_r+0x6d4>
 2804dc8:	980b883a 	mov	r5,r19
 2804dcc:	800d883a 	mov	r6,r16
 2804dd0:	880f883a 	mov	r7,r17
 2804dd4:	9009883a 	mov	r4,r18
 2804dd8:	280affc0 	call	280affc <__eqdf2>
 2804ddc:	1000171e 	bne	r2,zero,2804e3c <_dtoa_r+0x728>
 2804de0:	a080004c 	andi	r2,r20,1
 2804de4:	10001526 	beq	r2,zero,2804e3c <_dtoa_r+0x728>
 2804de8:	d8800d17 	ldw	r2,52(sp)
 2804dec:	d8800415 	stw	r2,16(sp)
 2804df0:	e009883a 	mov	r4,fp
 2804df4:	213fffc4 	addi	r4,r4,-1
 2804df8:	20c00007 	ldb	r3,0(r4)
 2804dfc:	00800e44 	movi	r2,57
 2804e00:	1880081e 	bne	r3,r2,2804e24 <_dtoa_r+0x710>
 2804e04:	d8800517 	ldw	r2,20(sp)
 2804e08:	113ffa1e 	bne	r2,r4,2804df4 <_dtoa_r+0x6e0>
 2804e0c:	d8c00417 	ldw	r3,16(sp)
 2804e10:	d9800517 	ldw	r6,20(sp)
 2804e14:	00800c04 	movi	r2,48
 2804e18:	18c00044 	addi	r3,r3,1
 2804e1c:	d8c00415 	stw	r3,16(sp)
 2804e20:	30800005 	stb	r2,0(r6)
 2804e24:	20800003 	ldbu	r2,0(r4)
 2804e28:	d8c00417 	ldw	r3,16(sp)
 2804e2c:	27000044 	addi	fp,r4,1
 2804e30:	10800044 	addi	r2,r2,1
 2804e34:	d8c00d15 	stw	r3,52(sp)
 2804e38:	20800005 	stb	r2,0(r4)
 2804e3c:	d9001617 	ldw	r4,88(sp)
 2804e40:	d9400717 	ldw	r5,28(sp)
 2804e44:	28078dc0 	call	28078dc <_Bfree>
 2804e48:	e0000005 	stb	zero,0(fp)
 2804e4c:	d9800d17 	ldw	r6,52(sp)
 2804e50:	d8c02717 	ldw	r3,156(sp)
 2804e54:	d9002917 	ldw	r4,164(sp)
 2804e58:	30800044 	addi	r2,r6,1
 2804e5c:	18800015 	stw	r2,0(r3)
 2804e60:	20029c26 	beq	r4,zero,28058d4 <_dtoa_r+0x11c0>
 2804e64:	d8c00517 	ldw	r3,20(sp)
 2804e68:	27000015 	stw	fp,0(r4)
 2804e6c:	003e5d06 	br	28047e4 <_dtoa_r+0xd0>
 2804e70:	d9800d17 	ldw	r6,52(sp)
 2804e74:	00c0a074 	movhi	r3,641
 2804e78:	18fe8c04 	addi	r3,r3,-1488
 2804e7c:	d9001217 	ldw	r4,72(sp)
 2804e80:	300490fa 	slli	r2,r6,3
 2804e84:	d9401317 	ldw	r5,76(sp)
 2804e88:	10c5883a 	add	r2,r2,r3
 2804e8c:	12000017 	ldw	r8,0(r2)
 2804e90:	12400117 	ldw	r9,4(r2)
 2804e94:	400d883a 	mov	r6,r8
 2804e98:	480f883a 	mov	r7,r9
 2804e9c:	280b21c0 	call	280b21c <__ltdf2>
 2804ea0:	1000030e 	bge	r2,zero,2804eb0 <_dtoa_r+0x79c>
 2804ea4:	d8800d17 	ldw	r2,52(sp)
 2804ea8:	10bfffc4 	addi	r2,r2,-1
 2804eac:	d8800d15 	stw	r2,52(sp)
 2804eb0:	d8000c15 	stw	zero,48(sp)
 2804eb4:	003ea806 	br	2804958 <_dtoa_r+0x244>
 2804eb8:	d9000b17 	ldw	r4,44(sp)
 2804ebc:	202cc03a 	cmpne	r22,r4,zero
 2804ec0:	b000c71e 	bne	r22,zero,28051e0 <_dtoa_r+0xacc>
 2804ec4:	dc001117 	ldw	r16,68(sp)
 2804ec8:	dc801017 	ldw	r18,64(sp)
 2804ecc:	0027883a 	mov	r19,zero
 2804ed0:	04000b0e 	bge	zero,r16,2804f00 <_dtoa_r+0x7ec>
 2804ed4:	d8c00a17 	ldw	r3,40(sp)
 2804ed8:	00c0090e 	bge	zero,r3,2804f00 <_dtoa_r+0x7ec>
 2804edc:	8005883a 	mov	r2,r16
 2804ee0:	1c011316 	blt	r3,r16,2805330 <_dtoa_r+0xc1c>
 2804ee4:	d9000a17 	ldw	r4,40(sp)
 2804ee8:	d9801117 	ldw	r6,68(sp)
 2804eec:	80a1c83a 	sub	r16,r16,r2
 2804ef0:	2089c83a 	sub	r4,r4,r2
 2804ef4:	308dc83a 	sub	r6,r6,r2
 2804ef8:	d9000a15 	stw	r4,40(sp)
 2804efc:	d9801115 	stw	r6,68(sp)
 2804f00:	d8801017 	ldw	r2,64(sp)
 2804f04:	0080150e 	bge	zero,r2,2804f5c <_dtoa_r+0x848>
 2804f08:	d8c00b17 	ldw	r3,44(sp)
 2804f0c:	1805003a 	cmpeq	r2,r3,zero
 2804f10:	1001c91e 	bne	r2,zero,2805638 <_dtoa_r+0xf24>
 2804f14:	04800e0e 	bge	zero,r18,2804f50 <_dtoa_r+0x83c>
 2804f18:	d9001617 	ldw	r4,88(sp)
 2804f1c:	980b883a 	mov	r5,r19
 2804f20:	900d883a 	mov	r6,r18
 2804f24:	28087280 	call	2808728 <__pow5mult>
 2804f28:	d9001617 	ldw	r4,88(sp)
 2804f2c:	d9800717 	ldw	r6,28(sp)
 2804f30:	100b883a 	mov	r5,r2
 2804f34:	1027883a 	mov	r19,r2
 2804f38:	280836c0 	call	280836c <__multiply>
 2804f3c:	d9001617 	ldw	r4,88(sp)
 2804f40:	d9400717 	ldw	r5,28(sp)
 2804f44:	1023883a 	mov	r17,r2
 2804f48:	28078dc0 	call	28078dc <_Bfree>
 2804f4c:	dc400715 	stw	r17,28(sp)
 2804f50:	d9001017 	ldw	r4,64(sp)
 2804f54:	248dc83a 	sub	r6,r4,r18
 2804f58:	30010e1e 	bne	r6,zero,2805394 <_dtoa_r+0xc80>
 2804f5c:	d9001617 	ldw	r4,88(sp)
 2804f60:	04400044 	movi	r17,1
 2804f64:	880b883a 	mov	r5,r17
 2804f68:	28085c00 	call	28085c0 <__i2b>
 2804f6c:	d9800917 	ldw	r6,36(sp)
 2804f70:	1025883a 	mov	r18,r2
 2804f74:	0180040e 	bge	zero,r6,2804f88 <_dtoa_r+0x874>
 2804f78:	d9001617 	ldw	r4,88(sp)
 2804f7c:	100b883a 	mov	r5,r2
 2804f80:	28087280 	call	2808728 <__pow5mult>
 2804f84:	1025883a 	mov	r18,r2
 2804f88:	d8801717 	ldw	r2,92(sp)
 2804f8c:	8880f30e 	bge	r17,r2,280535c <_dtoa_r+0xc48>
 2804f90:	0023883a 	mov	r17,zero
 2804f94:	d9800917 	ldw	r6,36(sp)
 2804f98:	30019e1e 	bne	r6,zero,2805614 <_dtoa_r+0xf00>
 2804f9c:	00c00044 	movi	r3,1
 2804fa0:	d9000a17 	ldw	r4,40(sp)
 2804fa4:	20c5883a 	add	r2,r4,r3
 2804fa8:	10c007cc 	andi	r3,r2,31
 2804fac:	1800841e 	bne	r3,zero,28051c0 <_dtoa_r+0xaac>
 2804fb0:	00800704 	movi	r2,28
 2804fb4:	d9000a17 	ldw	r4,40(sp)
 2804fb8:	d9801117 	ldw	r6,68(sp)
 2804fbc:	80a1883a 	add	r16,r16,r2
 2804fc0:	2089883a 	add	r4,r4,r2
 2804fc4:	308d883a 	add	r6,r6,r2
 2804fc8:	d9000a15 	stw	r4,40(sp)
 2804fcc:	d9801115 	stw	r6,68(sp)
 2804fd0:	d8801117 	ldw	r2,68(sp)
 2804fd4:	0080050e 	bge	zero,r2,2804fec <_dtoa_r+0x8d8>
 2804fd8:	d9400717 	ldw	r5,28(sp)
 2804fdc:	d9001617 	ldw	r4,88(sp)
 2804fe0:	100d883a 	mov	r6,r2
 2804fe4:	28082200 	call	2808220 <__lshift>
 2804fe8:	d8800715 	stw	r2,28(sp)
 2804fec:	d8c00a17 	ldw	r3,40(sp)
 2804ff0:	00c0050e 	bge	zero,r3,2805008 <_dtoa_r+0x8f4>
 2804ff4:	d9001617 	ldw	r4,88(sp)
 2804ff8:	900b883a 	mov	r5,r18
 2804ffc:	180d883a 	mov	r6,r3
 2805000:	28082200 	call	2808220 <__lshift>
 2805004:	1025883a 	mov	r18,r2
 2805008:	d9000c17 	ldw	r4,48(sp)
 280500c:	2005003a 	cmpeq	r2,r4,zero
 2805010:	10016f26 	beq	r2,zero,28055d0 <_dtoa_r+0xebc>
 2805014:	d9000f17 	ldw	r4,60(sp)
 2805018:	0102170e 	bge	zero,r4,2805878 <_dtoa_r+0x1164>
 280501c:	d9800b17 	ldw	r6,44(sp)
 2805020:	3005003a 	cmpeq	r2,r6,zero
 2805024:	1000881e 	bne	r2,zero,2805248 <_dtoa_r+0xb34>
 2805028:	0400050e 	bge	zero,r16,2805040 <_dtoa_r+0x92c>
 280502c:	d9001617 	ldw	r4,88(sp)
 2805030:	980b883a 	mov	r5,r19
 2805034:	800d883a 	mov	r6,r16
 2805038:	28082200 	call	2808220 <__lshift>
 280503c:	1027883a 	mov	r19,r2
 2805040:	8804c03a 	cmpne	r2,r17,zero
 2805044:	1002541e 	bne	r2,zero,2805998 <_dtoa_r+0x1284>
 2805048:	980b883a 	mov	r5,r19
 280504c:	dd800517 	ldw	r22,20(sp)
 2805050:	dcc00615 	stw	r19,24(sp)
 2805054:	a700004c 	andi	fp,r20,1
 2805058:	2827883a 	mov	r19,r5
 280505c:	d9000717 	ldw	r4,28(sp)
 2805060:	900b883a 	mov	r5,r18
 2805064:	28044d00 	call	28044d0 <quorem>
 2805068:	d9000717 	ldw	r4,28(sp)
 280506c:	d9400617 	ldw	r5,24(sp)
 2805070:	1023883a 	mov	r17,r2
 2805074:	8dc00c04 	addi	r23,r17,48
 2805078:	2807a380 	call	2807a38 <__mcmp>
 280507c:	d9001617 	ldw	r4,88(sp)
 2805080:	900b883a 	mov	r5,r18
 2805084:	980d883a 	mov	r6,r19
 2805088:	1029883a 	mov	r20,r2
 280508c:	28080940 	call	2808094 <__mdiff>
 2805090:	102b883a 	mov	r21,r2
 2805094:	10800317 	ldw	r2,12(r2)
 2805098:	1001281e 	bne	r2,zero,280553c <_dtoa_r+0xe28>
 280509c:	d9000717 	ldw	r4,28(sp)
 28050a0:	a80b883a 	mov	r5,r21
 28050a4:	2807a380 	call	2807a38 <__mcmp>
 28050a8:	d9001617 	ldw	r4,88(sp)
 28050ac:	1021883a 	mov	r16,r2
 28050b0:	a80b883a 	mov	r5,r21
 28050b4:	28078dc0 	call	28078dc <_Bfree>
 28050b8:	8000041e 	bne	r16,zero,28050cc <_dtoa_r+0x9b8>
 28050bc:	d8801717 	ldw	r2,92(sp)
 28050c0:	1000021e 	bne	r2,zero,28050cc <_dtoa_r+0x9b8>
 28050c4:	e004c03a 	cmpne	r2,fp,zero
 28050c8:	10011726 	beq	r2,zero,2805528 <_dtoa_r+0xe14>
 28050cc:	a0010616 	blt	r20,zero,28054e8 <_dtoa_r+0xdd4>
 28050d0:	a000041e 	bne	r20,zero,28050e4 <_dtoa_r+0x9d0>
 28050d4:	d8c01717 	ldw	r3,92(sp)
 28050d8:	1800021e 	bne	r3,zero,28050e4 <_dtoa_r+0x9d0>
 28050dc:	e004c03a 	cmpne	r2,fp,zero
 28050e0:	10010126 	beq	r2,zero,28054e8 <_dtoa_r+0xdd4>
 28050e4:	04023d16 	blt	zero,r16,28059dc <_dtoa_r+0x12c8>
 28050e8:	b5c00005 	stb	r23,0(r22)
 28050ec:	d9800517 	ldw	r6,20(sp)
 28050f0:	d9000f17 	ldw	r4,60(sp)
 28050f4:	b5800044 	addi	r22,r22,1
 28050f8:	3105883a 	add	r2,r6,r4
 28050fc:	b0806526 	beq	r22,r2,2805294 <_dtoa_r+0xb80>
 2805100:	d9400717 	ldw	r5,28(sp)
 2805104:	d9001617 	ldw	r4,88(sp)
 2805108:	01800284 	movi	r6,10
 280510c:	000f883a 	mov	r7,zero
 2805110:	28085fc0 	call	28085fc <__multadd>
 2805114:	d8800715 	stw	r2,28(sp)
 2805118:	d8800617 	ldw	r2,24(sp)
 280511c:	14c10c26 	beq	r2,r19,2805550 <_dtoa_r+0xe3c>
 2805120:	d9400617 	ldw	r5,24(sp)
 2805124:	d9001617 	ldw	r4,88(sp)
 2805128:	01800284 	movi	r6,10
 280512c:	000f883a 	mov	r7,zero
 2805130:	28085fc0 	call	28085fc <__multadd>
 2805134:	d9001617 	ldw	r4,88(sp)
 2805138:	980b883a 	mov	r5,r19
 280513c:	01800284 	movi	r6,10
 2805140:	000f883a 	mov	r7,zero
 2805144:	d8800615 	stw	r2,24(sp)
 2805148:	28085fc0 	call	28085fc <__multadd>
 280514c:	1027883a 	mov	r19,r2
 2805150:	003fc206 	br	280505c <_dtoa_r+0x948>
 2805154:	2445c83a 	sub	r2,r4,r17
 2805158:	a088983a 	sll	r4,r20,r2
 280515c:	003e4b06 	br	2804a8c <_dtoa_r+0x378>
 2805160:	01bfffc4 	movi	r6,-1
 2805164:	00800044 	movi	r2,1
 2805168:	d9800e15 	stw	r6,56(sp)
 280516c:	d9800f15 	stw	r6,60(sp)
 2805170:	d8800b15 	stw	r2,44(sp)
 2805174:	d8c01617 	ldw	r3,88(sp)
 2805178:	008005c4 	movi	r2,23
 280517c:	18001115 	stw	zero,68(r3)
 2805180:	1580082e 	bgeu	r2,r22,28051a4 <_dtoa_r+0xa90>
 2805184:	00c00104 	movi	r3,4
 2805188:	0009883a 	mov	r4,zero
 280518c:	18c7883a 	add	r3,r3,r3
 2805190:	18800504 	addi	r2,r3,20
 2805194:	21000044 	addi	r4,r4,1
 2805198:	b0bffc2e 	bgeu	r22,r2,280518c <_dtoa_r+0xa78>
 280519c:	d9801617 	ldw	r6,88(sp)
 28051a0:	31001115 	stw	r4,68(r6)
 28051a4:	dc000f17 	ldw	r16,60(sp)
 28051a8:	003e4b06 	br	2804ad8 <_dtoa_r+0x3c4>
 28051ac:	d9801717 	ldw	r6,92(sp)
 28051b0:	0023883a 	mov	r17,zero
 28051b4:	31bfff04 	addi	r6,r6,-4
 28051b8:	d9801715 	stw	r6,92(sp)
 28051bc:	003df806 	br	28049a0 <_dtoa_r+0x28c>
 28051c0:	00800804 	movi	r2,32
 28051c4:	10c9c83a 	sub	r4,r2,r3
 28051c8:	00c00104 	movi	r3,4
 28051cc:	19005a16 	blt	r3,r4,2805338 <_dtoa_r+0xc24>
 28051d0:	008000c4 	movi	r2,3
 28051d4:	113f7e16 	blt	r2,r4,2804fd0 <_dtoa_r+0x8bc>
 28051d8:	20800704 	addi	r2,r4,28
 28051dc:	003f7506 	br	2804fb4 <_dtoa_r+0x8a0>
 28051e0:	d9801717 	ldw	r6,92(sp)
 28051e4:	00800044 	movi	r2,1
 28051e8:	1180a10e 	bge	r2,r6,2805470 <_dtoa_r+0xd5c>
 28051ec:	d9800f17 	ldw	r6,60(sp)
 28051f0:	d8c01017 	ldw	r3,64(sp)
 28051f4:	30bfffc4 	addi	r2,r6,-1
 28051f8:	1881c616 	blt	r3,r2,2805914 <_dtoa_r+0x1200>
 28051fc:	18a5c83a 	sub	r18,r3,r2
 2805200:	d8800f17 	ldw	r2,60(sp)
 2805204:	10026216 	blt	r2,zero,2805b90 <_dtoa_r+0x147c>
 2805208:	dc001117 	ldw	r16,68(sp)
 280520c:	1007883a 	mov	r3,r2
 2805210:	d9800a17 	ldw	r6,40(sp)
 2805214:	d8801117 	ldw	r2,68(sp)
 2805218:	d9001617 	ldw	r4,88(sp)
 280521c:	30cd883a 	add	r6,r6,r3
 2805220:	10c5883a 	add	r2,r2,r3
 2805224:	01400044 	movi	r5,1
 2805228:	d9800a15 	stw	r6,40(sp)
 280522c:	d8801115 	stw	r2,68(sp)
 2805230:	28085c00 	call	28085c0 <__i2b>
 2805234:	1027883a 	mov	r19,r2
 2805238:	003f2506 	br	2804ed0 <_dtoa_r+0x7bc>
 280523c:	00c0a074 	movhi	r3,641
 2805240:	18fe6e04 	addi	r3,r3,-1608
 2805244:	003d6706 	br	28047e4 <_dtoa_r+0xd0>
 2805248:	dd800517 	ldw	r22,20(sp)
 280524c:	04000044 	movi	r16,1
 2805250:	00000706 	br	2805270 <_dtoa_r+0xb5c>
 2805254:	d9400717 	ldw	r5,28(sp)
 2805258:	d9001617 	ldw	r4,88(sp)
 280525c:	01800284 	movi	r6,10
 2805260:	000f883a 	mov	r7,zero
 2805264:	28085fc0 	call	28085fc <__multadd>
 2805268:	d8800715 	stw	r2,28(sp)
 280526c:	84000044 	addi	r16,r16,1
 2805270:	d9000717 	ldw	r4,28(sp)
 2805274:	900b883a 	mov	r5,r18
 2805278:	28044d00 	call	28044d0 <quorem>
 280527c:	15c00c04 	addi	r23,r2,48
 2805280:	b5c00005 	stb	r23,0(r22)
 2805284:	d8c00f17 	ldw	r3,60(sp)
 2805288:	b5800044 	addi	r22,r22,1
 280528c:	80fff116 	blt	r16,r3,2805254 <_dtoa_r+0xb40>
 2805290:	d8000615 	stw	zero,24(sp)
 2805294:	d9400717 	ldw	r5,28(sp)
 2805298:	d9001617 	ldw	r4,88(sp)
 280529c:	01800044 	movi	r6,1
 28052a0:	28082200 	call	2808220 <__lshift>
 28052a4:	1009883a 	mov	r4,r2
 28052a8:	900b883a 	mov	r5,r18
 28052ac:	d8800715 	stw	r2,28(sp)
 28052b0:	2807a380 	call	2807a38 <__mcmp>
 28052b4:	00803c0e 	bge	zero,r2,28053a8 <_dtoa_r+0xc94>
 28052b8:	b009883a 	mov	r4,r22
 28052bc:	213fffc4 	addi	r4,r4,-1
 28052c0:	21400003 	ldbu	r5,0(r4)
 28052c4:	00800e44 	movi	r2,57
 28052c8:	28c03fcc 	andi	r3,r5,255
 28052cc:	18c0201c 	xori	r3,r3,128
 28052d0:	18ffe004 	addi	r3,r3,-128
 28052d4:	1881981e 	bne	r3,r2,2805938 <_dtoa_r+0x1224>
 28052d8:	d9800517 	ldw	r6,20(sp)
 28052dc:	21bff71e 	bne	r4,r6,28052bc <_dtoa_r+0xba8>
 28052e0:	d8800d17 	ldw	r2,52(sp)
